 Client_DEV

 Timestamp is 62c47a0d (Tue Jul 05 14:51:09 2022)

 Preferred load address is 00400000

 Start         Length     Name                   Class
 0001:00000000 0013cc59H .text                   CODE
 0001:0013cc60 00005b67H .text$x                 CODE
 0001:001427d0 000031d7H .text$yc                CODE
 0001:001459b0 0000127bH .text$yd                CODE
 0002:00000000 00000104H .CRT$XCA                DATA
 0002:00000104 0000010eH .CRT$XCC                DATA
 0002:00000214 00000109H .CRT$XCL                DATA
 0002:00000320 0000013dH .CRT$XCU                DATA
 0002:00000460 00000104H .CRT$XCZ                DATA
 0002:00000564 00000104H .CRT$XIA                DATA
 0002:00000668 00000118H .CRT$XIC                DATA
 0002:00000780 00000104H .CRT$XIY                DATA
 0002:00000884 00000104H .CRT$XIZ                DATA
 0002:00000988 00000104H .CRT$XPA                DATA
 0002:00000a8c 00000104H .CRT$XPX                DATA
 0002:00000b90 00000104H .CRT$XPXA               DATA
 0002:00000c94 00000104H .CRT$XPZ                DATA
 0002:00000d98 00000104H .CRT$XTA                DATA
 0002:00000e9c 00000104H .CRT$XTZ                DATA
 0002:00000fa0 0001f8a1H .rdata                  DATA
 0002:00020844 00000178H .rdata$debug            DATA
 0002:000209bc 000016d6H .rdata$r                DATA
 0002:00022094 00000104H .rtc$IAA                DATA
 0002:00022198 00000104H .rtc$IZZ                DATA
 0002:0002229c 00000104H .rtc$TAA                DATA
 0002:000223a0 00000104H .rtc$TZZ                DATA
 0002:000224a8 00004cf1H .xdata$x                DATA
 0002:00027199 00000000H .edata                  DATA
 0003:00000000 00004f24H .data                   DATA
 0003:00004f40 000d1a58H .bss                    DATA
 0004:00000000 000000f0H .idata$2                DATA
 0004:000000f0 00000014H .idata$3                DATA
 0004:00000104 00000574H .idata$4                DATA
 0004:00000678 00000574H .idata$5                DATA
 0004:00000bec 00000dceH .idata$6                DATA
 0005:00000000 000002fcH .rsrc$01                DATA
 0005:00000300 000b1c36H .rsrc$02                DATA

  Address         Publics by Value              Rva+Base       Lib:Object

 0000:00000000       ___safe_se_handler_table   00000000     <absolute>
 0000:00000000       __except_list              00000000     <absolute>
 0000:00000000       ___safe_se_handler_count   00000000     <absolute>
 0000:00000000       ___ImageBase               00400000     <linker-defined>
 0001:00004d80       ?Push@@YAXAAPADE@Z         00405d80 f   buffer.obj
 0001:00004da0       ?Push@@YAXAAPADG@Z         00405da0 f   buffer.obj
 0001:00004dc0       ?Push@@YAXAAPADK@Z         00405dc0 f   buffer.obj
 0001:00004de0       ?Push@@YAXAAPAD_K@Z        00405de0 f   buffer.obj
 0001:00004e00       ?Push@@YAXAAPADPADK@Z      00405e00 f   buffer.obj
 0001:00004e30       ?Pop@@YAXAAPADAAE@Z        00405e30 f   buffer.obj
 0001:00004e50       ?Pop@@YAXAAPADAAG@Z        00405e50 f   buffer.obj
 0001:00004e70       ?Pop@@YAXAAPADAAK@Z        00405e70 f   buffer.obj
 0001:00004e90       ?Pop@@YAXAAPADAA_K@Z       00405e90 f   buffer.obj
 0001:00004ec0       ?Pop@@YAXAAPADPADK@Z       00405ec0 f   buffer.obj
 0001:00004ef0       ??0CCharInfo@@QAE@XZ       00405ef0 f   CharInfo.obj
 0001:00004f30       ??1CCharInfo@@UAE@XZ       00405f30 f   CharInfo.obj
 0001:00004f40       ??_ECCharInfo@@UAEPAXI@Z   00405f40 f i CharInfo.obj
 0001:00004f40       ??_GCCharInfo@@UAEPAXI@Z   00405f40 f i CharInfo.obj
 0001:00004f70       ?strchr@@YAPADPADH@Z       00405f70 f i Curse.obj
 0001:00004f80       ?strstr@@YAPADPADPBD@Z     00405f80 f i Curse.obj
 0001:00004f90       ??0CCurse@@QAE@XZ          00405f90 f   Curse.obj
 0001:00004fa0       ??1CCurse@@UAE@XZ          00405fa0 f   Curse.obj
 0001:00004fb0       ?LoadCurse@CCurse@@QAEXPBD@Z 00405fb0 f   Curse.obj
 0001:000050b0       ?filterChar@CCurse@@QAEXPBDPAD0@Z 004060b0 f   Curse.obj
 0001:000051b0       ?getField@CCurse@@QAEPADPBDHPAD@Z 004061b0 f   Curse.obj
 0001:00005220       ?IsCurse@CCurse@@QAE_NPBD@Z 00406220 f   Curse.obj
 0001:000053e0       ?ConvertString@CCurse@@QAEPADPADH@Z 004063e0 f   Curse.obj
 0001:00005760       ??_ECCurse@@UAEPAXI@Z      00406760 f i Curse.obj
 0001:00005760       ??_GCCurse@@UAEPAXI@Z      00406760 f i Curse.obj
 0001:00005790       ??0bad_alloc@std@@QAE@PBD@Z 00406790 f i Guild.obj
 0001:000057c0       ??1bad_alloc@std@@UAE@XZ   004067c0 f i Guild.obj
 0001:000057d0       ??_Gbad_alloc@std@@UAEPAXI@Z 004067d0 f i Guild.obj
 0001:000057d0       ??_Ebad_alloc@std@@UAEPAXI@Z 004067d0 f i Guild.obj
 0001:00005800       ??2@YAPAXIPAX@Z            00406800 f i Guild.obj
 0001:00005810       ??3@YAXPAX0@Z              00406810 f i Guild.obj
 0001:00005820       ?compare@?$char_traits@D@std@@SAHPBD0I@Z 00406820 f i Guild.obj
 0001:000058c0       ?length@?$char_traits@D@std@@SAIPBD@Z 004068c0 f i Guild.obj
 0001:000058f0       ?copy@?$char_traits@D@std@@SAPADPADPBDI@Z 004068f0 f i Guild.obj
 0001:00005900       ?move@?$char_traits@D@std@@SAPADPADPBDI@Z 00406900 f i Guild.obj
 0001:00005910       ?assign@?$char_traits@D@std@@SAXAADABD@Z 00406910 f i Guild.obj
 0001:00005930       ?_Orphan_all@_Container_base0@std@@QAEXXZ 00406930 f i Guild.obj
 0001:00005940       ?_Adopt@_Iterator_base0@std@@QAEXPBX@Z 00406940 f i Guild.obj
 0001:00005950       ?size@?$basic_string@DU?$char_traits@D@std@@V?$allocator@D@2@@std@@QBEIXZ 00406950 f i Guild.obj
 0001:00005960       ?_Myptr@?$basic_string@DU?$char_traits@D@std@@V?$allocator@D@2@@std@@QBEPBDXZ 00406960 f i Guild.obj
 0001:00005970       ??1?$_String_val@DV?$allocator@D@std@@@std@@QAE@XZ 00406970 f i Guild.obj
 0001:00005980       ??0?$allocator@D@std@@QAE@XZ 00406980 f i Guild.obj
 0001:00005990       ??0?$allocator@D@std@@QAE@ABV01@@Z 00406990 f i Guild.obj
 0001:000059a0       ??0?$allocator@U?$pair@$$CBV?$basic_string@DU?$char_traits@D@std@@V?$allocator@D@2@@std@@UGuildMember@@@std@@@std@@QAE@XZ 004069a0 f i Guild.obj
 0001:000059b0       ??0?$_Hash_compare@V?$basic_string@DU?$char_traits@D@std@@V?$allocator@D@2@@std@@V?$hash@V?$basic_string@DU?$char_traits@D@std@@V?$allocator@D@2@@std@@@2@U?$equal_to@V?$basic_string@DU?$char_traits@D@std@@V?$allocator@D@2@@std@@@2@@std@@QAE@XZ 004069b0 f i Guild.obj
 0001:000059c0       ?size@?$list@U?$pair@$$CBV?$basic_string@DU?$char_traits@D@std@@V?$allocator@D@2@@std@@UGuildMember@@@std@@V?$allocator@U?$pair@$$CBV?$basic_string@DU?$char_traits@D@std@@V?$allocator@D@2@@std@@UGuildMember@@@std@@@2@@std@@QBEIXZ 004069c0 f i Guild.obj
 0001:000059d0       ??8?$_List_const_iterator@V?$_List_val@U?$pair@$$CBV?$basic_string@DU?$char_traits@D@std@@V?$allocator@D@2@@std@@UGuildMember@@@std@@V?$allocator@U?$pair@$$CBV?$basic_string@DU?$char_traits@D@std@@V?$allocator@D@2@@std@@UGuildMember@@@std@@@2@@std@@@std@@QBE_NABV01@@Z 004069d0 f i Guild.obj
 0001:000059f0       ?_Myptr@?$basic_string@DU?$char_traits@D@std@@V?$allocator@D@2@@std@@QAEPADXZ 004069f0 f i Guild.obj
 0001:00005a00       ?_Xran@?$basic_string@DU?$char_traits@D@std@@V?$allocator@D@2@@std@@QBEXXZ 00406a00 f i Guild.obj
 0001:00005a10       ?deallocate@?$allocator@D@std@@QAEXPADI@Z 00406a10 f i Guild.obj
 0001:00005a30       ??0?$_Umap_traits@V?$basic_string@DU?$char_traits@D@std@@V?$allocator@D@2@@std@@UGuildMember@@V?$_Hash_compare@V?$basic_string@DU?$char_traits@D@std@@V?$allocator@D@2@@std@@V?$hash@V?$basic_string@DU?$char_traits@D@std@@V?$allocator@D@2@@std@@@2@U?$equal_to@V?$basic_string@DU?$char_traits@D@std@@V?$allocator@D@2@@std@@@2@@2@V?$allocator@U?$pair@$$CBV?$basic_string@DU?$char_traits@D@std@@V?$allocator@D@2@@std@@UGuildMember@@@std@@@2@$0A@@tr1@std@@QAE@ABV?$_Hash_compare@V?$basic_string@DU?$char_traits@D@std@@V?$allocator@D@2@@std@@V?$hash@V?$basic_string@DU?$char_traits@D@std@@V?$allocator@D@2@@std@@@2@U?$equal_to@V?$basic_string@DU?$char_traits@D@std@@V?$allocator@D@2@@std@@@2@@2@@Z 00406a30 f i Guild.obj
 0001:00005a50       ?_Nextnode@?$_List_val@U?$pair@$$CBV?$basic_string@DU?$char_traits@D@std@@V?$allocator@D@2@@std@@UGuildMember@@@std@@V?$allocator@U?$pair@$$CBV?$basic_string@DU?$char_traits@D@std@@V?$allocator@D@2@@std@@UGuildMember@@@std@@@2@@std@@SAAAPAU_Node@?$_List_nod@U?$pair@$$CBV?$basic_string@DU?$char_traits@D@std@@V?$allocator@D@2@@std@@UGuildMember@@@std@@V?$allocator@U?$pair@$$CBV?$basic_string@DU?$char_traits@D@std@@V?$allocator@D@2@@std@@UGuildMember@@@std@@@2@@2@PAU342@@Z 00406a50 f i Guild.obj
 0001:00005a60       ?_Prevnode@?$_List_val@U?$pair@$$CBV?$basic_string@DU?$char_traits@D@std@@V?$allocator@D@2@@std@@UGuildMember@@@std@@V?$allocator@U?$pair@$$CBV?$basic_string@DU?$char_traits@D@std@@V?$allocator@D@2@@std@@UGuildMember@@@std@@@2@@std@@SAAAPAU_Node@?$_List_nod@U?$pair@$$CBV?$basic_string@DU?$char_traits@D@std@@V?$allocator@D@2@@std@@UGuildMember@@@std@@V?$allocator@U?$pair@$$CBV?$basic_string@DU?$char_traits@D@std@@V?$allocator@D@2@@std@@UGuildMember@@@std@@@2@@2@PAU342@@Z 00406a60 f i Guild.obj
 0001:00005a70       ?deallocate@?$allocator@U_Node@?$_List_nod@U?$pair@$$CBV?$basic_string@DU?$char_traits@D@std@@V?$allocator@D@2@@std@@UGuildMember@@@std@@V?$allocator@U?$pair@$$CBV?$basic_string@DU?$char_traits@D@std@@V?$allocator@D@2@@std@@UGuildMember@@@std@@@2@@std@@@std@@QAEXPAU_Node@?$_List_nod@U?$pair@$$CBV?$basic_string@DU?$char_traits@D@std@@V?$allocator@D@2@@std@@UGuildMember@@@std@@V?$allocator@U?$pair@$$CBV?$basic_string@DU?$char_traits@D@std@@V?$allocator@D@2@@std@@UGuildMember@@@std@@@2@@2@I@Z 00406a70 f i Guild.obj
 0001:00005a90       ??1?$_Vector_val@V?$_List_iterator@V?$_List_val@U?$pair@$$CBV?$basic_string@DU?$char_traits@D@std@@V?$allocator@D@2@@std@@UGuildMember@@@std@@V?$allocator@U?$pair@$$CBV?$basic_string@DU?$char_traits@D@std@@V?$allocator@D@2@@std@@UGuildMember@@@std@@@2@@std@@@std@@V?$allocator@V?$_List_iterator@V?$_List_val@U?$pair@$$CBV?$basic_string@DU?$char_traits@D@std@@V?$allocator@D@2@@std@@UGuildMember@@@std@@V?$allocator@U?$pair@$$CBV?$basic_string@DU?$char_traits@D@std@@V?$allocator@D@2@@std@@UGuildMember@@@std@@@2@@std@@@std@@@2@@std@@QAE@XZ 00406a90 f i Guild.obj
 0001:00005aa0       ??9?$_List_const_iterator@V?$_List_val@U?$pair@$$CBV?$basic_string@DU?$char_traits@D@std@@V?$allocator@D@2@@std@@UGuildMember@@@std@@V?$allocator@U?$pair@$$CBV?$basic_string@DU?$char_traits@D@std@@V?$allocator@D@2@@std@@UGuildMember@@@std@@@2@@std@@@std@@QBE_NABV01@@Z 00406aa0 f i Guild.obj
 0001:00005ac0       ?_Inside@?$basic_string@DU?$char_traits@D@std@@V?$allocator@D@2@@std@@QAE_NPBD@Z 00406ac0 f i Guild.obj
 0001:00005b10       ?_Xlen@?$basic_string@DU?$char_traits@D@std@@V?$allocator@D@2@@std@@QBEXXZ 00406b10 f i Guild.obj
 0001:00005b20       ??0?$allocator@U?$pair@$$CBV?$basic_string@DU?$char_traits@D@std@@V?$allocator@D@2@@std@@UGuildMember@@@std@@@std@@QAE@ABV01@@Z 00406b20 f i Guild.obj
 0001:00005b30       ?_Myval@?$_List_val@U?$pair@$$CBV?$basic_string@DU?$char_traits@D@std@@V?$allocator@D@2@@std@@UGuildMember@@@std@@V?$allocator@U?$pair@$$CBV?$basic_string@DU?$char_traits@D@std@@V?$allocator@D@2@@std@@UGuildMember@@@std@@@2@@std@@SAAAU?$pair@$$CBV?$basic_string@DU?$char_traits@D@std@@V?$allocator@D@2@@std@@UGuildMember@@@2@PAU_Node@?$_List_nod@U?$pair@$$CBV?$basic_string@DU?$char_traits@D@std@@V?$allocator@D@2@@std@@UGuildMember@@@std@@V?$allocator@U?$pair@$$CBV?$basic_string@DU?$char_traits@D@std@@V?$allocator@D@2@@std@@UGuildMember@@@std@@@2@@2@@Z 00406b30 f i Guild.obj
 0001:00005b40       ??0?$allocator@V?$_List_iterator@V?$_List_val@U?$pair@$$CBV?$basic_string@DU?$char_traits@D@std@@V?$allocator@D@2@@std@@UGuildMember@@@std@@V?$allocator@U?$pair@$$CBV?$basic_string@DU?$char_traits@D@std@@V?$allocator@D@2@@std@@UGuildMember@@@std@@@2@@std@@@std@@@std@@QAE@ABV01@@Z 00406b40 f i Guild.obj
 0001:00005b50       ?deallocate@?$allocator@V?$_List_iterator@V?$_List_val@U?$pair@$$CBV?$basic_string@DU?$char_traits@D@std@@V?$allocator@D@2@@std@@UGuildMember@@@std@@V?$allocator@U?$pair@$$CBV?$basic_string@DU?$char_traits@D@std@@V?$allocator@D@2@@std@@UGuildMember@@@std@@@2@@std@@@std@@@std@@QAEXPAV?$_List_iterator@V?$_List_val@U?$pair@$$CBV?$basic_string@DU?$char_traits@D@std@@V?$allocator@D@2@@std@@UGuildMember@@@std@@V?$allocator@U?$pair@$$CBV?$basic_string@DU?$char_traits@D@std@@V?$allocator@D@2@@std@@UGuildMember@@@std@@@2@@std@@@2@I@Z 00406b50 f i Guild.obj
 0001:00005b70       ??E?$_List_const_iterator@V?$_List_val@U?$pair@$$CBV?$basic_string@DU?$char_traits@D@std@@V?$allocator@D@2@@std@@UGuildMember@@@std@@V?$allocator@U?$pair@$$CBV?$basic_string@DU?$char_traits@D@std@@V?$allocator@D@2@@std@@UGuildMember@@@std@@@2@@std@@@std@@QAEAAV01@XZ 00406b70 f i Guild.obj
 0001:00005b80       ??A?$vector@V?$_List_iterator@V?$_List_val@U?$pair@$$CBV?$basic_string@DU?$char_traits@D@std@@V?$allocator@D@2@@std@@UGuildMember@@@std@@V?$allocator@U?$pair@$$CBV?$basic_string@DU?$char_traits@D@std@@V?$allocator@D@2@@std@@UGuildMember@@@std@@@2@@std@@@std@@V?$allocator@V?$_List_iterator@V?$_List_val@U?$pair@$$CBV?$basic_string@DU?$char_traits@D@std@@V?$allocator@D@2@@std@@UGuildMember@@@std@@V?$allocator@U?$pair@$$CBV?$basic_string@DU?$char_traits@D@std@@V?$allocator@D@2@@std@@UGuildMember@@@std@@@2@@std@@@std@@@2@@std@@QAEAAV?$_List_iterator@V?$_List_val@U?$pair@$$CBV?$basic_string@DU?$char_traits@D@std@@V?$allocator@D@2@@std@@UGuildMember@@@std@@V?$allocator@U?$pair@$$CBV?$basic_string@DU?$char_traits@D@std@@V?$allocator@D@2@@std@@UGuildMember@@@std@@@2@@std@@@1@I@Z 00406b80 f i Guild.obj
 0001:00005ba0       ?_Mynode@?$_List_unchecked_const_iterator@V?$_List_val@U?$pair@$$CBV?$basic_string@DU?$char_traits@D@std@@V?$allocator@D@2@@std@@UGuildMember@@@std@@V?$allocator@U?$pair@$$CBV?$basic_string@DU?$char_traits@D@std@@V?$allocator@D@2@@std@@UGuildMember@@@std@@@2@@std@@U_Iterator_base0@2@@std@@QBEPAU_Node@?$_List_nod@U?$pair@$$CBV?$basic_string@DU?$char_traits@D@std@@V?$allocator@D@2@@std@@UGuildMember@@@std@@V?$allocator@U?$pair@$$CBV?$basic_string@DU?$char_traits@D@std@@V?$allocator@D@2@@std@@UGuildMember@@@std@@@2@@2@XZ 00406ba0 f i Guild.obj
 0001:00005bb0       ?max_size@?$allocator@D@std@@QBEIXZ 00406bb0 f i Guild.obj
 0001:00005bc0       ??F?$_List_const_iterator@V?$_List_val@U?$pair@$$CBV?$basic_string@DU?$char_traits@D@std@@V?$allocator@D@2@@std@@UGuildMember@@@std@@V?$allocator@U?$pair@$$CBV?$basic_string@DU?$char_traits@D@std@@V?$allocator@D@2@@std@@UGuildMember@@@std@@@2@@std@@@std@@QAEAAV01@XZ 00406bc0 f i Guild.obj
 0001:00005bd0       ??0?$_List_unchecked_const_iterator@V?$_List_val@U?$pair@$$CBV?$basic_string@DU?$char_traits@D@std@@V?$allocator@D@2@@std@@UGuildMember@@@std@@V?$allocator@U?$pair@$$CBV?$basic_string@DU?$char_traits@D@std@@V?$allocator@D@2@@std@@UGuildMember@@@std@@@2@@std@@U_Iterator_base0@2@@std@@QAE@PAU_Node@?$_List_nod@U?$pair@$$CBV?$basic_string@DU?$char_traits@D@std@@V?$allocator@D@2@@std@@UGuildMember@@@std@@V?$allocator@U?$pair@$$CBV?$basic_string@DU?$char_traits@D@std@@V?$allocator@D@2@@std@@UGuildMember@@@std@@@2@@1@PBV?$_List_val@U?$pair@$$CBV?$basic_string@DU?$char_traits@D@std@@V?$allocator@D@2@@std@@UGuildMember@@@std@@V?$allocator@U?$pair@$$CBV?$basic_string@DU?$char_traits@D@std@@V?$allocator@D@2@@std@@UGuildMember@@@std@@@2@@1@@Z 00406bd0 f i Guild.obj
 0001:00005bf0       ?capacity@?$vector@V?$_List_iterator@V?$_List_val@U?$pair@$$CBV?$basic_string@DU?$char_traits@D@std@@V?$allocator@D@2@@std@@UGuildMember@@@std@@V?$allocator@U?$pair@$$CBV?$basic_string@DU?$char_traits@D@std@@V?$allocator@D@2@@std@@UGuildMember@@@std@@@2@@std@@@std@@V?$allocator@V?$_List_iterator@V?$_List_val@U?$pair@$$CBV?$basic_string@DU?$char_traits@D@std@@V?$allocator@D@2@@std@@UGuildMember@@@std@@V?$allocator@U?$pair@$$CBV?$basic_string@DU?$char_traits@D@std@@V?$allocator@D@2@@std@@UGuildMember@@@std@@@2@@std@@@std@@@2@@std@@QBEIXZ 00406bf0 f i Guild.obj
 0001:00005c00       ?size@?$vector@V?$_List_iterator@V?$_List_val@U?$pair@$$CBV?$basic_string@DU?$char_traits@D@std@@V?$allocator@D@2@@std@@UGuildMember@@@std@@V?$allocator@U?$pair@$$CBV?$basic_string@DU?$char_traits@D@std@@V?$allocator@D@2@@std@@UGuildMember@@@std@@@2@@std@@@std@@V?$allocator@V?$_List_iterator@V?$_List_val@U?$pair@$$CBV?$basic_string@DU?$char_traits@D@std@@V?$allocator@D@2@@std@@UGuildMember@@@std@@V?$allocator@U?$pair@$$CBV?$basic_string@DU?$char_traits@D@std@@V?$allocator@D@2@@std@@UGuildMember@@@std@@@2@@std@@@std@@@2@@std@@QBEIXZ 00406c00 f i Guild.obj
 0001:00005c10       ?_Xlen@?$vector@V?$_List_iterator@V?$_List_val@U?$pair@$$CBV?$basic_string@DU?$char_traits@D@std@@V?$allocator@D@2@@std@@UGuildMember@@@std@@V?$allocator@U?$pair@$$CBV?$basic_string@DU?$char_traits@D@std@@V?$allocator@D@2@@std@@UGuildMember@@@std@@@2@@std@@@std@@V?$allocator@V?$_List_iterator@V?$_List_val@U?$pair@$$CBV?$basic_string@DU?$char_traits@D@std@@V?$allocator@D@2@@std@@UGuildMember@@@std@@V?$allocator@U?$pair@$$CBV?$basic_string@DU?$char_traits@D@std@@V?$allocator@D@2@@std@@UGuildMember@@@std@@@2@@std@@@std@@@2@@std@@IBEXXZ 00406c10 f i Guild.obj
 0001:00005c20       ?_Orphan_range@?$vector@V?$_List_iterator@V?$_List_val@U?$pair@$$CBV?$basic_string@DU?$char_traits@D@std@@V?$allocator@D@2@@std@@UGuildMember@@@std@@V?$allocator@U?$pair@$$CBV?$basic_string@DU?$char_traits@D@std@@V?$allocator@D@2@@std@@UGuildMember@@@std@@@2@@std@@@std@@V?$allocator@V?$_List_iterator@V?$_List_val@U?$pair@$$CBV?$basic_string@DU?$char_traits@D@std@@V?$allocator@D@2@@std@@UGuildMember@@@std@@V?$allocator@U?$pair@$$CBV?$basic_string@DU?$char_traits@D@std@@V?$allocator@D@2@@std@@UGuildMember@@@std@@@2@@std@@@std@@@2@@std@@IBEXPAV?$_List_iterator@V?$_List_val@U?$pair@$$CBV?$basic_string@DU?$char_traits@D@std@@V?$allocator@D@2@@std@@UGuildMember@@@std@@V?$allocator@U?$pair@$$CBV?$basic_string@DU?$char_traits@D@std@@V?$allocator@D@2@@std@@UGuildMember@@@std@@@2@@std@@@2@0@Z 00406c20 f i Guild.obj
 0001:00005c30       ??0?$_Vector_const_iterator@V?$_Vector_val@V?$_List_iterator@V?$_List_val@U?$pair@$$CBV?$basic_string@DU?$char_traits@D@std@@V?$allocator@D@2@@std@@UGuildMember@@@std@@V?$allocator@U?$pair@$$CBV?$basic_string@DU?$char_traits@D@std@@V?$allocator@D@2@@std@@UGuildMember@@@std@@@2@@std@@@std@@V?$allocator@V?$_List_iterator@V?$_List_val@U?$pair@$$CBV?$basic_string@DU?$char_traits@D@std@@V?$allocator@D@2@@std@@UGuildMember@@@std@@V?$allocator@U?$pair@$$CBV?$basic_string@DU?$char_traits@D@std@@V?$allocator@D@2@@std@@UGuildMember@@@std@@@2@@std@@@std@@@2@@std@@@std@@QAE@PAV?$_List_iterator@V?$_List_val@U?$pair@$$CBV?$basic_string@DU?$char_traits@D@std@@V?$allocator@D@2@@std@@UGuildMember@@@std@@V?$allocator@U?$pair@$$CBV?$basic_string@DU?$char_traits@D@std@@V?$allocator@D@2@@std@@UGuildMember@@@std@@@2@@std@@@1@PBU_Container_base0@1@@Z 00406c30 f i Guild.obj
 0001:00005c50       ?max_size@?$allocator@V?$_List_iterator@V?$_List_val@U?$pair@$$CBV?$basic_string@DU?$char_traits@D@std@@V?$allocator@D@2@@std@@UGuildMember@@@std@@V?$allocator@U?$pair@$$CBV?$basic_string@DU?$char_traits@D@std@@V?$allocator@D@2@@std@@UGuildMember@@@std@@@2@@std@@@std@@@std@@QBEIXZ 00406c50 f i Guild.obj
 0001:00005c60       ?_Compat@?$_Vector_const_iterator@V?$_Vector_val@V?$_List_iterator@V?$_List_val@U?$pair@$$CBV?$basic_string@DU?$char_traits@D@std@@V?$allocator@D@2@@std@@UGuildMember@@@std@@V?$allocator@U?$pair@$$CBV?$basic_string@DU?$char_traits@D@std@@V?$allocator@D@2@@std@@UGuildMember@@@std@@@2@@std@@@std@@V?$allocator@V?$_List_iterator@V?$_List_val@U?$pair@$$CBV?$basic_string@DU?$char_traits@D@std@@V?$allocator@D@2@@std@@UGuildMember@@@std@@V?$allocator@U?$pair@$$CBV?$basic_string@DU?$char_traits@D@std@@V?$allocator@D@2@@std@@UGuildMember@@@std@@@2@@std@@@std@@@2@@std@@@std@@QBEXABV12@@Z 00406c60 f i Guild.obj
 0001:00005c70       ??$?0U?$pair@$$CBV?$basic_string@DU?$char_traits@D@std@@V?$allocator@D@2@@std@@UGuildMember@@@std@@@?$allocator@V?$_List_iterator@V?$_List_val@U?$pair@$$CBV?$basic_string@DU?$char_traits@D@std@@V?$allocator@D@2@@std@@UGuildMember@@@std@@V?$allocator@U?$pair@$$CBV?$basic_string@DU?$char_traits@D@std@@V?$allocator@D@2@@std@@UGuildMember@@@std@@@2@@std@@@std@@@std@@QAE@ABV?$allocator@U?$pair@$$CBV?$basic_string@DU?$char_traits@D@std@@V?$allocator@D@2@@std@@UGuildMember@@@std@@@1@@Z 00406c70 f i Guild.obj
 0001:00005c80       ??$_Kfn@$$CBV?$basic_string@DU?$char_traits@D@std@@V?$allocator@D@2@@std@@UGuildMember@@@?$_Umap_traits@V?$basic_string@DU?$char_traits@D@std@@V?$allocator@D@2@@std@@UGuildMember@@V?$_Hash_compare@V?$basic_string@DU?$char_traits@D@std@@V?$allocator@D@2@@std@@V?$hash@V?$basic_string@DU?$char_traits@D@std@@V?$allocator@D@2@@std@@@2@U?$equal_to@V?$basic_string@DU?$char_traits@D@std@@V?$allocator@D@2@@std@@@2@@2@V?$allocator@U?$pair@$$CBV?$basic_string@DU?$char_traits@D@std@@V?$allocator@D@2@@std@@UGuildMember@@@std@@@2@$0A@@tr1@std@@SAABV?$basic_string@DU?$char_traits@D@std@@V?$allocator@D@2@@2@ABU?$pair@$$CBV?$basic_string@DU?$char_traits@D@std@@V?$allocator@D@2@@std@@UGuildMember@@@2@@Z 00406c80 f i Guild.obj
 0001:00005c90       ??$move@AAUGuildMember@@@std@@YA$$QAUGuildMember@@AAU1@@Z 00406c90 f i Guild.obj
 0001:00005ca0       ??$move@AAV?$_List_iterator@V?$_List_val@U?$pair@$$CBV?$basic_string@DU?$char_traits@D@std@@V?$allocator@D@2@@std@@UGuildMember@@@std@@V?$allocator@U?$pair@$$CBV?$basic_string@DU?$char_traits@D@std@@V?$allocator@D@2@@std@@UGuildMember@@@std@@@2@@std@@@std@@@std@@YA$$QAV?$_List_iterator@V?$_List_val@U?$pair@$$CBV?$basic_string@DU?$char_traits@D@std@@V?$allocator@D@2@@std@@UGuildMember@@@std@@V?$allocator@U?$pair@$$CBV?$basic_string@DU?$char_traits@D@std@@V?$allocator@D@2@@std@@UGuildMember@@@std@@@2@@std@@@0@AAV10@@Z 00406ca0 f i Guild.obj
 0001:00005cb0       ??$?0U?$pair@$$CBV?$basic_string@DU?$char_traits@D@std@@V?$allocator@D@2@@std@@UGuildMember@@@std@@@?$allocator@U_Node@?$_List_nod@U?$pair@$$CBV?$basic_string@DU?$char_traits@D@std@@V?$allocator@D@2@@std@@UGuildMember@@@std@@V?$allocator@U?$pair@$$CBV?$basic_string@DU?$char_traits@D@std@@V?$allocator@D@2@@std@@UGuildMember@@@std@@@2@@std@@@std@@QAE@ABV?$allocator@U?$pair@$$CBV?$basic_string@DU?$char_traits@D@std@@V?$allocator@D@2@@std@@UGuildMember@@@std@@@1@@Z 00406cb0 f i Guild.obj
 0001:00005cc0       ??$_Allocate@U_Node@?$_List_nod@U?$pair@$$CBV?$basic_string@DU?$char_traits@D@std@@V?$allocator@D@2@@std@@UGuildMember@@@std@@V?$allocator@U?$pair@$$CBV?$basic_string@DU?$char_traits@D@std@@V?$allocator@D@2@@std@@UGuildMember@@@std@@@2@@std@@@std@@YAPAU_Node@?$_List_nod@U?$pair@$$CBV?$basic_string@DU?$char_traits@D@std@@V?$allocator@D@2@@std@@UGuildMember@@@std@@V?$allocator@U?$pair@$$CBV?$basic_string@DU?$char_traits@D@std@@V?$allocator@D@2@@std@@UGuildMember@@@std@@@2@@0@IPAU120@@Z 00406cc0 f i Guild.obj
 0001:00005d40       ??$_Allocate@D@std@@YAPADIPAD@Z 00406d40 f i Guild.obj
 0001:00005da0       ??$addressof@$$CBV?$_List_iterator@V?$_List_val@U?$pair@$$CBV?$basic_string@DU?$char_traits@D@std@@V?$allocator@D@2@@std@@UGuildMember@@@std@@V?$allocator@U?$pair@$$CBV?$basic_string@DU?$char_traits@D@std@@V?$allocator@D@2@@std@@UGuildMember@@@std@@@2@@std@@@std@@@std@@YAPBV?$_List_iterator@V?$_List_val@U?$pair@$$CBV?$basic_string@DU?$char_traits@D@std@@V?$allocator@D@2@@std@@UGuildMember@@@std@@V?$allocator@U?$pair@$$CBV?$basic_string@DU?$char_traits@D@std@@V?$allocator@D@2@@std@@UGuildMember@@@std@@@2@@std@@@0@ABV10@@Z 00406da0 f i Guild.obj
 0001:00005db0       ??$addressof@V?$_List_iterator@V?$_List_val@U?$pair@$$CBV?$basic_string@DU?$char_traits@D@std@@V?$allocator@D@2@@std@@UGuildMember@@@std@@V?$allocator@U?$pair@$$CBV?$basic_string@DU?$char_traits@D@std@@V?$allocator@D@2@@std@@UGuildMember@@@std@@@2@@std@@@std@@@std@@YAPAV?$_List_iterator@V?$_List_val@U?$pair@$$CBV?$basic_string@DU?$char_traits@D@std@@V?$allocator@D@2@@std@@UGuildMember@@@std@@V?$allocator@U?$pair@$$CBV?$basic_string@DU?$char_traits@D@std@@V?$allocator@D@2@@std@@UGuildMember@@@std@@@2@@std@@@0@AAV10@@Z 00406db0 f i Guild.obj
 0001:00005dc0       ??$_Allocate@V?$_List_iterator@V?$_List_val@U?$pair@$$CBV?$basic_string@DU?$char_traits@D@std@@V?$allocator@D@2@@std@@UGuildMember@@@std@@V?$allocator@U?$pair@$$CBV?$basic_string@DU?$char_traits@D@std@@V?$allocator@D@2@@std@@UGuildMember@@@std@@@2@@std@@@std@@@std@@YAPAV?$_List_iterator@V?$_List_val@U?$pair@$$CBV?$basic_string@DU?$char_traits@D@std@@V?$allocator@D@2@@std@@UGuildMember@@@std@@V?$allocator@U?$pair@$$CBV?$basic_string@DU?$char_traits@D@std@@V?$allocator@D@2@@std@@UGuildMember@@@std@@@2@@std@@@0@IPAV10@@Z 00406dc0 f i Guild.obj
 0001:00005e30       ??0bad_alloc@std@@QAE@ABV01@@Z 00406e30 f i Guild.obj
 0001:00005e60       ?bucket_count@?$_Hash@V?$_Umap_traits@V?$basic_string@DU?$char_traits@D@std@@V?$allocator@D@2@@std@@UGuildMember@@V?$_Hash_compare@V?$basic_string@DU?$char_traits@D@std@@V?$allocator@D@2@@std@@V?$hash@V?$basic_string@DU?$char_traits@D@std@@V?$allocator@D@2@@std@@@2@U?$equal_to@V?$basic_string@DU?$char_traits@D@std@@V?$allocator@D@2@@std@@@2@@2@V?$allocator@U?$pair@$$CBV?$basic_string@DU?$char_traits@D@std@@V?$allocator@D@2@@std@@UGuildMember@@@std@@@2@$0A@@tr1@std@@@std@@QBEIXZ 00406e60 f i Guild.obj
 0001:00005e70       ?max_load_factor@?$_Hash@V?$_Umap_traits@V?$basic_string@DU?$char_traits@D@std@@V?$allocator@D@2@@std@@UGuildMember@@V?$_Hash_compare@V?$basic_string@DU?$char_traits@D@std@@V?$allocator@D@2@@std@@V?$hash@V?$basic_string@DU?$char_traits@D@std@@V?$allocator@D@2@@std@@@2@U?$equal_to@V?$basic_string@DU?$char_traits@D@std@@V?$allocator@D@2@@std@@@2@@2@V?$allocator@U?$pair@$$CBV?$basic_string@DU?$char_traits@D@std@@V?$allocator@D@2@@std@@UGuildMember@@@std@@@2@$0A@@tr1@std@@@std@@QBEMXZ 00406e70 f i Guild.obj
 0001:00005e80       ?max_size@?$allocator@U?$pair@$$CBV?$basic_string@DU?$char_traits@D@std@@V?$allocator@D@2@@std@@UGuildMember@@@std@@@std@@QBEIXZ 00406e80 f i Guild.obj
 0001:00005e90       ??$forward@U?$pair@$$CBV?$basic_string@DU?$char_traits@D@std@@V?$allocator@D@2@@std@@UGuildMember@@@std@@@std@@YA$$QAU?$pair@$$CBV?$basic_string@DU?$char_traits@D@std@@V?$allocator@D@2@@std@@UGuildMember@@@0@AAU10@@Z 00406e90 f i Guild.obj
 0001:00005ea0       ??$_Iter_cat@V?$_List_iterator@V?$_List_val@U?$pair@$$CBV?$basic_string@DU?$char_traits@D@std@@V?$allocator@D@2@@std@@UGuildMember@@@std@@V?$allocator@U?$pair@$$CBV?$basic_string@DU?$char_traits@D@std@@V?$allocator@D@2@@std@@UGuildMember@@@std@@@2@@std@@@std@@@std@@YA?AUbidirectional_iterator_tag@0@ABV?$_List_iterator@V?$_List_val@U?$pair@$$CBV?$basic_string@DU?$char_traits@D@std@@V?$allocator@D@2@@std@@UGuildMember@@@std@@V?$allocator@U?$pair@$$CBV?$basic_string@DU?$char_traits@D@std@@V?$allocator@D@2@@std@@UGuildMember@@@std@@@2@@std@@@0@@Z 00406ea0 f i Guild.obj
 0001:00005eb0       ??$forward@AAV?$_List_iterator@V?$_List_val@U?$pair@$$CBV?$basic_string@DU?$char_traits@D@std@@V?$allocator@D@2@@std@@UGuildMember@@@std@@V?$allocator@U?$pair@$$CBV?$basic_string@DU?$char_traits@D@std@@V?$allocator@D@2@@std@@UGuildMember@@@std@@@2@@std@@@std@@@std@@YAAAV?$_List_iterator@V?$_List_val@U?$pair@$$CBV?$basic_string@DU?$char_traits@D@std@@V?$allocator@D@2@@std@@UGuildMember@@@std@@V?$allocator@U?$pair@$$CBV?$basic_string@DU?$char_traits@D@std@@V?$allocator@D@2@@std@@UGuildMember@@@std@@@2@@std@@@0@AAV10@@Z 00406eb0 f i Guild.obj
 0001:00005ec0       ??$?0AAV?$_List_iterator@V?$_List_val@U?$pair@$$CBV?$basic_string@DU?$char_traits@D@std@@V?$allocator@D@2@@std@@UGuildMember@@@std@@V?$allocator@U?$pair@$$CBV?$basic_string@DU?$char_traits@D@std@@V?$allocator@D@2@@std@@UGuildMember@@@std@@@2@@std@@@std@@AAV01@@?$_Pair_base@V?$_List_iterator@V?$_List_val@U?$pair@$$CBV?$basic_string@DU?$char_traits@D@std@@V?$allocator@D@2@@std@@UGuildMember@@@std@@V?$allocator@U?$pair@$$CBV?$basic_string@DU?$char_traits@D@std@@V?$allocator@D@2@@std@@UGuildMember@@@std@@@2@@std@@@std@@V12@@std@@QAE@AAV?$_List_iterator@V?$_List_val@U?$pair@$$CBV?$basic_string@DU?$char_traits@D@std@@V?$allocator@D@2@@std@@UGuildMember@@@std@@V?$allocator@U?$pair@$$CBV?$basic_string@DU?$char_traits@D@std@@V?$allocator@D@2@@std@@UGuildMember@@@std@@@2@@std@@@1@0@Z 00406ec0 f i Guild.obj
 0001:00005ee0       ??$_Ptr_cat@V?$_List_iterator@V?$_List_val@U?$pair@$$CBV?$basic_string@DU?$char_traits@D@std@@V?$allocator@D@2@@std@@UGuildMember@@@std@@V?$allocator@U?$pair@$$CBV?$basic_string@DU?$char_traits@D@std@@V?$allocator@D@2@@std@@UGuildMember@@@std@@@2@@std@@@std@@V12@@std@@YA?AU_Nonscalar_ptr_iterator_tag@0@PAV?$_List_iterator@V?$_List_val@U?$pair@$$CBV?$basic_string@DU?$char_traits@D@std@@V?$allocator@D@2@@std@@UGuildMember@@@std@@V?$allocator@U?$pair@$$CBV?$basic_string@DU?$char_traits@D@std@@V?$allocator@D@2@@std@@UGuildMember@@@std@@@2@@std@@@0@0@Z 00406ee0 f i Guild.obj
 0001:00005ef0       ??$_Move@PAV?$_List_iterator@V?$_List_val@U?$pair@$$CBV?$basic_string@DU?$char_traits@D@std@@V?$allocator@D@2@@std@@UGuildMember@@@std@@V?$allocator@U?$pair@$$CBV?$basic_string@DU?$char_traits@D@std@@V?$allocator@D@2@@std@@UGuildMember@@@std@@@2@@std@@@std@@PAV12@@std@@YAPAV?$_List_iterator@V?$_List_val@U?$pair@$$CBV?$basic_string@DU?$char_traits@D@std@@V?$allocator@D@2@@std@@UGuildMember@@@std@@V?$allocator@U?$pair@$$CBV?$basic_string@DU?$char_traits@D@std@@V?$allocator@D@2@@std@@UGuildMember@@@std@@@2@@std@@@0@PAV10@00U_Nonscalar_ptr_iterator_tag@0@@Z 00406ef0 f i Guild.obj
 0001:00005f20       ??$_Unchecked@PAV?$_List_iterator@V?$_List_val@U?$pair@$$CBV?$basic_string@DU?$char_traits@D@std@@V?$allocator@D@2@@std@@UGuildMember@@@std@@V?$allocator@U?$pair@$$CBV?$basic_string@DU?$char_traits@D@std@@V?$allocator@D@2@@std@@UGuildMember@@@std@@@2@@std@@@std@@@std@@YAPAV?$_List_iterator@V?$_List_val@U?$pair@$$CBV?$basic_string@DU?$char_traits@D@std@@V?$allocator@D@2@@std@@UGuildMember@@@std@@V?$allocator@U?$pair@$$CBV?$basic_string@DU?$char_traits@D@std@@V?$allocator@D@2@@std@@UGuildMember@@@std@@@2@@std@@@0@PAV10@@Z 00406f20 f i Guild.obj
 0001:00005f30       ??$_Fill@PAV?$_List_iterator@V?$_List_val@U?$pair@$$CBV?$basic_string@DU?$char_traits@D@std@@V?$allocator@D@2@@std@@UGuildMember@@@std@@V?$allocator@U?$pair@$$CBV?$basic_string@DU?$char_traits@D@std@@V?$allocator@D@2@@std@@UGuildMember@@@std@@@2@@std@@@std@@V12@@std@@YAXPAV?$_List_iterator@V?$_List_val@U?$pair@$$CBV?$basic_string@DU?$char_traits@D@std@@V?$allocator@D@2@@std@@UGuildMember@@@std@@V?$allocator@U?$pair@$$CBV?$basic_string@DU?$char_traits@D@std@@V?$allocator@D@2@@std@@UGuildMember@@@std@@@2@@std@@@0@0ABV10@@Z 00406f30 f i Guild.obj
 0001:00005f60       ??$_Copy_backward@PAV?$_List_iterator@V?$_List_val@U?$pair@$$CBV?$basic_string@DU?$char_traits@D@std@@V?$allocator@D@2@@std@@UGuildMember@@@std@@V?$allocator@U?$pair@$$CBV?$basic_string@DU?$char_traits@D@std@@V?$allocator@D@2@@std@@UGuildMember@@@std@@@2@@std@@@std@@PAV12@@std@@YAPAV?$_List_iterator@V?$_List_val@U?$pair@$$CBV?$basic_string@DU?$char_traits@D@std@@V?$allocator@D@2@@std@@UGuildMember@@@std@@V?$allocator@U?$pair@$$CBV?$basic_string@DU?$char_traits@D@std@@V?$allocator@D@2@@std@@UGuildMember@@@std@@@2@@std@@@0@PAV10@00U_Nonscalar_ptr_iterator_tag@0@@Z 00406f60 f i Guild.obj
 0001:00005f90       ??$_Val_type@PAV?$_List_iterator@V?$_List_val@U?$pair@$$CBV?$basic_string@DU?$char_traits@D@std@@V?$allocator@D@2@@std@@UGuildMember@@@std@@V?$allocator@U?$pair@$$CBV?$basic_string@DU?$char_traits@D@std@@V?$allocator@D@2@@std@@UGuildMember@@@std@@@2@@std@@@std@@@std@@YAPAV?$_List_iterator@V?$_List_val@U?$pair@$$CBV?$basic_string@DU?$char_traits@D@std@@V?$allocator@D@2@@std@@UGuildMember@@@std@@V?$allocator@U?$pair@$$CBV?$basic_string@DU?$char_traits@D@std@@V?$allocator@D@2@@std@@UGuildMember@@@std@@@2@@std@@@0@PAV10@@Z 00406f90 f i Guild.obj
 0001:00005fa0       ??$forward@_N@std@@YA$$QA_NAA_N@Z 00406fa0 f i Guild.obj
 0001:00005fb0       ??$?0AAV?$_List_iterator@V?$_List_val@U?$pair@$$CBV?$basic_string@DU?$char_traits@D@std@@V?$allocator@D@2@@std@@UGuildMember@@@std@@V?$allocator@U?$pair@$$CBV?$basic_string@DU?$char_traits@D@std@@V?$allocator@D@2@@std@@UGuildMember@@@std@@@2@@std@@@std@@_N@?$_Pair_base@V?$_List_iterator@V?$_List_val@U?$pair@$$CBV?$basic_string@DU?$char_traits@D@std@@V?$allocator@D@2@@std@@UGuildMember@@@std@@V?$allocator@U?$pair@$$CBV?$basic_string@DU?$char_traits@D@std@@V?$allocator@D@2@@std@@UGuildMember@@@std@@@2@@std@@@std@@_N@std@@QAE@AAV?$_List_iterator@V?$_List_val@U?$pair@$$CBV?$basic_string@DU?$char_traits@D@std@@V?$allocator@D@2@@std@@UGuildMember@@@std@@V?$allocator@U?$pair@$$CBV?$basic_string@DU?$char_traits@D@std@@V?$allocator@D@2@@std@@UGuildMember@@@std@@@2@@std@@@1@$$QA_N@Z 00406fb0 f i Guild.obj
 0001:00005fd0       ??$forward@ABV?$_List_iterator@V?$_List_val@U?$pair@$$CBV?$basic_string@DU?$char_traits@D@std@@V?$allocator@D@2@@std@@UGuildMember@@@std@@V?$allocator@U?$pair@$$CBV?$basic_string@DU?$char_traits@D@std@@V?$allocator@D@2@@std@@UGuildMember@@@std@@@2@@std@@@std@@@std@@YAABV?$_List_iterator@V?$_List_val@U?$pair@$$CBV?$basic_string@DU?$char_traits@D@std@@V?$allocator@D@2@@std@@UGuildMember@@@std@@V?$allocator@U?$pair@$$CBV?$basic_string@DU?$char_traits@D@std@@V?$allocator@D@2@@std@@UGuildMember@@@std@@@2@@std@@@0@ABV10@@Z 00406fd0 f i Guild.obj
 0001:00005fe0       ??$_Construct@V?$_List_iterator@V?$_List_val@U?$pair@$$CBV?$basic_string@DU?$char_traits@D@std@@V?$allocator@D@2@@std@@UGuildMember@@@std@@V?$allocator@U?$pair@$$CBV?$basic_string@DU?$char_traits@D@std@@V?$allocator@D@2@@std@@UGuildMember@@@std@@@2@@std@@@std@@ABV12@@std@@YAXPAV?$_List_iterator@V?$_List_val@U?$pair@$$CBV?$basic_string@DU?$char_traits@D@std@@V?$allocator@D@2@@std@@UGuildMember@@@std@@V?$allocator@U?$pair@$$CBV?$basic_string@DU?$char_traits@D@std@@V?$allocator@D@2@@std@@UGuildMember@@@std@@@2@@std@@@0@ABV10@@Z 00406fe0 f i Guild.obj
 0001:00006000       ??$_Destroy@V?$_List_iterator@V?$_List_val@U?$pair@$$CBV?$basic_string@DU?$char_traits@D@std@@V?$allocator@D@2@@std@@UGuildMember@@@std@@V?$allocator@U?$pair@$$CBV?$basic_string@DU?$char_traits@D@std@@V?$allocator@D@2@@std@@UGuildMember@@@std@@@2@@std@@@std@@@std@@YAXPAV?$_List_iterator@V?$_List_val@U?$pair@$$CBV?$basic_string@DU?$char_traits@D@std@@V?$allocator@D@2@@std@@UGuildMember@@@std@@V?$allocator@U?$pair@$$CBV?$basic_string@DU?$char_traits@D@std@@V?$allocator@D@2@@std@@UGuildMember@@@std@@@2@@std@@@0@@Z 00407000 f i Guild.obj
 0001:00006010       ??$addressof@U?$pair@$$CBV?$basic_string@DU?$char_traits@D@std@@V?$allocator@D@2@@std@@UGuildMember@@@std@@@std@@YAPAU?$pair@$$CBV?$basic_string@DU?$char_traits@D@std@@V?$allocator@D@2@@std@@UGuildMember@@@0@AAU10@@Z 00407010 f i Guild.obj
 0001:00006020       ??$forward@V?$_List_iterator@V?$_List_val@U?$pair@$$CBV?$basic_string@DU?$char_traits@D@std@@V?$allocator@D@2@@std@@UGuildMember@@@std@@V?$allocator@U?$pair@$$CBV?$basic_string@DU?$char_traits@D@std@@V?$allocator@D@2@@std@@UGuildMember@@@std@@@2@@std@@@std@@@std@@YA$$QAV?$_List_iterator@V?$_List_val@U?$pair@$$CBV?$basic_string@DU?$char_traits@D@std@@V?$allocator@D@2@@std@@UGuildMember@@@std@@V?$allocator@U?$pair@$$CBV?$basic_string@DU?$char_traits@D@std@@V?$allocator@D@2@@std@@UGuildMember@@@std@@@2@@std@@@0@AAV10@@Z 00407020 f i Guild.obj
 0001:00006030       ??$forward@$$CBV?$basic_string@DU?$char_traits@D@std@@V?$allocator@D@2@@std@@@std@@YA$$QBV?$basic_string@DU?$char_traits@D@std@@V?$allocator@D@2@@0@ABV10@@Z 00407030 f i Guild.obj
 0001:00006040       ??$forward@UGuildMember@@@std@@YA$$QAUGuildMember@@AAU1@@Z 00407040 f i Guild.obj
 0001:00006050       ??$move@ABV?$basic_string@DU?$char_traits@D@std@@V?$allocator@D@2@@std@@@std@@YA$$QBV?$basic_string@DU?$char_traits@D@std@@V?$allocator@D@2@@0@ABV10@@Z 00407050 f i Guild.obj
 0001:00006060       ??A?$basic_string@DU?$char_traits@D@std@@V?$allocator@D@2@@std@@QBEABDI@Z 00407060 f i Guild.obj
 0001:00006090       ?size@?$_Hash@V?$_Umap_traits@V?$basic_string@DU?$char_traits@D@std@@V?$allocator@D@2@@std@@UGuildMember@@V?$_Hash_compare@V?$basic_string@DU?$char_traits@D@std@@V?$allocator@D@2@@std@@V?$hash@V?$basic_string@DU?$char_traits@D@std@@V?$allocator@D@2@@std@@@2@U?$equal_to@V?$basic_string@DU?$char_traits@D@std@@V?$allocator@D@2@@std@@@2@@2@V?$allocator@U?$pair@$$CBV?$basic_string@DU?$char_traits@D@std@@V?$allocator@D@2@@std@@UGuildMember@@@std@@@2@$0A@@tr1@std@@@std@@QBEIXZ 00407090 f i Guild.obj
 0001:000060a0       ?compare@?$basic_string@DU?$char_traits@D@std@@V?$allocator@D@2@@std@@QBEHIIPBDI@Z 004070a0 f i Guild.obj
 0001:00006130       ??0?$_String_val@DV?$allocator@D@std@@@std@@QAE@V?$allocator@D@1@@Z 00407130 f i Guild.obj
 0001:00006140       ?_Eos@?$basic_string@DU?$char_traits@D@std@@V?$allocator@D@2@@std@@QAEXI@Z 00407140 f i Guild.obj
 0001:00006160       ??1?$_List_val@U?$pair@$$CBV?$basic_string@DU?$char_traits@D@std@@V?$allocator@D@2@@std@@UGuildMember@@@std@@V?$allocator@U?$pair@$$CBV?$basic_string@DU?$char_traits@D@std@@V?$allocator@D@2@@std@@UGuildMember@@@std@@@2@@std@@QAE@XZ 00407160 f i Guild.obj
 0001:00006170       ??D?$_List_const_iterator@V?$_List_val@U?$pair@$$CBV?$basic_string@DU?$char_traits@D@std@@V?$allocator@D@2@@std@@UGuildMember@@@std@@V?$allocator@U?$pair@$$CBV?$basic_string@DU?$char_traits@D@std@@V?$allocator@D@2@@std@@UGuildMember@@@std@@@2@@std@@@std@@QBEABU?$pair@$$CBV?$basic_string@DU?$char_traits@D@std@@V?$allocator@D@2@@std@@UGuildMember@@@1@XZ 00407170 f i Guild.obj
 0001:00006180       ??E?$_List_const_iterator@V?$_List_val@U?$pair@$$CBV?$basic_string@DU?$char_traits@D@std@@V?$allocator@D@2@@std@@UGuildMember@@@std@@V?$allocator@U?$pair@$$CBV?$basic_string@DU?$char_traits@D@std@@V?$allocator@D@2@@std@@UGuildMember@@@std@@@2@@std@@@std@@QAE?AV01@H@Z 00407180 f i Guild.obj
 0001:000061a0       ??E?$_List_iterator@V?$_List_val@U?$pair@$$CBV?$basic_string@DU?$char_traits@D@std@@V?$allocator@D@2@@std@@UGuildMember@@@std@@V?$allocator@U?$pair@$$CBV?$basic_string@DU?$char_traits@D@std@@V?$allocator@D@2@@std@@UGuildMember@@@std@@@2@@std@@@std@@QAEAAV01@XZ 004071a0 f i Guild.obj
 0001:000061b0       ?_Vec_lo@?$_Hash@V?$_Umap_traits@V?$basic_string@DU?$char_traits@D@std@@V?$allocator@D@2@@std@@UGuildMember@@V?$_Hash_compare@V?$basic_string@DU?$char_traits@D@std@@V?$allocator@D@2@@std@@V?$hash@V?$basic_string@DU?$char_traits@D@std@@V?$allocator@D@2@@std@@@2@U?$equal_to@V?$basic_string@DU?$char_traits@D@std@@V?$allocator@D@2@@std@@@2@@2@V?$allocator@U?$pair@$$CBV?$basic_string@DU?$char_traits@D@std@@V?$allocator@D@2@@std@@UGuildMember@@@std@@@2@$0A@@tr1@std@@@std@@IAEAAV?$_List_iterator@V?$_List_val@U?$pair@$$CBV?$basic_string@DU?$char_traits@D@std@@V?$allocator@D@2@@std@@UGuildMember@@@std@@V?$allocator@U?$pair@$$CBV?$basic_string@DU?$char_traits@D@std@@V?$allocator@D@2@@std@@UGuildMember@@@std@@@2@@std@@@2@I@Z 004071b0 f i Guild.obj
 0001:000061d0       ?_Vec_hi@?$_Hash@V?$_Umap_traits@V?$basic_string@DU?$char_traits@D@std@@V?$allocator@D@2@@std@@UGuildMember@@V?$_Hash_compare@V?$basic_string@DU?$char_traits@D@std@@V?$allocator@D@2@@std@@V?$hash@V?$basic_string@DU?$char_traits@D@std@@V?$allocator@D@2@@std@@@2@U?$equal_to@V?$basic_string@DU?$char_traits@D@std@@V?$allocator@D@2@@std@@@2@@2@V?$allocator@U?$pair@$$CBV?$basic_string@DU?$char_traits@D@std@@V?$allocator@D@2@@std@@UGuildMember@@@std@@@2@$0A@@tr1@std@@@std@@IAEAAV?$_List_iterator@V?$_List_val@U?$pair@$$CBV?$basic_string@DU?$char_traits@D@std@@V?$allocator@D@2@@std@@UGuildMember@@@std@@V?$allocator@U?$pair@$$CBV?$basic_string@DU?$char_traits@D@std@@V?$allocator@D@2@@std@@UGuildMember@@@std@@@2@@std@@@2@I@Z 004071d0 f i Guild.obj
 0001:000061f0       ??0?$_Vector_val@V?$_List_iterator@V?$_List_val@U?$pair@$$CBV?$basic_string@DU?$char_traits@D@std@@V?$allocator@D@2@@std@@UGuildMember@@@std@@V?$allocator@U?$pair@$$CBV?$basic_string@DU?$char_traits@D@std@@V?$allocator@D@2@@std@@UGuildMember@@@std@@@2@@std@@@std@@V?$allocator@V?$_List_iterator@V?$_List_val@U?$pair@$$CBV?$basic_string@DU?$char_traits@D@std@@V?$allocator@D@2@@std@@UGuildMember@@@std@@V?$allocator@U?$pair@$$CBV?$basic_string@DU?$char_traits@D@std@@V?$allocator@D@2@@std@@UGuildMember@@@std@@@2@@std@@@std@@@2@@std@@QAE@V?$allocator@V?$_List_iterator@V?$_List_val@U?$pair@$$CBV?$basic_string@DU?$char_traits@D@std@@V?$allocator@D@2@@std@@UGuildMember@@@std@@V?$allocator@U?$pair@$$CBV?$basic_string@DU?$char_traits@D@std@@V?$allocator@D@2@@std@@UGuildMember@@@std@@@2@@std@@@std@@@1@@Z 004071f0 f i Guild.obj
 0001:00006210       ??0?$_Pair_base@V?$_List_iterator@V?$_List_val@U?$pair@$$CBV?$basic_string@DU?$char_traits@D@std@@V?$allocator@D@2@@std@@UGuildMember@@@std@@V?$allocator@U?$pair@$$CBV?$basic_string@DU?$char_traits@D@std@@V?$allocator@D@2@@std@@UGuildMember@@@std@@@2@@std@@@std@@V12@@std@@QAE@$$QAV?$_List_iterator@V?$_List_val@U?$pair@$$CBV?$basic_string@DU?$char_traits@D@std@@V?$allocator@D@2@@std@@UGuildMember@@@std@@V?$allocator@U?$pair@$$CBV?$basic_string@DU?$char_traits@D@std@@V?$allocator@D@2@@std@@UGuildMember@@@std@@@2@@std@@@1@0@Z 00407210 f i Guild.obj
 0001:00006230       ?erase@?$basic_string@DU?$char_traits@D@std@@V?$allocator@D@2@@std@@QAEAAV12@II@Z 00407230 f i Guild.obj
 0001:000062e0       ?max_size@?$basic_string@DU?$char_traits@D@std@@V?$allocator@D@2@@std@@QBEIXZ 004072e0 f i Guild.obj
 0001:000062f0       ??0?$_List_nod@U?$pair@$$CBV?$basic_string@DU?$char_traits@D@std@@V?$allocator@D@2@@std@@UGuildMember@@@std@@V?$allocator@U?$pair@$$CBV?$basic_string@DU?$char_traits@D@std@@V?$allocator@D@2@@std@@UGuildMember@@@std@@@2@@std@@QAE@V?$allocator@U?$pair@$$CBV?$basic_string@DU?$char_traits@D@std@@V?$allocator@D@2@@std@@UGuildMember@@@std@@@1@@Z 004072f0 f i Guild.obj
 0001:00006300       ?allocate@?$allocator@U_Node@?$_List_nod@U?$pair@$$CBV?$basic_string@DU?$char_traits@D@std@@V?$allocator@D@2@@std@@UGuildMember@@@std@@V?$allocator@U?$pair@$$CBV?$basic_string@DU?$char_traits@D@std@@V?$allocator@D@2@@std@@UGuildMember@@@std@@@2@@std@@@std@@QAEPAU_Node@?$_List_nod@U?$pair@$$CBV?$basic_string@DU?$char_traits@D@std@@V?$allocator@D@2@@std@@UGuildMember@@@std@@V?$allocator@U?$pair@$$CBV?$basic_string@DU?$char_traits@D@std@@V?$allocator@D@2@@std@@UGuildMember@@@std@@@2@@2@I@Z 00407300 f i Guild.obj
 0001:00006380       ??0?$_List_const_iterator@V?$_List_val@U?$pair@$$CBV?$basic_string@DU?$char_traits@D@std@@V?$allocator@D@2@@std@@UGuildMember@@@std@@V?$allocator@U?$pair@$$CBV?$basic_string@DU?$char_traits@D@std@@V?$allocator@D@2@@std@@UGuildMember@@@std@@@2@@std@@@std@@QAE@PAU_Node@?$_List_nod@U?$pair@$$CBV?$basic_string@DU?$char_traits@D@std@@V?$allocator@D@2@@std@@UGuildMember@@@std@@V?$allocator@U?$pair@$$CBV?$basic_string@DU?$char_traits@D@std@@V?$allocator@D@2@@std@@UGuildMember@@@std@@@2@@1@PBV?$_List_val@U?$pair@$$CBV?$basic_string@DU?$char_traits@D@std@@V?$allocator@D@2@@std@@UGuildMember@@@std@@V?$allocator@U?$pair@$$CBV?$basic_string@DU?$char_traits@D@std@@V?$allocator@D@2@@std@@UGuildMember@@@std@@@2@@1@@Z 00407380 f i Guild.obj
 0001:000063a0       ??F?$_List_iterator@V?$_List_val@U?$pair@$$CBV?$basic_string@DU?$char_traits@D@std@@V?$allocator@D@2@@std@@UGuildMember@@@std@@V?$allocator@U?$pair@$$CBV?$basic_string@DU?$char_traits@D@std@@V?$allocator@D@2@@std@@UGuildMember@@@std@@@2@@std@@@std@@QAEAAV01@XZ 004073a0 f i Guild.obj
 0001:000063b0       ?allocate@?$allocator@D@std@@QAEPADI@Z 004073b0 f i Guild.obj
 0001:00006420       ??0?$_Vector_iterator@V?$_Vector_val@V?$_List_iterator@V?$_List_val@U?$pair@$$CBV?$basic_string@DU?$char_traits@D@std@@V?$allocator@D@2@@std@@UGuildMember@@@std@@V?$allocator@U?$pair@$$CBV?$basic_string@DU?$char_traits@D@std@@V?$allocator@D@2@@std@@UGuildMember@@@std@@@2@@std@@@std@@V?$allocator@V?$_List_iterator@V?$_List_val@U?$pair@$$CBV?$basic_string@DU?$char_traits@D@std@@V?$allocator@D@2@@std@@UGuildMember@@@std@@V?$allocator@U?$pair@$$CBV?$basic_string@DU?$char_traits@D@std@@V?$allocator@D@2@@std@@UGuildMember@@@std@@@2@@std@@@std@@@2@@std@@@std@@QAE@PAV?$_List_iterator@V?$_List_val@U?$pair@$$CBV?$basic_string@DU?$char_traits@D@std@@V?$allocator@D@2@@std@@UGuildMember@@@std@@V?$allocator@U?$pair@$$CBV?$basic_string@DU?$char_traits@D@std@@V?$allocator@D@2@@std@@UGuildMember@@@std@@@2@@std@@@1@PBU_Container_base0@1@@Z 00407420 f i Guild.obj
 0001:00006440       ?max_size@?$vector@V?$_List_iterator@V?$_List_val@U?$pair@$$CBV?$basic_string@DU?$char_traits@D@std@@V?$allocator@D@2@@std@@UGuildMember@@@std@@V?$allocator@U?$pair@$$CBV?$basic_string@DU?$char_traits@D@std@@V?$allocator@D@2@@std@@UGuildMember@@@std@@@2@@std@@@std@@V?$allocator@V?$_List_iterator@V?$_List_val@U?$pair@$$CBV?$basic_string@DU?$char_traits@D@std@@V?$allocator@D@2@@std@@UGuildMember@@@std@@V?$allocator@U?$pair@$$CBV?$basic_string@DU?$char_traits@D@std@@V?$allocator@D@2@@std@@UGuildMember@@@std@@@2@@std@@@std@@@2@@std@@QBEIXZ 00407440 f i Guild.obj
 0001:00006450       ?_Grow_to@?$vector@V?$_List_iterator@V?$_List_val@U?$pair@$$CBV?$basic_string@DU?$char_traits@D@std@@V?$allocator@D@2@@std@@UGuildMember@@@std@@V?$allocator@U?$pair@$$CBV?$basic_string@DU?$char_traits@D@std@@V?$allocator@D@2@@std@@UGuildMember@@@std@@@2@@std@@@std@@V?$allocator@V?$_List_iterator@V?$_List_val@U?$pair@$$CBV?$basic_string@DU?$char_traits@D@std@@V?$allocator@D@2@@std@@UGuildMember@@@std@@V?$allocator@U?$pair@$$CBV?$basic_string@DU?$char_traits@D@std@@V?$allocator@D@2@@std@@UGuildMember@@@std@@@2@@std@@@std@@@2@@std@@IBEII@Z 00407450 f i Guild.obj
 0001:00006490       ?allocate@?$allocator@V?$_List_iterator@V?$_List_val@U?$pair@$$CBV?$basic_string@DU?$char_traits@D@std@@V?$allocator@D@2@@std@@UGuildMember@@@std@@V?$allocator@U?$pair@$$CBV?$basic_string@DU?$char_traits@D@std@@V?$allocator@D@2@@std@@UGuildMember@@@std@@@2@@std@@@std@@@std@@QAEPAV?$_List_iterator@V?$_List_val@U?$pair@$$CBV?$basic_string@DU?$char_traits@D@std@@V?$allocator@D@2@@std@@UGuildMember@@@std@@V?$allocator@U?$pair@$$CBV?$basic_string@DU?$char_traits@D@std@@V?$allocator@D@2@@std@@UGuildMember@@@std@@@2@@std@@@2@I@Z 00407490 f i Guild.obj
 0001:00006500       ??8?$_Vector_const_iterator@V?$_Vector_val@V?$_List_iterator@V?$_List_val@U?$pair@$$CBV?$basic_string@DU?$char_traits@D@std@@V?$allocator@D@2@@std@@UGuildMember@@@std@@V?$allocator@U?$pair@$$CBV?$basic_string@DU?$char_traits@D@std@@V?$allocator@D@2@@std@@UGuildMember@@@std@@@2@@std@@@std@@V?$allocator@V?$_List_iterator@V?$_List_val@U?$pair@$$CBV?$basic_string@DU?$char_traits@D@std@@V?$allocator@D@2@@std@@UGuildMember@@@std@@V?$allocator@U?$pair@$$CBV?$basic_string@DU?$char_traits@D@std@@V?$allocator@D@2@@std@@UGuildMember@@@std@@@2@@std@@@std@@@2@@std@@@std@@QBE_NABV01@@Z 00407500 f i Guild.obj
 0001:00006520       ??$?0AAV?$_List_iterator@V?$_List_val@U?$pair@$$CBV?$basic_string@DU?$char_traits@D@std@@V?$allocator@D@2@@std@@UGuildMember@@@std@@V?$allocator@U?$pair@$$CBV?$basic_string@DU?$char_traits@D@std@@V?$allocator@D@2@@std@@UGuildMember@@@std@@@2@@std@@@std@@AAV01@@?$pair@V?$_List_iterator@V?$_List_val@U?$pair@$$CBV?$basic_string@DU?$char_traits@D@std@@V?$allocator@D@2@@std@@UGuildMember@@@std@@V?$allocator@U?$pair@$$CBV?$basic_string@DU?$char_traits@D@std@@V?$allocator@D@2@@std@@UGuildMember@@@std@@@2@@std@@@std@@V12@@std@@QAE@AAV?$_List_iterator@V?$_List_val@U?$pair@$$CBV?$basic_string@DU?$char_traits@D@std@@V?$allocator@D@2@@std@@UGuildMember@@@std@@V?$allocator@U?$pair@$$CBV?$basic_string@DU?$char_traits@D@std@@V?$allocator@D@2@@std@@UGuildMember@@@std@@@2@@std@@@1@0@Z 00407520 f i Guild.obj
 0001:00006540       ??$_Move@PAV?$_List_iterator@V?$_List_val@U?$pair@$$CBV?$basic_string@DU?$char_traits@D@std@@V?$allocator@D@2@@std@@UGuildMember@@@std@@V?$allocator@U?$pair@$$CBV?$basic_string@DU?$char_traits@D@std@@V?$allocator@D@2@@std@@UGuildMember@@@std@@@2@@std@@@std@@PAV12@@std@@YAPAV?$_List_iterator@V?$_List_val@U?$pair@$$CBV?$basic_string@DU?$char_traits@D@std@@V?$allocator@D@2@@std@@UGuildMember@@@std@@V?$allocator@U?$pair@$$CBV?$basic_string@DU?$char_traits@D@std@@V?$allocator@D@2@@std@@UGuildMember@@@std@@@2@@std@@@0@PAV10@00@Z 00407540 f i Guild.obj
 0001:00006570       ??$fill@PAV?$_List_iterator@V?$_List_val@U?$pair@$$CBV?$basic_string@DU?$char_traits@D@std@@V?$allocator@D@2@@std@@UGuildMember@@@std@@V?$allocator@U?$pair@$$CBV?$basic_string@DU?$char_traits@D@std@@V?$allocator@D@2@@std@@UGuildMember@@@std@@@2@@std@@@std@@V12@@std@@YAXPAV?$_List_iterator@V?$_List_val@U?$pair@$$CBV?$basic_string@DU?$char_traits@D@std@@V?$allocator@D@2@@std@@UGuildMember@@@std@@V?$allocator@U?$pair@$$CBV?$basic_string@DU?$char_traits@D@std@@V?$allocator@D@2@@std@@UGuildMember@@@std@@@2@@std@@@0@0ABV10@@Z 00407570 f i Guild.obj
 0001:000065a0       ??$_Copy_backward@PAV?$_List_iterator@V?$_List_val@U?$pair@$$CBV?$basic_string@DU?$char_traits@D@std@@V?$allocator@D@2@@std@@UGuildMember@@@std@@V?$allocator@U?$pair@$$CBV?$basic_string@DU?$char_traits@D@std@@V?$allocator@D@2@@std@@UGuildMember@@@std@@@2@@std@@@std@@PAV12@@std@@YAPAV?$_List_iterator@V?$_List_val@U?$pair@$$CBV?$basic_string@DU?$char_traits@D@std@@V?$allocator@D@2@@std@@UGuildMember@@@std@@V?$allocator@U?$pair@$$CBV?$basic_string@DU?$char_traits@D@std@@V?$allocator@D@2@@std@@UGuildMember@@@std@@@2@@std@@@0@PAV10@00@Z 004075a0 f i Guild.obj
 0001:000065d0       ?load_factor@?$_Hash@V?$_Umap_traits@V?$basic_string@DU?$char_traits@D@std@@V?$allocator@D@2@@std@@UGuildMember@@V?$_Hash_compare@V?$basic_string@DU?$char_traits@D@std@@V?$allocator@D@2@@std@@V?$hash@V?$basic_string@DU?$char_traits@D@std@@V?$allocator@D@2@@std@@@2@U?$equal_to@V?$basic_string@DU?$char_traits@D@std@@V?$allocator@D@2@@std@@@2@@2@V?$allocator@U?$pair@$$CBV?$basic_string@DU?$char_traits@D@std@@V?$allocator@D@2@@std@@UGuildMember@@@std@@@2@$0A@@tr1@std@@@std@@QBEMXZ 004075d0 f i Guild.obj
 0001:00006610       ?max_size@?$list@U?$pair@$$CBV?$basic_string@DU?$char_traits@D@std@@V?$allocator@D@2@@std@@UGuildMember@@@std@@V?$allocator@U?$pair@$$CBV?$basic_string@DU?$char_traits@D@std@@V?$allocator@D@2@@std@@UGuildMember@@@std@@@2@@std@@QBEIXZ 00407610 f i Guild.obj
 0001:00006620       ??$_Distance2@V?$_List_iterator@V?$_List_val@U?$pair@$$CBV?$basic_string@DU?$char_traits@D@std@@V?$allocator@D@2@@std@@UGuildMember@@@std@@V?$allocator@U?$pair@$$CBV?$basic_string@DU?$char_traits@D@std@@V?$allocator@D@2@@std@@UGuildMember@@@std@@@2@@std@@@std@@I@std@@YAXV?$_List_iterator@V?$_List_val@U?$pair@$$CBV?$basic_string@DU?$char_traits@D@std@@V?$allocator@D@2@@std@@UGuildMember@@@std@@V?$allocator@U?$pair@$$CBV?$basic_string@DU?$char_traits@D@std@@V?$allocator@D@2@@std@@UGuildMember@@@std@@@2@@std@@@0@0AAIUbidirectional_iterator_tag@0@@Z 00407620 f i Guild.obj
 0001:00006650       ??$?0AAV?$_List_iterator@V?$_List_val@U?$pair@$$CBV?$basic_string@DU?$char_traits@D@std@@V?$allocator@D@2@@std@@UGuildMember@@@std@@V?$allocator@U?$pair@$$CBV?$basic_string@DU?$char_traits@D@std@@V?$allocator@D@2@@std@@UGuildMember@@@std@@@2@@std@@@std@@_N@?$pair@V?$_List_iterator@V?$_List_val@U?$pair@$$CBV?$basic_string@DU?$char_traits@D@std@@V?$allocator@D@2@@std@@UGuildMember@@@std@@V?$allocator@U?$pair@$$CBV?$basic_string@DU?$char_traits@D@std@@V?$allocator@D@2@@std@@UGuildMember@@@std@@@2@@std@@@std@@_N@std@@QAE@AAV?$_List_iterator@V?$_List_val@U?$pair@$$CBV?$basic_string@DU?$char_traits@D@std@@V?$allocator@D@2@@std@@UGuildMember@@@std@@V?$allocator@U?$pair@$$CBV?$basic_string@DU?$char_traits@D@std@@V?$allocator@D@2@@std@@UGuildMember@@@std@@@2@@std@@@1@$$QA_N@Z 00407650 f i Guild.obj
 0001:00006670       ?construct@?$allocator@V?$_List_iterator@V?$_List_val@U?$pair@$$CBV?$basic_string@DU?$char_traits@D@std@@V?$allocator@D@2@@std@@UGuildMember@@@std@@V?$allocator@U?$pair@$$CBV?$basic_string@DU?$char_traits@D@std@@V?$allocator@D@2@@std@@UGuildMember@@@std@@@2@@std@@@std@@@std@@QAEXPAV?$_List_iterator@V?$_List_val@U?$pair@$$CBV?$basic_string@DU?$char_traits@D@std@@V?$allocator@D@2@@std@@UGuildMember@@@std@@V?$allocator@U?$pair@$$CBV?$basic_string@DU?$char_traits@D@std@@V?$allocator@D@2@@std@@UGuildMember@@@std@@@2@@std@@@2@ABV32@@Z 00407670 f i Guild.obj
 0001:00006690       ?destroy@?$allocator@V?$_List_iterator@V?$_List_val@U?$pair@$$CBV?$basic_string@DU?$char_traits@D@std@@V?$allocator@D@2@@std@@UGuildMember@@@std@@V?$allocator@U?$pair@$$CBV?$basic_string@DU?$char_traits@D@std@@V?$allocator@D@2@@std@@UGuildMember@@@std@@@2@@std@@@std@@@std@@QAEXPAV?$_List_iterator@V?$_List_val@U?$pair@$$CBV?$basic_string@DU?$char_traits@D@std@@V?$allocator@D@2@@std@@UGuildMember@@@std@@V?$allocator@U?$pair@$$CBV?$basic_string@DU?$char_traits@D@std@@V?$allocator@D@2@@std@@UGuildMember@@@std@@@2@@std@@@2@@Z 00407690 f i Guild.obj
 0001:000066a0       ?construct@?$allocator@V?$_List_iterator@V?$_List_val@U?$pair@$$CBV?$basic_string@DU?$char_traits@D@std@@V?$allocator@D@2@@std@@UGuildMember@@@std@@V?$allocator@U?$pair@$$CBV?$basic_string@DU?$char_traits@D@std@@V?$allocator@D@2@@std@@UGuildMember@@@std@@@2@@std@@@std@@@std@@QAEXPAV?$_List_iterator@V?$_List_val@U?$pair@$$CBV?$basic_string@DU?$char_traits@D@std@@V?$allocator@D@2@@std@@UGuildMember@@@std@@V?$allocator@U?$pair@$$CBV?$basic_string@DU?$char_traits@D@std@@V?$allocator@D@2@@std@@UGuildMember@@@std@@@2@@std@@@2@$$QAV32@@Z 004076a0 f i Guild.obj
 0001:000066c0       ??R?$hash@V?$basic_string@DU?$char_traits@D@std@@V?$allocator@D@2@@std@@@std@@QBEIABV?$basic_string@DU?$char_traits@D@std@@V?$allocator@D@2@@1@@Z 004076c0 f i Guild.obj
 0001:00006720       ?compare@?$basic_string@DU?$char_traits@D@std@@V?$allocator@D@2@@std@@QBEHABV12@@Z 00407720 f i Guild.obj
 0001:00006750       ?_Tidy@?$basic_string@DU?$char_traits@D@std@@V?$allocator@D@2@@std@@QAEX_NI@Z 00407750 f i Guild.obj
 0001:000067b0       ??D?$_List_iterator@V?$_List_val@U?$pair@$$CBV?$basic_string@DU?$char_traits@D@std@@V?$allocator@D@2@@std@@UGuildMember@@@std@@V?$allocator@U?$pair@$$CBV?$basic_string@DU?$char_traits@D@std@@V?$allocator@D@2@@std@@UGuildMember@@@std@@@2@@std@@@std@@QBEAAU?$pair@$$CBV?$basic_string@DU?$char_traits@D@std@@V?$allocator@D@2@@std@@UGuildMember@@@1@XZ 004077b0 f i Guild.obj
 0001:000067c0       ?_Begin@?$_Hash@V?$_Umap_traits@V?$basic_string@DU?$char_traits@D@std@@V?$allocator@D@2@@std@@UGuildMember@@V?$_Hash_compare@V?$basic_string@DU?$char_traits@D@std@@V?$allocator@D@2@@std@@V?$hash@V?$basic_string@DU?$char_traits@D@std@@V?$allocator@D@2@@std@@@2@U?$equal_to@V?$basic_string@DU?$char_traits@D@std@@V?$allocator@D@2@@std@@@2@@2@V?$allocator@U?$pair@$$CBV?$basic_string@DU?$char_traits@D@std@@V?$allocator@D@2@@std@@UGuildMember@@@std@@@2@$0A@@tr1@std@@@std@@IAE?AV?$_List_iterator@V?$_List_val@U?$pair@$$CBV?$basic_string@DU?$char_traits@D@std@@V?$allocator@D@2@@std@@UGuildMember@@@std@@V?$allocator@U?$pair@$$CBV?$basic_string@DU?$char_traits@D@std@@V?$allocator@D@2@@std@@UGuildMember@@@std@@@2@@std@@@2@I@Z 004077c0 f i Guild.obj
 0001:000067e0       ??0?$vector@V?$_List_iterator@V?$_List_val@U?$pair@$$CBV?$basic_string@DU?$char_traits@D@std@@V?$allocator@D@2@@std@@UGuildMember@@@std@@V?$allocator@U?$pair@$$CBV?$basic_string@DU?$char_traits@D@std@@V?$allocator@D@2@@std@@UGuildMember@@@std@@@2@@std@@@std@@V?$allocator@V?$_List_iterator@V?$_List_val@U?$pair@$$CBV?$basic_string@DU?$char_traits@D@std@@V?$allocator@D@2@@std@@UGuildMember@@@std@@V?$allocator@U?$pair@$$CBV?$basic_string@DU?$char_traits@D@std@@V?$allocator@D@2@@std@@UGuildMember@@@std@@@2@@std@@@std@@@2@@std@@QAE@ABV?$allocator@V?$_List_iterator@V?$_List_val@U?$pair@$$CBV?$basic_string@DU?$char_traits@D@std@@V?$allocator@D@2@@std@@UGuildMember@@@std@@V?$allocator@U?$pair@$$CBV?$basic_string@DU?$char_traits@D@std@@V?$allocator@D@2@@std@@UGuildMember@@@std@@@2@@std@@@std@@@1@@Z 004077e0 f i Guild.obj
 0001:00006800       ??0?$pair@V?$_List_iterator@V?$_List_val@U?$pair@$$CBV?$basic_string@DU?$char_traits@D@std@@V?$allocator@D@2@@std@@UGuildMember@@@std@@V?$allocator@U?$pair@$$CBV?$basic_string@DU?$char_traits@D@std@@V?$allocator@D@2@@std@@UGuildMember@@@std@@@2@@std@@@std@@V12@@std@@QAE@$$QAV?$_List_iterator@V?$_List_val@U?$pair@$$CBV?$basic_string@DU?$char_traits@D@std@@V?$allocator@D@2@@std@@UGuildMember@@@std@@V?$allocator@U?$pair@$$CBV?$basic_string@DU?$char_traits@D@std@@V?$allocator@D@2@@std@@UGuildMember@@@std@@@2@@std@@@1@0@Z 00407800 f i Guild.obj
 0001:00006820       ??R?$_Hash_compare@V?$basic_string@DU?$char_traits@D@std@@V?$allocator@D@2@@std@@V?$hash@V?$basic_string@DU?$char_traits@D@std@@V?$allocator@D@2@@std@@@2@U?$equal_to@V?$basic_string@DU?$char_traits@D@std@@V?$allocator@D@2@@std@@@2@@std@@QBEIABV?$basic_string@DU?$char_traits@D@std@@V?$allocator@D@2@@1@@Z 00407820 f i Guild.obj
 0001:00006830       ??0?$_List_val@U?$pair@$$CBV?$basic_string@DU?$char_traits@D@std@@V?$allocator@D@2@@std@@UGuildMember@@@std@@V?$allocator@U?$pair@$$CBV?$basic_string@DU?$char_traits@D@std@@V?$allocator@D@2@@std@@UGuildMember@@@std@@@2@@std@@QAE@V?$allocator@U?$pair@$$CBV?$basic_string@DU?$char_traits@D@std@@V?$allocator@D@2@@std@@UGuildMember@@@std@@@1@@Z 00407830 f i Guild.obj
 0001:000068a0       ??0?$_List_iterator@V?$_List_val@U?$pair@$$CBV?$basic_string@DU?$char_traits@D@std@@V?$allocator@D@2@@std@@UGuildMember@@@std@@V?$allocator@U?$pair@$$CBV?$basic_string@DU?$char_traits@D@std@@V?$allocator@D@2@@std@@UGuildMember@@@std@@@2@@std@@@std@@QAE@PAU_Node@?$_List_nod@U?$pair@$$CBV?$basic_string@DU?$char_traits@D@std@@V?$allocator@D@2@@std@@UGuildMember@@@std@@V?$allocator@U?$pair@$$CBV?$basic_string@DU?$char_traits@D@std@@V?$allocator@D@2@@std@@UGuildMember@@@std@@@2@@1@PBV?$_List_val@U?$pair@$$CBV?$basic_string@DU?$char_traits@D@std@@V?$allocator@D@2@@std@@UGuildMember@@@std@@V?$allocator@U?$pair@$$CBV?$basic_string@DU?$char_traits@D@std@@V?$allocator@D@2@@std@@UGuildMember@@@std@@@2@@1@@Z 004078a0 f i Guild.obj
 0001:000068c0       ?_Copy@?$basic_string@DU?$char_traits@D@std@@V?$allocator@D@2@@std@@QAEXII@Z 004078c0 f i Guild.obj
 0001:00006a90       ?begin@?$vector@V?$_List_iterator@V?$_List_val@U?$pair@$$CBV?$basic_string@DU?$char_traits@D@std@@V?$allocator@D@2@@std@@UGuildMember@@@std@@V?$allocator@U?$pair@$$CBV?$basic_string@DU?$char_traits@D@std@@V?$allocator@D@2@@std@@UGuildMember@@@std@@@2@@std@@@std@@V?$allocator@V?$_List_iterator@V?$_List_val@U?$pair@$$CBV?$basic_string@DU?$char_traits@D@std@@V?$allocator@D@2@@std@@UGuildMember@@@std@@V?$allocator@U?$pair@$$CBV?$basic_string@DU?$char_traits@D@std@@V?$allocator@D@2@@std@@UGuildMember@@@std@@@2@@std@@@std@@@2@@std@@QAE?AV?$_Vector_iterator@V?$_Vector_val@V?$_List_iterator@V?$_List_val@U?$pair@$$CBV?$basic_string@DU?$char_traits@D@std@@V?$allocator@D@2@@std@@UGuildMember@@@std@@V?$allocator@U?$pair@$$CBV?$basic_string@DU?$char_traits@D@std@@V?$allocator@D@2@@std@@UGuildMember@@@std@@@2@@std@@@std@@V?$allocator@V?$_List_iterator@V?$_List_val@U?$pair@$$CBV?$basic_string@DU?$char_traits@D@std@@V?$allocator@D@2@@std@@UGuildMember@@@std@@V?$allocator@U?$pair@$$CBV?$basic_string@DU?$char_traits@D@std@@V?$allocator@D@2@@std@@UGuildMember@@@std@@@2@@std@@@std@@@2@@std@@@2@XZ 00407a90 f i Guild.obj
 0001:00006ab0       ?end@?$vector@V?$_List_iterator@V?$_List_val@U?$pair@$$CBV?$basic_string@DU?$char_traits@D@std@@V?$allocator@D@2@@std@@UGuildMember@@@std@@V?$allocator@U?$pair@$$CBV?$basic_string@DU?$char_traits@D@std@@V?$allocator@D@2@@std@@UGuildMember@@@std@@@2@@std@@@std@@V?$allocator@V?$_List_iterator@V?$_List_val@U?$pair@$$CBV?$basic_string@DU?$char_traits@D@std@@V?$allocator@D@2@@std@@UGuildMember@@@std@@V?$allocator@U?$pair@$$CBV?$basic_string@DU?$char_traits@D@std@@V?$allocator@D@2@@std@@UGuildMember@@@std@@@2@@std@@@std@@@2@@std@@QAE?AV?$_Vector_iterator@V?$_Vector_val@V?$_List_iterator@V?$_List_val@U?$pair@$$CBV?$basic_string@DU?$char_traits@D@std@@V?$allocator@D@2@@std@@UGuildMember@@@std@@V?$allocator@U?$pair@$$CBV?$basic_string@DU?$char_traits@D@std@@V?$allocator@D@2@@std@@UGuildMember@@@std@@@2@@std@@@std@@V?$allocator@V?$_List_iterator@V?$_List_val@U?$pair@$$CBV?$basic_string@DU?$char_traits@D@std@@V?$allocator@D@2@@std@@UGuildMember@@@std@@V?$allocator@U?$pair@$$CBV?$basic_string@DU?$char_traits@D@std@@V?$allocator@D@2@@std@@UGuildMember@@@std@@@2@@std@@@std@@@2@@std@@@2@XZ 00407ab0 f i Guild.obj
 0001:00006ad0       ?_Make_iter@?$vector@V?$_List_iterator@V?$_List_val@U?$pair@$$CBV?$basic_string@DU?$char_traits@D@std@@V?$allocator@D@2@@std@@UGuildMember@@@std@@V?$allocator@U?$pair@$$CBV?$basic_string@DU?$char_traits@D@std@@V?$allocator@D@2@@std@@UGuildMember@@@std@@@2@@std@@@std@@V?$allocator@V?$_List_iterator@V?$_List_val@U?$pair@$$CBV?$basic_string@DU?$char_traits@D@std@@V?$allocator@D@2@@std@@UGuildMember@@@std@@V?$allocator@U?$pair@$$CBV?$basic_string@DU?$char_traits@D@std@@V?$allocator@D@2@@std@@UGuildMember@@@std@@@2@@std@@@std@@@2@@std@@QBE?AV?$_Vector_iterator@V?$_Vector_val@V?$_List_iterator@V?$_List_val@U?$pair@$$CBV?$basic_string@DU?$char_traits@D@std@@V?$allocator@D@2@@std@@UGuildMember@@@std@@V?$allocator@U?$pair@$$CBV?$basic_string@DU?$char_traits@D@std@@V?$allocator@D@2@@std@@UGuildMember@@@std@@@2@@std@@@std@@V?$allocator@V?$_List_iterator@V?$_List_val@U?$pair@$$CBV?$basic_string@DU?$char_traits@D@std@@V?$allocator@D@2@@std@@UGuildMember@@@std@@V?$allocator@U?$pair@$$CBV?$basic_string@DU?$char_traits@D@std@@V?$allocator@D@2@@std@@UGuildMember@@@std@@@2@@std@@@std@@@2@@std@@@2@V?$_Vector_const_iterator@V?$_Vector_val@V?$_List_iterator@V?$_List_val@U?$pair@$$CBV?$basic_string@DU?$char_traits@D@std@@V?$allocator@D@2@@std@@UGuildMember@@@std@@V?$allocator@U?$pair@$$CBV?$basic_string@DU?$char_traits@D@std@@V?$allocator@D@2@@std@@UGuildMember@@@std@@@2@@std@@@std@@V?$allocator@V?$_List_iterator@V?$_List_val@U?$pair@$$CBV?$basic_string@DU?$char_traits@D@std@@V?$allocator@D@2@@std@@UGuildMember@@@std@@V?$allocator@U?$pair@$$CBV?$basic_string@DU?$char_traits@D@std@@V?$allocator@D@2@@std@@UGuildMember@@@std@@@2@@std@@@std@@@2@@std@@@2@@Z 00407ad0 f i Guild.obj
 0001:00006af0       ??9?$_Vector_const_iterator@V?$_Vector_val@V?$_List_iterator@V?$_List_val@U?$pair@$$CBV?$basic_string@DU?$char_traits@D@std@@V?$allocator@D@2@@std@@UGuildMember@@@std@@V?$allocator@U?$pair@$$CBV?$basic_string@DU?$char_traits@D@std@@V?$allocator@D@2@@std@@UGuildMember@@@std@@@2@@std@@@std@@V?$allocator@V?$_List_iterator@V?$_List_val@U?$pair@$$CBV?$basic_string@DU?$char_traits@D@std@@V?$allocator@D@2@@std@@UGuildMember@@@std@@V?$allocator@U?$pair@$$CBV?$basic_string@DU?$char_traits@D@std@@V?$allocator@D@2@@std@@UGuildMember@@@std@@@2@@std@@@std@@@2@@std@@@std@@QBE_NABV01@@Z 00407af0 f i Guild.obj
 0001:00006b10       ??$_Distance@V?$_List_iterator@V?$_List_val@U?$pair@$$CBV?$basic_string@DU?$char_traits@D@std@@V?$allocator@D@2@@std@@UGuildMember@@@std@@V?$allocator@U?$pair@$$CBV?$basic_string@DU?$char_traits@D@std@@V?$allocator@D@2@@std@@UGuildMember@@@std@@@2@@std@@@std@@I@std@@YAXV?$_List_iterator@V?$_List_val@U?$pair@$$CBV?$basic_string@DU?$char_traits@D@std@@V?$allocator@D@2@@std@@UGuildMember@@@std@@V?$allocator@U?$pair@$$CBV?$basic_string@DU?$char_traits@D@std@@V?$allocator@D@2@@std@@UGuildMember@@@std@@@2@@std@@@0@0AAI@Z 00407b10 f i Guild.obj
 0001:00006b30       ??$?8DU?$char_traits@D@std@@V?$allocator@D@1@@std@@YA_NABV?$basic_string@DU?$char_traits@D@std@@V?$allocator@D@2@@0@0@Z 00407b30 f i Guild.obj
 0001:00006b70       ?_Incsize@?$list@U?$pair@$$CBV?$basic_string@DU?$char_traits@D@std@@V?$allocator@D@2@@std@@UGuildMember@@@std@@V?$allocator@U?$pair@$$CBV?$basic_string@DU?$char_traits@D@std@@V?$allocator@D@2@@std@@UGuildMember@@@std@@@2@@std@@QAEXI@Z 00407b70 f i Guild.obj
 0001:00006bb0       ??$_Dest_val@V?$allocator@V?$_List_iterator@V?$_List_val@U?$pair@$$CBV?$basic_string@DU?$char_traits@D@std@@V?$allocator@D@2@@std@@UGuildMember@@@std@@V?$allocator@U?$pair@$$CBV?$basic_string@DU?$char_traits@D@std@@V?$allocator@D@2@@std@@UGuildMember@@@std@@@2@@std@@@std@@@std@@V?$_List_iterator@V?$_List_val@U?$pair@$$CBV?$basic_string@DU?$char_traits@D@std@@V?$allocator@D@2@@std@@UGuildMember@@@std@@V?$allocator@U?$pair@$$CBV?$basic_string@DU?$char_traits@D@std@@V?$allocator@D@2@@std@@UGuildMember@@@std@@@2@@std@@@2@@std@@YAXAAV?$allocator@V?$_List_iterator@V?$_List_val@U?$pair@$$CBV?$basic_string@DU?$char_traits@D@std@@V?$allocator@D@2@@std@@UGuildMember@@@std@@V?$allocator@U?$pair@$$CBV?$basic_string@DU?$char_traits@D@std@@V?$allocator@D@2@@std@@UGuildMember@@@std@@@2@@std@@@std@@@0@PAV?$_List_iterator@V?$_List_val@U?$pair@$$CBV?$basic_string@DU?$char_traits@D@std@@V?$allocator@D@2@@std@@UGuildMember@@@std@@V?$allocator@U?$pair@$$CBV?$basic_string@DU?$char_traits@D@std@@V?$allocator@D@2@@std@@UGuildMember@@@std@@@2@@std@@@0@@Z 00407bb0 f i Guild.obj
 0001:00006bc0       ??$_Cons_val@V?$allocator@V?$_List_iterator@V?$_List_val@U?$pair@$$CBV?$basic_string@DU?$char_traits@D@std@@V?$allocator@D@2@@std@@UGuildMember@@@std@@V?$allocator@U?$pair@$$CBV?$basic_string@DU?$char_traits@D@std@@V?$allocator@D@2@@std@@UGuildMember@@@std@@@2@@std@@@std@@@std@@V?$_List_iterator@V?$_List_val@U?$pair@$$CBV?$basic_string@DU?$char_traits@D@std@@V?$allocator@D@2@@std@@UGuildMember@@@std@@V?$allocator@U?$pair@$$CBV?$basic_string@DU?$char_traits@D@std@@V?$allocator@D@2@@std@@UGuildMember@@@std@@@2@@std@@@2@ABV32@@std@@YAXAAV?$allocator@V?$_List_iterator@V?$_List_val@U?$pair@$$CBV?$basic_string@DU?$char_traits@D@std@@V?$allocator@D@2@@std@@UGuildMember@@@std@@V?$allocator@U?$pair@$$CBV?$basic_string@DU?$char_traits@D@std@@V?$allocator@D@2@@std@@UGuildMember@@@std@@@2@@std@@@std@@@0@PAV?$_List_iterator@V?$_List_val@U?$pair@$$CBV?$basic_string@DU?$char_traits@D@std@@V?$allocator@D@2@@std@@UGuildMember@@@std@@V?$allocator@U?$pair@$$CBV?$basic_string@DU?$char_traits@D@std@@V?$allocator@D@2@@std@@UGuildMember@@@std@@@2@@std@@@0@ABV20@@Z 00407bc0 f i Guild.obj
 0001:00006be0       ??$_Cons_val@V?$allocator@V?$_List_iterator@V?$_List_val@U?$pair@$$CBV?$basic_string@DU?$char_traits@D@std@@V?$allocator@D@2@@std@@UGuildMember@@@std@@V?$allocator@U?$pair@$$CBV?$basic_string@DU?$char_traits@D@std@@V?$allocator@D@2@@std@@UGuildMember@@@std@@@2@@std@@@std@@@std@@V?$_List_iterator@V?$_List_val@U?$pair@$$CBV?$basic_string@DU?$char_traits@D@std@@V?$allocator@D@2@@std@@UGuildMember@@@std@@V?$allocator@U?$pair@$$CBV?$basic_string@DU?$char_traits@D@std@@V?$allocator@D@2@@std@@UGuildMember@@@std@@@2@@std@@@2@V32@@std@@YAXAAV?$allocator@V?$_List_iterator@V?$_List_val@U?$pair@$$CBV?$basic_string@DU?$char_traits@D@std@@V?$allocator@D@2@@std@@UGuildMember@@@std@@V?$allocator@U?$pair@$$CBV?$basic_string@DU?$char_traits@D@std@@V?$allocator@D@2@@std@@UGuildMember@@@std@@@2@@std@@@std@@@0@PAV?$_List_iterator@V?$_List_val@U?$pair@$$CBV?$basic_string@DU?$char_traits@D@std@@V?$allocator@D@2@@std@@UGuildMember@@@std@@V?$allocator@U?$pair@$$CBV?$basic_string@DU?$char_traits@D@std@@V?$allocator@D@2@@std@@UGuildMember@@@std@@@2@@std@@@0@$$QAV20@@Z 00407be0 f i Guild.obj
 0001:00006c00       ??0?$basic_string@DU?$char_traits@D@std@@V?$allocator@D@2@@std@@QAE@XZ 00407c00 f i Guild.obj
 0001:00006c20       ??1?$basic_string@DU?$char_traits@D@std@@V?$allocator@D@2@@std@@QAE@XZ 00407c20 f i Guild.obj
 0001:00006c50       ??1?$_Pair_base@$$CBV?$basic_string@DU?$char_traits@D@std@@V?$allocator@D@2@@std@@UGuildMember@@@std@@QAE@XZ 00407c50 f i Guild.obj
 0001:00006c80       ?_Hashval@?$_Hash@V?$_Umap_traits@V?$basic_string@DU?$char_traits@D@std@@V?$allocator@D@2@@std@@UGuildMember@@V?$_Hash_compare@V?$basic_string@DU?$char_traits@D@std@@V?$allocator@D@2@@std@@V?$hash@V?$basic_string@DU?$char_traits@D@std@@V?$allocator@D@2@@std@@@2@U?$equal_to@V?$basic_string@DU?$char_traits@D@std@@V?$allocator@D@2@@std@@@2@@2@V?$allocator@U?$pair@$$CBV?$basic_string@DU?$char_traits@D@std@@V?$allocator@D@2@@std@@UGuildMember@@@std@@@2@$0A@@tr1@std@@@std@@IBEIABV?$basic_string@DU?$char_traits@D@std@@V?$allocator@D@2@@2@@Z 00407c80 f i Guild.obj
 0001:00006cc0       ??0?$list@U?$pair@$$CBV?$basic_string@DU?$char_traits@D@std@@V?$allocator@D@2@@std@@UGuildMember@@@std@@V?$allocator@U?$pair@$$CBV?$basic_string@DU?$char_traits@D@std@@V?$allocator@D@2@@std@@UGuildMember@@@std@@@2@@std@@QAE@ABV?$allocator@U?$pair@$$CBV?$basic_string@DU?$char_traits@D@std@@V?$allocator@D@2@@std@@UGuildMember@@@std@@@1@@Z 00407cc0 f i Guild.obj
 0001:00006d30       ?end@?$list@U?$pair@$$CBV?$basic_string@DU?$char_traits@D@std@@V?$allocator@D@2@@std@@UGuildMember@@@std@@V?$allocator@U?$pair@$$CBV?$basic_string@DU?$char_traits@D@std@@V?$allocator@D@2@@std@@UGuildMember@@@std@@@2@@std@@QAE?AV?$_List_iterator@V?$_List_val@U?$pair@$$CBV?$basic_string@DU?$char_traits@D@std@@V?$allocator@D@2@@std@@UGuildMember@@@std@@V?$allocator@U?$pair@$$CBV?$basic_string@DU?$char_traits@D@std@@V?$allocator@D@2@@std@@UGuildMember@@@std@@@2@@std@@@2@XZ 00407d30 f i Guild.obj
 0001:00006d50       ?_Make_iter@?$list@U?$pair@$$CBV?$basic_string@DU?$char_traits@D@std@@V?$allocator@D@2@@std@@UGuildMember@@@std@@V?$allocator@U?$pair@$$CBV?$basic_string@DU?$char_traits@D@std@@V?$allocator@D@2@@std@@UGuildMember@@@std@@@2@@std@@QBE?AV?$_List_iterator@V?$_List_val@U?$pair@$$CBV?$basic_string@DU?$char_traits@D@std@@V?$allocator@D@2@@std@@UGuildMember@@@std@@V?$allocator@U?$pair@$$CBV?$basic_string@DU?$char_traits@D@std@@V?$allocator@D@2@@std@@UGuildMember@@@std@@@2@@std@@@2@V?$_List_const_iterator@V?$_List_val@U?$pair@$$CBV?$basic_string@DU?$char_traits@D@std@@V?$allocator@D@2@@std@@UGuildMember@@@std@@V?$allocator@U?$pair@$$CBV?$basic_string@DU?$char_traits@D@std@@V?$allocator@D@2@@std@@UGuildMember@@@std@@@2@@std@@@2@@Z 00407d50 f i Guild.obj
 0001:00006d70       ?_Grow@?$basic_string@DU?$char_traits@D@std@@V?$allocator@D@2@@std@@QAE_NI_N@Z 00407d70 f i Guild.obj
 0001:00006e50       ??R?$equal_to@V?$basic_string@DU?$char_traits@D@std@@V?$allocator@D@2@@std@@@std@@QBE_NABV?$basic_string@DU?$char_traits@D@std@@V?$allocator@D@2@@1@0@Z 00407e50 f i Guild.obj
 0001:00006e90       ?begin@?$list@U?$pair@$$CBV?$basic_string@DU?$char_traits@D@std@@V?$allocator@D@2@@std@@UGuildMember@@@std@@V?$allocator@U?$pair@$$CBV?$basic_string@DU?$char_traits@D@std@@V?$allocator@D@2@@std@@UGuildMember@@@std@@@2@@std@@QAE?AV?$_List_iterator@V?$_List_val@U?$pair@$$CBV?$basic_string@DU?$char_traits@D@std@@V?$allocator@D@2@@std@@UGuildMember@@@std@@V?$allocator@U?$pair@$$CBV?$basic_string@DU?$char_traits@D@std@@V?$allocator@D@2@@std@@UGuildMember@@@std@@@2@@std@@@2@XZ 00407e90 f i Guild.obj
 0001:00006eb0       ?front@?$list@U?$pair@$$CBV?$basic_string@DU?$char_traits@D@std@@V?$allocator@D@2@@std@@UGuildMember@@@std@@V?$allocator@U?$pair@$$CBV?$basic_string@DU?$char_traits@D@std@@V?$allocator@D@2@@std@@UGuildMember@@@std@@@2@@std@@QAEAAU?$pair@$$CBV?$basic_string@DU?$char_traits@D@std@@V?$allocator@D@2@@std@@UGuildMember@@@2@XZ 00407eb0 f i Guild.obj
 0001:00006ec0       ?_Splice_same@?$list@U?$pair@$$CBV?$basic_string@DU?$char_traits@D@std@@V?$allocator@D@2@@std@@UGuildMember@@@std@@V?$allocator@U?$pair@$$CBV?$basic_string@DU?$char_traits@D@std@@V?$allocator@D@2@@std@@UGuildMember@@@std@@@2@@std@@QAEXV?$_List_const_iterator@V?$_List_val@U?$pair@$$CBV?$basic_string@DU?$char_traits@D@std@@V?$allocator@D@2@@std@@UGuildMember@@@std@@V?$allocator@U?$pair@$$CBV?$basic_string@DU?$char_traits@D@std@@V?$allocator@D@2@@std@@UGuildMember@@@std@@@2@@std@@@2@AAV12@00I@Z 00407ec0 f i Guild.obj
 0001:00006f60       ??$_Destroy_range@V?$allocator@V?$_List_iterator@V?$_List_val@U?$pair@$$CBV?$basic_string@DU?$char_traits@D@std@@V?$allocator@D@2@@std@@UGuildMember@@@std@@V?$allocator@U?$pair@$$CBV?$basic_string@DU?$char_traits@D@std@@V?$allocator@D@2@@std@@UGuildMember@@@std@@@2@@std@@@std@@@std@@@std@@YAXPAV?$_List_iterator@V?$_List_val@U?$pair@$$CBV?$basic_string@DU?$char_traits@D@std@@V?$allocator@D@2@@std@@UGuildMember@@@std@@V?$allocator@U?$pair@$$CBV?$basic_string@DU?$char_traits@D@std@@V?$allocator@D@2@@std@@UGuildMember@@@std@@@2@@std@@@0@0AAV?$allocator@V?$_List_iterator@V?$_List_val@U?$pair@$$CBV?$basic_string@DU?$char_traits@D@std@@V?$allocator@D@2@@std@@UGuildMember@@@std@@V?$allocator@U?$pair@$$CBV?$basic_string@DU?$char_traits@D@std@@V?$allocator@D@2@@std@@UGuildMember@@@std@@@2@@std@@@std@@@0@U_Nonscalar_ptr_iterator_tag@0@@Z 00407f60 f i Guild.obj
 0001:00006f70       ??$_Uninit_fill_n@PAV?$_List_iterator@V?$_List_val@U?$pair@$$CBV?$basic_string@DU?$char_traits@D@std@@V?$allocator@D@2@@std@@UGuildMember@@@std@@V?$allocator@U?$pair@$$CBV?$basic_string@DU?$char_traits@D@std@@V?$allocator@D@2@@std@@UGuildMember@@@std@@@2@@std@@@std@@IV12@V?$allocator@V?$_List_iterator@V?$_List_val@U?$pair@$$CBV?$basic_string@DU?$char_traits@D@std@@V?$allocator@D@2@@std@@UGuildMember@@@std@@V?$allocator@U?$pair@$$CBV?$basic_string@DU?$char_traits@D@std@@V?$allocator@D@2@@std@@UGuildMember@@@std@@@2@@std@@@std@@@2@V12@@std@@YAXPAV?$_List_iterator@V?$_List_val@U?$pair@$$CBV?$basic_string@DU?$char_traits@D@std@@V?$allocator@D@2@@std@@UGuildMember@@@std@@V?$allocator@U?$pair@$$CBV?$basic_string@DU?$char_traits@D@std@@V?$allocator@D@2@@std@@UGuildMember@@@std@@@2@@std@@@0@IPBV10@AAV?$allocator@V?$_List_iterator@V?$_List_val@U?$pair@$$CBV?$basic_string@DU?$char_traits@D@std@@V?$allocator@D@2@@std@@UGuildMember@@@std@@V?$allocator@U?$pair@$$CBV?$basic_string@DU?$char_traits@D@std@@V?$allocator@D@2@@std@@UGuildMember@@@std@@@2@@std@@@std@@@0@0U_Nonscalar_ptr_iterator_tag@0@@Z 00407f70 f i Guild.obj
 0001:00006fa0       ??$_Uninit_move@PAV?$_List_iterator@V?$_List_val@U?$pair@$$CBV?$basic_string@DU?$char_traits@D@std@@V?$allocator@D@2@@std@@UGuildMember@@@std@@V?$allocator@U?$pair@$$CBV?$basic_string@DU?$char_traits@D@std@@V?$allocator@D@2@@std@@UGuildMember@@@std@@@2@@std@@@std@@PAV12@V?$allocator@V?$_List_iterator@V?$_List_val@U?$pair@$$CBV?$basic_string@DU?$char_traits@D@std@@V?$allocator@D@2@@std@@UGuildMember@@@std@@V?$allocator@U?$pair@$$CBV?$basic_string@DU?$char_traits@D@std@@V?$allocator@D@2@@std@@UGuildMember@@@std@@@2@@std@@@std@@@2@V12@@std@@YAPAV?$_List_iterator@V?$_List_val@U?$pair@$$CBV?$basic_string@DU?$char_traits@D@std@@V?$allocator@D@2@@std@@UGuildMember@@@std@@V?$allocator@U?$pair@$$CBV?$basic_string@DU?$char_traits@D@std@@V?$allocator@D@2@@std@@UGuildMember@@@std@@@2@@std@@@0@PAV10@00AAV?$allocator@V?$_List_iterator@V?$_List_val@U?$pair@$$CBV?$basic_string@DU?$char_traits@D@std@@V?$allocator@D@2@@std@@UGuildMember@@@std@@V?$allocator@U?$pair@$$CBV?$basic_string@DU?$char_traits@D@std@@V?$allocator@D@2@@std@@UGuildMember@@@std@@@2@@std@@@std@@@0@0U_Nonscalar_ptr_iterator_tag@0@@Z 00407fa0 f i Guild.obj
 0001:00006fd0       ??1GuildUpgrade@@QAE@XZ    00407fd0 f i Guild.obj
 0001:00007000       ??0GuildUpgrade@@QAE@XZ    00408000 f i Guild.obj
 0001:00007020       ??1?$pair@$$CBV?$basic_string@DU?$char_traits@D@std@@V?$allocator@D@2@@std@@UGuildMember@@@std@@QAE@XZ 00408020 f i Guild.obj
 0001:00007050       ?end@?$_Hash@V?$_Umap_traits@V?$basic_string@DU?$char_traits@D@std@@V?$allocator@D@2@@std@@UGuildMember@@V?$_Hash_compare@V?$basic_string@DU?$char_traits@D@std@@V?$allocator@D@2@@std@@V?$hash@V?$basic_string@DU?$char_traits@D@std@@V?$allocator@D@2@@std@@@2@U?$equal_to@V?$basic_string@DU?$char_traits@D@std@@V?$allocator@D@2@@std@@@2@@2@V?$allocator@U?$pair@$$CBV?$basic_string@DU?$char_traits@D@std@@V?$allocator@D@2@@std@@UGuildMember@@@std@@@2@$0A@@tr1@std@@@std@@QAE?AV?$_List_iterator@V?$_List_val@U?$pair@$$CBV?$basic_string@DU?$char_traits@D@std@@V?$allocator@D@2@@std@@UGuildMember@@@std@@V?$allocator@U?$pair@$$CBV?$basic_string@DU?$char_traits@D@std@@V?$allocator@D@2@@std@@UGuildMember@@@std@@@2@@std@@@2@XZ 00408050 f i Guild.obj
 0001:00007070       ?begin@?$_Hash@V?$_Umap_traits@V?$basic_string@DU?$char_traits@D@std@@V?$allocator@D@2@@std@@UGuildMember@@V?$_Hash_compare@V?$basic_string@DU?$char_traits@D@std@@V?$allocator@D@2@@std@@V?$hash@V?$basic_string@DU?$char_traits@D@std@@V?$allocator@D@2@@std@@@2@U?$equal_to@V?$basic_string@DU?$char_traits@D@std@@V?$allocator@D@2@@std@@@2@@2@V?$allocator@U?$pair@$$CBV?$basic_string@DU?$char_traits@D@std@@V?$allocator@D@2@@std@@UGuildMember@@@std@@@2@$0A@@tr1@std@@@std@@QAE?AV?$_List_iterator@V?$_List_val@U?$pair@$$CBV?$basic_string@DU?$char_traits@D@std@@V?$allocator@D@2@@std@@UGuildMember@@@std@@V?$allocator@U?$pair@$$CBV?$basic_string@DU?$char_traits@D@std@@V?$allocator@D@2@@std@@UGuildMember@@@std@@@2@@std@@@2@XZ 00408070 f i Guild.obj
 0001:00007090       ?_End@?$_Hash@V?$_Umap_traits@V?$basic_string@DU?$char_traits@D@std@@V?$allocator@D@2@@std@@UGuildMember@@V?$_Hash_compare@V?$basic_string@DU?$char_traits@D@std@@V?$allocator@D@2@@std@@V?$hash@V?$basic_string@DU?$char_traits@D@std@@V?$allocator@D@2@@std@@@2@U?$equal_to@V?$basic_string@DU?$char_traits@D@std@@V?$allocator@D@2@@std@@@2@@2@V?$allocator@U?$pair@$$CBV?$basic_string@DU?$char_traits@D@std@@V?$allocator@D@2@@std@@UGuildMember@@@std@@@2@$0A@@tr1@std@@@std@@IAE?AV?$_List_iterator@V?$_List_val@U?$pair@$$CBV?$basic_string@DU?$char_traits@D@std@@V?$allocator@D@2@@std@@UGuildMember@@@std@@V?$allocator@U?$pair@$$CBV?$basic_string@DU?$char_traits@D@std@@V?$allocator@D@2@@std@@UGuildMember@@@std@@@2@@std@@@2@I@Z 00408090 f i Guild.obj
 0001:000070c0       ??R?$_Hash_compare@V?$basic_string@DU?$char_traits@D@std@@V?$allocator@D@2@@std@@V?$hash@V?$basic_string@DU?$char_traits@D@std@@V?$allocator@D@2@@std@@@2@U?$equal_to@V?$basic_string@DU?$char_traits@D@std@@V?$allocator@D@2@@std@@@2@@std@@QBE_NABV?$basic_string@DU?$char_traits@D@std@@V?$allocator@D@2@@1@0@Z 004080c0 f i Guild.obj
 0001:00007100       ?assign@?$basic_string@DU?$char_traits@D@std@@V?$allocator@D@2@@std@@QAEAAV12@ABV12@II@Z 00408100 f i Guild.obj
 0001:00007220       ?_Erase_bucket@?$_Hash@V?$_Umap_traits@V?$basic_string@DU?$char_traits@D@std@@V?$allocator@D@2@@std@@UGuildMember@@V?$_Hash_compare@V?$basic_string@DU?$char_traits@D@std@@V?$allocator@D@2@@std@@V?$hash@V?$basic_string@DU?$char_traits@D@std@@V?$allocator@D@2@@std@@@2@U?$equal_to@V?$basic_string@DU?$char_traits@D@std@@V?$allocator@D@2@@std@@@2@@2@V?$allocator@U?$pair@$$CBV?$basic_string@DU?$char_traits@D@std@@V?$allocator@D@2@@std@@UGuildMember@@@std@@@2@$0A@@tr1@std@@@std@@IAEXV?$_List_iterator@V?$_List_val@U?$pair@$$CBV?$basic_string@DU?$char_traits@D@std@@V?$allocator@D@2@@std@@UGuildMember@@@std@@V?$allocator@U?$pair@$$CBV?$basic_string@DU?$char_traits@D@std@@V?$allocator@D@2@@std@@UGuildMember@@@std@@@2@@std@@@2@I@Z 00408220 f i Guild.obj
 0001:00007280       ??$_Destroy_range@V?$allocator@V?$_List_iterator@V?$_List_val@U?$pair@$$CBV?$basic_string@DU?$char_traits@D@std@@V?$allocator@D@2@@std@@UGuildMember@@@std@@V?$allocator@U?$pair@$$CBV?$basic_string@DU?$char_traits@D@std@@V?$allocator@D@2@@std@@UGuildMember@@@std@@@2@@std@@@std@@@std@@@std@@YAXPAV?$_List_iterator@V?$_List_val@U?$pair@$$CBV?$basic_string@DU?$char_traits@D@std@@V?$allocator@D@2@@std@@UGuildMember@@@std@@V?$allocator@U?$pair@$$CBV?$basic_string@DU?$char_traits@D@std@@V?$allocator@D@2@@std@@UGuildMember@@@std@@@2@@std@@@0@0AAV?$allocator@V?$_List_iterator@V?$_List_val@U?$pair@$$CBV?$basic_string@DU?$char_traits@D@std@@V?$allocator@D@2@@std@@UGuildMember@@@std@@V?$allocator@U?$pair@$$CBV?$basic_string@DU?$char_traits@D@std@@V?$allocator@D@2@@std@@UGuildMember@@@std@@@2@@std@@@std@@@0@@Z 00408280 f i Guild.obj
 0001:00007290       ??$_Uninitialized_fill_n@PAV?$_List_iterator@V?$_List_val@U?$pair@$$CBV?$basic_string@DU?$char_traits@D@std@@V?$allocator@D@2@@std@@UGuildMember@@@std@@V?$allocator@U?$pair@$$CBV?$basic_string@DU?$char_traits@D@std@@V?$allocator@D@2@@std@@UGuildMember@@@std@@@2@@std@@@std@@IV12@V?$allocator@V?$_List_iterator@V?$_List_val@U?$pair@$$CBV?$basic_string@DU?$char_traits@D@std@@V?$allocator@D@2@@std@@UGuildMember@@@std@@V?$allocator@U?$pair@$$CBV?$basic_string@DU?$char_traits@D@std@@V?$allocator@D@2@@std@@UGuildMember@@@std@@@2@@std@@@std@@@2@@std@@YAXPAV?$_List_iterator@V?$_List_val@U?$pair@$$CBV?$basic_string@DU?$char_traits@D@std@@V?$allocator@D@2@@std@@UGuildMember@@@std@@V?$allocator@U?$pair@$$CBV?$basic_string@DU?$char_traits@D@std@@V?$allocator@D@2@@std@@UGuildMember@@@std@@@2@@std@@@0@IPBV10@AAV?$allocator@V?$_List_iterator@V?$_List_val@U?$pair@$$CBV?$basic_string@DU?$char_traits@D@std@@V?$allocator@D@2@@std@@UGuildMember@@@std@@V?$allocator@U?$pair@$$CBV?$basic_string@DU?$char_traits@D@std@@V?$allocator@D@2@@std@@UGuildMember@@@std@@@2@@std@@@std@@@0@@Z 00408290 f i Guild.obj
 0001:000072c0       ?_Insert_bucket@?$_Hash@V?$_Umap_traits@V?$basic_string@DU?$char_traits@D@std@@V?$allocator@D@2@@std@@UGuildMember@@V?$_Hash_compare@V?$basic_string@DU?$char_traits@D@std@@V?$allocator@D@2@@std@@V?$hash@V?$basic_string@DU?$char_traits@D@std@@V?$allocator@D@2@@std@@@2@U?$equal_to@V?$basic_string@DU?$char_traits@D@std@@V?$allocator@D@2@@std@@@2@@2@V?$allocator@U?$pair@$$CBV?$basic_string@DU?$char_traits@D@std@@V?$allocator@D@2@@std@@UGuildMember@@@std@@@2@$0A@@tr1@std@@@std@@IAEXV?$_List_iterator@V?$_List_val@U?$pair@$$CBV?$basic_string@DU?$char_traits@D@std@@V?$allocator@D@2@@std@@UGuildMember@@@std@@V?$allocator@U?$pair@$$CBV?$basic_string@DU?$char_traits@D@std@@V?$allocator@D@2@@std@@UGuildMember@@@std@@@2@@std@@@2@0I@Z 004082c0 f i Guild.obj
 0001:00007330       ??$_Uninitialized_move@PAV?$_List_iterator@V?$_List_val@U?$pair@$$CBV?$basic_string@DU?$char_traits@D@std@@V?$allocator@D@2@@std@@UGuildMember@@@std@@V?$allocator@U?$pair@$$CBV?$basic_string@DU?$char_traits@D@std@@V?$allocator@D@2@@std@@UGuildMember@@@std@@@2@@std@@@std@@PAV12@V?$allocator@V?$_List_iterator@V?$_List_val@U?$pair@$$CBV?$basic_string@DU?$char_traits@D@std@@V?$allocator@D@2@@std@@UGuildMember@@@std@@V?$allocator@U?$pair@$$CBV?$basic_string@DU?$char_traits@D@std@@V?$allocator@D@2@@std@@UGuildMember@@@std@@@2@@std@@@std@@@2@@std@@YAPAV?$_List_iterator@V?$_List_val@U?$pair@$$CBV?$basic_string@DU?$char_traits@D@std@@V?$allocator@D@2@@std@@UGuildMember@@@std@@V?$allocator@U?$pair@$$CBV?$basic_string@DU?$char_traits@D@std@@V?$allocator@D@2@@std@@UGuildMember@@@std@@@2@@std@@@0@PAV10@00AAV?$allocator@V?$_List_iterator@V?$_List_val@U?$pair@$$CBV?$basic_string@DU?$char_traits@D@std@@V?$allocator@D@2@@std@@UGuildMember@@@std@@V?$allocator@U?$pair@$$CBV?$basic_string@DU?$char_traits@D@std@@V?$allocator@D@2@@std@@UGuildMember@@@std@@@2@@std@@@std@@@0@@Z 00408330 f i Guild.obj
 0001:00007360       ??1_Node@?$_List_nod@U?$pair@$$CBV?$basic_string@DU?$char_traits@D@std@@V?$allocator@D@2@@std@@UGuildMember@@@std@@V?$allocator@U?$pair@$$CBV?$basic_string@DU?$char_traits@D@std@@V?$allocator@D@2@@std@@UGuildMember@@@std@@@2@@std@@QAE@XZ 00408360 f i Guild.obj
 0001:00007390       ?lower_bound@?$_Hash@V?$_Umap_traits@V?$basic_string@DU?$char_traits@D@std@@V?$allocator@D@2@@std@@UGuildMember@@V?$_Hash_compare@V?$basic_string@DU?$char_traits@D@std@@V?$allocator@D@2@@std@@V?$hash@V?$basic_string@DU?$char_traits@D@std@@V?$allocator@D@2@@std@@@2@U?$equal_to@V?$basic_string@DU?$char_traits@D@std@@V?$allocator@D@2@@std@@@2@@2@V?$allocator@U?$pair@$$CBV?$basic_string@DU?$char_traits@D@std@@V?$allocator@D@2@@std@@UGuildMember@@@std@@@2@$0A@@tr1@std@@@std@@QAE?AV?$_List_iterator@V?$_List_val@U?$pair@$$CBV?$basic_string@DU?$char_traits@D@std@@V?$allocator@D@2@@std@@UGuildMember@@@std@@V?$allocator@U?$pair@$$CBV?$basic_string@DU?$char_traits@D@std@@V?$allocator@D@2@@std@@UGuildMember@@@std@@@2@@std@@@2@ABV?$basic_string@DU?$char_traits@D@std@@V?$allocator@D@2@@2@@Z 00408390 f i Guild.obj
 0001:00007510       ?equal_range@?$_Hash@V?$_Umap_traits@V?$basic_string@DU?$char_traits@D@std@@V?$allocator@D@2@@std@@UGuildMember@@V?$_Hash_compare@V?$basic_string@DU?$char_traits@D@std@@V?$allocator@D@2@@std@@V?$hash@V?$basic_string@DU?$char_traits@D@std@@V?$allocator@D@2@@std@@@2@U?$equal_to@V?$basic_string@DU?$char_traits@D@std@@V?$allocator@D@2@@std@@@2@@2@V?$allocator@U?$pair@$$CBV?$basic_string@DU?$char_traits@D@std@@V?$allocator@D@2@@std@@UGuildMember@@@std@@@2@$0A@@tr1@std@@@std@@QAE?AU?$pair@V?$_List_iterator@V?$_List_val@U?$pair@$$CBV?$basic_string@DU?$char_traits@D@std@@V?$allocator@D@2@@std@@UGuildMember@@@std@@V?$allocator@U?$pair@$$CBV?$basic_string@DU?$char_traits@D@std@@V?$allocator@D@2@@std@@UGuildMember@@@std@@@2@@std@@@std@@V12@@2@ABV?$basic_string@DU?$char_traits@D@std@@V?$allocator@D@2@@2@@Z 00408510 f i Guild.obj
 0001:00007750       ?assign@?$basic_string@DU?$char_traits@D@std@@V?$allocator@D@2@@std@@QAEAAV12@PBDI@Z 00408750 f i Guild.obj
 0001:00007890       ??0?$basic_string@DU?$char_traits@D@std@@V?$allocator@D@2@@std@@QAE@ABV01@@Z 00408890 f i Guild.obj
 0001:000078d0       ?_Destroy@?$vector@V?$_List_iterator@V?$_List_val@U?$pair@$$CBV?$basic_string@DU?$char_traits@D@std@@V?$allocator@D@2@@std@@UGuildMember@@@std@@V?$allocator@U?$pair@$$CBV?$basic_string@DU?$char_traits@D@std@@V?$allocator@D@2@@std@@UGuildMember@@@std@@@2@@std@@@std@@V?$allocator@V?$_List_iterator@V?$_List_val@U?$pair@$$CBV?$basic_string@DU?$char_traits@D@std@@V?$allocator@D@2@@std@@UGuildMember@@@std@@V?$allocator@U?$pair@$$CBV?$basic_string@DU?$char_traits@D@std@@V?$allocator@D@2@@std@@UGuildMember@@@std@@@2@@std@@@std@@@2@@std@@IAEXPAV?$_List_iterator@V?$_List_val@U?$pair@$$CBV?$basic_string@DU?$char_traits@D@std@@V?$allocator@D@2@@std@@UGuildMember@@@std@@V?$allocator@U?$pair@$$CBV?$basic_string@DU?$char_traits@D@std@@V?$allocator@D@2@@std@@UGuildMember@@@std@@@2@@std@@@2@0@Z 004088d0 f i Guild.obj
 0001:000078e0       ?erase@?$vector@V?$_List_iterator@V?$_List_val@U?$pair@$$CBV?$basic_string@DU?$char_traits@D@std@@V?$allocator@D@2@@std@@UGuildMember@@@std@@V?$allocator@U?$pair@$$CBV?$basic_string@DU?$char_traits@D@std@@V?$allocator@D@2@@std@@UGuildMember@@@std@@@2@@std@@@std@@V?$allocator@V?$_List_iterator@V?$_List_val@U?$pair@$$CBV?$basic_string@DU?$char_traits@D@std@@V?$allocator@D@2@@std@@UGuildMember@@@std@@V?$allocator@U?$pair@$$CBV?$basic_string@DU?$char_traits@D@std@@V?$allocator@D@2@@std@@UGuildMember@@@std@@@2@@std@@@std@@@2@@std@@QAE?AV?$_Vector_iterator@V?$_Vector_val@V?$_List_iterator@V?$_List_val@U?$pair@$$CBV?$basic_string@DU?$char_traits@D@std@@V?$allocator@D@2@@std@@UGuildMember@@@std@@V?$allocator@U?$pair@$$CBV?$basic_string@DU?$char_traits@D@std@@V?$allocator@D@2@@std@@UGuildMember@@@std@@@2@@std@@@std@@V?$allocator@V?$_List_iterator@V?$_List_val@U?$pair@$$CBV?$basic_string@DU?$char_traits@D@std@@V?$allocator@D@2@@std@@UGuildMember@@@std@@V?$allocator@U?$pair@$$CBV?$basic_string@DU?$char_traits@D@std@@V?$allocator@D@2@@std@@UGuildMember@@@std@@@2@@std@@@std@@@2@@std@@@2@V?$_Vector_const_iterator@V?$_Vector_val@V?$_List_iterator@V?$_List_val@U?$pair@$$CBV?$basic_string@DU?$char_traits@D@std@@V?$allocator@D@2@@std@@UGuildMember@@@std@@V?$allocator@U?$pair@$$CBV?$basic_string@DU?$char_traits@D@std@@V?$allocator@D@2@@std@@UGuildMember@@@std@@@2@@std@@@std@@V?$allocator@V?$_List_iterator@V?$_List_val@U?$pair@$$CBV?$basic_string@DU?$char_traits@D@std@@V?$allocator@D@2@@std@@UGuildMember@@@std@@V?$allocator@U?$pair@$$CBV?$basic_string@DU?$char_traits@D@std@@V?$allocator@D@2@@std@@UGuildMember@@@std@@@2@@std@@@std@@@2@@std@@@2@0@Z 004088e0 f i Guild.obj
 0001:00007930       ?_Ufill@?$vector@V?$_List_iterator@V?$_List_val@U?$pair@$$CBV?$basic_string@DU?$char_traits@D@std@@V?$allocator@D@2@@std@@UGuildMember@@@std@@V?$allocator@U?$pair@$$CBV?$basic_string@DU?$char_traits@D@std@@V?$allocator@D@2@@std@@UGuildMember@@@std@@@2@@std@@@std@@V?$allocator@V?$_List_iterator@V?$_List_val@U?$pair@$$CBV?$basic_string@DU?$char_traits@D@std@@V?$allocator@D@2@@std@@UGuildMember@@@std@@V?$allocator@U?$pair@$$CBV?$basic_string@DU?$char_traits@D@std@@V?$allocator@D@2@@std@@UGuildMember@@@std@@@2@@std@@@std@@@2@@std@@IAEPAV?$_List_iterator@V?$_List_val@U?$pair@$$CBV?$basic_string@DU?$char_traits@D@std@@V?$allocator@D@2@@std@@UGuildMember@@@std@@V?$allocator@U?$pair@$$CBV?$basic_string@DU?$char_traits@D@std@@V?$allocator@D@2@@std@@UGuildMember@@@std@@@2@@std@@@2@PAV32@IPBV32@@Z 00408930 f i Guild.obj
 0001:00007970       ??$_Umove@PAV?$_List_iterator@V?$_List_val@U?$pair@$$CBV?$basic_string@DU?$char_traits@D@std@@V?$allocator@D@2@@std@@UGuildMember@@@std@@V?$allocator@U?$pair@$$CBV?$basic_string@DU?$char_traits@D@std@@V?$allocator@D@2@@std@@UGuildMember@@@std@@@2@@std@@@std@@@?$vector@V?$_List_iterator@V?$_List_val@U?$pair@$$CBV?$basic_string@DU?$char_traits@D@std@@V?$allocator@D@2@@std@@UGuildMember@@@std@@V?$allocator@U?$pair@$$CBV?$basic_string@DU?$char_traits@D@std@@V?$allocator@D@2@@std@@UGuildMember@@@std@@@2@@std@@@std@@V?$allocator@V?$_List_iterator@V?$_List_val@U?$pair@$$CBV?$basic_string@DU?$char_traits@D@std@@V?$allocator@D@2@@std@@UGuildMember@@@std@@V?$allocator@U?$pair@$$CBV?$basic_string@DU?$char_traits@D@std@@V?$allocator@D@2@@std@@UGuildMember@@@std@@@2@@std@@@std@@@2@@std@@IAEPAV?$_List_iterator@V?$_List_val@U?$pair@$$CBV?$basic_string@DU?$char_traits@D@std@@V?$allocator@D@2@@std@@UGuildMember@@@std@@V?$allocator@U?$pair@$$CBV?$basic_string@DU?$char_traits@D@std@@V?$allocator@D@2@@std@@UGuildMember@@@std@@@2@@std@@@1@PAV21@00@Z 00408970 f i Guild.obj
 0001:000079a0       ??_G_Node@?$_List_nod@U?$pair@$$CBV?$basic_string@DU?$char_traits@D@std@@V?$allocator@D@2@@std@@UGuildMember@@@std@@V?$allocator@U?$pair@$$CBV?$basic_string@DU?$char_traits@D@std@@V?$allocator@D@2@@std@@UGuildMember@@@std@@@2@@std@@QAEPAXI@Z 004089a0 f i Guild.obj
 0001:000079f0       ??0?$_Pair_base@$$CBV?$basic_string@DU?$char_traits@D@std@@V?$allocator@D@2@@std@@UGuildMember@@@std@@QAE@$$QBV?$basic_string@DU?$char_traits@D@std@@V?$allocator@D@2@@1@$$QAUGuildMember@@@Z 004089f0 f i Guild.obj
 0001:00007a50       ?assign@?$basic_string@DU?$char_traits@D@std@@V?$allocator@D@2@@std@@QAEAAV12@PBD@Z 00408a50 f i Guild.obj
 0001:00007a80       ?_Tidy@?$vector@V?$_List_iterator@V?$_List_val@U?$pair@$$CBV?$basic_string@DU?$char_traits@D@std@@V?$allocator@D@2@@std@@UGuildMember@@@std@@V?$allocator@U?$pair@$$CBV?$basic_string@DU?$char_traits@D@std@@V?$allocator@D@2@@std@@UGuildMember@@@std@@@2@@std@@@std@@V?$allocator@V?$_List_iterator@V?$_List_val@U?$pair@$$CBV?$basic_string@DU?$char_traits@D@std@@V?$allocator@D@2@@std@@UGuildMember@@@std@@V?$allocator@U?$pair@$$CBV?$basic_string@DU?$char_traits@D@std@@V?$allocator@D@2@@std@@UGuildMember@@@std@@@2@@std@@@std@@@2@@std@@IAEXXZ 00408a80 f i Guild.obj
 0001:00007ac0       ??0?$_Pair_base@$$CBV?$basic_string@DU?$char_traits@D@std@@V?$allocator@D@2@@std@@UGuildMember@@@std@@QAE@ABV?$basic_string@DU?$char_traits@D@std@@V?$allocator@D@2@@1@$$QAUGuildMember@@@Z 00408ac0 f i Guild.obj
 0001:00007b20       ?_Insert_n@?$vector@V?$_List_iterator@V?$_List_val@U?$pair@$$CBV?$basic_string@DU?$char_traits@D@std@@V?$allocator@D@2@@std@@UGuildMember@@@std@@V?$allocator@U?$pair@$$CBV?$basic_string@DU?$char_traits@D@std@@V?$allocator@D@2@@std@@UGuildMember@@@std@@@2@@std@@@std@@V?$allocator@V?$_List_iterator@V?$_List_val@U?$pair@$$CBV?$basic_string@DU?$char_traits@D@std@@V?$allocator@D@2@@std@@UGuildMember@@@std@@V?$allocator@U?$pair@$$CBV?$basic_string@DU?$char_traits@D@std@@V?$allocator@D@2@@std@@UGuildMember@@@std@@@2@@std@@@std@@@2@@std@@IAEXV?$_Vector_const_iterator@V?$_Vector_val@V?$_List_iterator@V?$_List_val@U?$pair@$$CBV?$basic_string@DU?$char_traits@D@std@@V?$allocator@D@2@@std@@UGuildMember@@@std@@V?$allocator@U?$pair@$$CBV?$basic_string@DU?$char_traits@D@std@@V?$allocator@D@2@@std@@UGuildMember@@@std@@@2@@std@@@std@@V?$allocator@V?$_List_iterator@V?$_List_val@U?$pair@$$CBV?$basic_string@DU?$char_traits@D@std@@V?$allocator@D@2@@std@@UGuildMember@@@std@@V?$allocator@U?$pair@$$CBV?$basic_string@DU?$char_traits@D@std@@V?$allocator@D@2@@std@@UGuildMember@@@std@@@2@@std@@@std@@@2@@std@@@2@IABV?$_List_iterator@V?$_List_val@U?$pair@$$CBV?$basic_string@DU?$char_traits@D@std@@V?$allocator@D@2@@std@@UGuildMember@@@std@@V?$allocator@U?$pair@$$CBV?$basic_string@DU?$char_traits@D@std@@V?$allocator@D@2@@std@@UGuildMember@@@std@@@2@@std@@@2@@Z 00408b20 f i Guild.obj
 0001:00007e10       ??$_Destroy@U_Node@?$_List_nod@U?$pair@$$CBV?$basic_string@DU?$char_traits@D@std@@V?$allocator@D@2@@std@@UGuildMember@@@std@@V?$allocator@U?$pair@$$CBV?$basic_string@DU?$char_traits@D@std@@V?$allocator@D@2@@std@@UGuildMember@@@std@@@2@@std@@@std@@YAXPAU_Node@?$_List_nod@U?$pair@$$CBV?$basic_string@DU?$char_traits@D@std@@V?$allocator@D@2@@std@@UGuildMember@@@std@@V?$allocator@U?$pair@$$CBV?$basic_string@DU?$char_traits@D@std@@V?$allocator@D@2@@std@@UGuildMember@@@std@@@2@@0@@Z 00408e10 f i Guild.obj
 0001:00007e50       ??$?0$$CBV?$basic_string@DU?$char_traits@D@std@@V?$allocator@D@2@@std@@UGuildMember@@@?$pair@$$CBV?$basic_string@DU?$char_traits@D@std@@V?$allocator@D@2@@std@@UGuildMember@@@std@@QAE@$$QAU01@@Z 00408e50 f i Guild.obj
 0001:00007eb0       ??0?$basic_string@DU?$char_traits@D@std@@V?$allocator@D@2@@std@@QAE@PBD@Z 00408eb0 f i Guild.obj
 0001:00007f00       ??1?$vector@V?$_List_iterator@V?$_List_val@U?$pair@$$CBV?$basic_string@DU?$char_traits@D@std@@V?$allocator@D@2@@std@@UGuildMember@@@std@@V?$allocator@U?$pair@$$CBV?$basic_string@DU?$char_traits@D@std@@V?$allocator@D@2@@std@@UGuildMember@@@std@@@2@@std@@@std@@V?$allocator@V?$_List_iterator@V?$_List_val@U?$pair@$$CBV?$basic_string@DU?$char_traits@D@std@@V?$allocator@D@2@@std@@UGuildMember@@@std@@V?$allocator@U?$pair@$$CBV?$basic_string@DU?$char_traits@D@std@@V?$allocator@D@2@@std@@UGuildMember@@@std@@@2@@std@@@std@@@2@@std@@QAE@XZ 00408f00 f i Guild.obj
 0001:00007f40       ??0?$pair@$$CBV?$basic_string@DU?$char_traits@D@std@@V?$allocator@D@2@@std@@UGuildMember@@@std@@QAE@ABV?$basic_string@DU?$char_traits@D@std@@V?$allocator@D@2@@1@$$QAUGuildMember@@@Z 00408f40 f i Guild.obj
 0001:00007fa0       ?insert@?$vector@V?$_List_iterator@V?$_List_val@U?$pair@$$CBV?$basic_string@DU?$char_traits@D@std@@V?$allocator@D@2@@std@@UGuildMember@@@std@@V?$allocator@U?$pair@$$CBV?$basic_string@DU?$char_traits@D@std@@V?$allocator@D@2@@std@@UGuildMember@@@std@@@2@@std@@@std@@V?$allocator@V?$_List_iterator@V?$_List_val@U?$pair@$$CBV?$basic_string@DU?$char_traits@D@std@@V?$allocator@D@2@@std@@UGuildMember@@@std@@V?$allocator@U?$pair@$$CBV?$basic_string@DU?$char_traits@D@std@@V?$allocator@D@2@@std@@UGuildMember@@@std@@@2@@std@@@std@@@2@@std@@QAEXV?$_Vector_const_iterator@V?$_Vector_val@V?$_List_iterator@V?$_List_val@U?$pair@$$CBV?$basic_string@DU?$char_traits@D@std@@V?$allocator@D@2@@std@@UGuildMember@@@std@@V?$allocator@U?$pair@$$CBV?$basic_string@DU?$char_traits@D@std@@V?$allocator@D@2@@std@@UGuildMember@@@std@@@2@@std@@@std@@V?$allocator@V?$_List_iterator@V?$_List_val@U?$pair@$$CBV?$basic_string@DU?$char_traits@D@std@@V?$allocator@D@2@@std@@UGuildMember@@@std@@V?$allocator@U?$pair@$$CBV?$basic_string@DU?$char_traits@D@std@@V?$allocator@D@2@@std@@UGuildMember@@@std@@@2@@std@@@std@@@2@@std@@@2@IABV?$_List_iterator@V?$_List_val@U?$pair@$$CBV?$basic_string@DU?$char_traits@D@std@@V?$allocator@D@2@@std@@UGuildMember@@@std@@V?$allocator@U?$pair@$$CBV?$basic_string@DU?$char_traits@D@std@@V?$allocator@D@2@@std@@UGuildMember@@@std@@@2@@std@@@2@@Z 00408fa0 f i Guild.obj
 0001:00007fc0       ?destroy@?$allocator@U_Node@?$_List_nod@U?$pair@$$CBV?$basic_string@DU?$char_traits@D@std@@V?$allocator@D@2@@std@@UGuildMember@@@std@@V?$allocator@U?$pair@$$CBV?$basic_string@DU?$char_traits@D@std@@V?$allocator@D@2@@std@@UGuildMember@@@std@@@2@@std@@@std@@QAEXPAU_Node@?$_List_nod@U?$pair@$$CBV?$basic_string@DU?$char_traits@D@std@@V?$allocator@D@2@@std@@UGuildMember@@@std@@V?$allocator@U?$pair@$$CBV?$basic_string@DU?$char_traits@D@std@@V?$allocator@D@2@@std@@UGuildMember@@@std@@@2@@2@@Z 00408fc0 f i Guild.obj
 0001:00008000       ?construct@?$allocator@U?$pair@$$CBV?$basic_string@DU?$char_traits@D@std@@V?$allocator@D@2@@std@@UGuildMember@@@std@@@std@@QAEXPAU?$pair@$$CBV?$basic_string@DU?$char_traits@D@std@@V?$allocator@D@2@@std@@UGuildMember@@@2@$$QAU32@@Z 00409000 f i Guild.obj
 0001:000080a0       ?_Assign_n@?$vector@V?$_List_iterator@V?$_List_val@U?$pair@$$CBV?$basic_string@DU?$char_traits@D@std@@V?$allocator@D@2@@std@@UGuildMember@@@std@@V?$allocator@U?$pair@$$CBV?$basic_string@DU?$char_traits@D@std@@V?$allocator@D@2@@std@@UGuildMember@@@std@@@2@@std@@@std@@V?$allocator@V?$_List_iterator@V?$_List_val@U?$pair@$$CBV?$basic_string@DU?$char_traits@D@std@@V?$allocator@D@2@@std@@UGuildMember@@@std@@V?$allocator@U?$pair@$$CBV?$basic_string@DU?$char_traits@D@std@@V?$allocator@D@2@@std@@UGuildMember@@@std@@@2@@std@@@std@@@2@@std@@IAEXIABV?$_List_iterator@V?$_List_val@U?$pair@$$CBV?$basic_string@DU?$char_traits@D@std@@V?$allocator@D@2@@std@@UGuildMember@@@std@@V?$allocator@U?$pair@$$CBV?$basic_string@DU?$char_traits@D@std@@V?$allocator@D@2@@std@@UGuildMember@@@std@@@2@@std@@@2@@Z 004090a0 f i Guild.obj
 0001:00008100       ??$_Dest_val@V?$allocator@U_Node@?$_List_nod@U?$pair@$$CBV?$basic_string@DU?$char_traits@D@std@@V?$allocator@D@2@@std@@UGuildMember@@@std@@V?$allocator@U?$pair@$$CBV?$basic_string@DU?$char_traits@D@std@@V?$allocator@D@2@@std@@UGuildMember@@@std@@@2@@std@@@std@@U_Node@?$_List_nod@U?$pair@$$CBV?$basic_string@DU?$char_traits@D@std@@V?$allocator@D@2@@std@@UGuildMember@@@std@@V?$allocator@U?$pair@$$CBV?$basic_string@DU?$char_traits@D@std@@V?$allocator@D@2@@std@@UGuildMember@@@std@@@2@@2@@std@@YAXAAV?$allocator@U_Node@?$_List_nod@U?$pair@$$CBV?$basic_string@DU?$char_traits@D@std@@V?$allocator@D@2@@std@@UGuildMember@@@std@@V?$allocator@U?$pair@$$CBV?$basic_string@DU?$char_traits@D@std@@V?$allocator@D@2@@std@@UGuildMember@@@std@@@2@@std@@@0@PAU_Node@?$_List_nod@U?$pair@$$CBV?$basic_string@DU?$char_traits@D@std@@V?$allocator@D@2@@std@@UGuildMember@@@std@@V?$allocator@U?$pair@$$CBV?$basic_string@DU?$char_traits@D@std@@V?$allocator@D@2@@std@@UGuildMember@@@std@@@2@@0@@Z 00409100 f i Guild.obj
 0001:00008140       ??$_Cons_val@V?$allocator@U?$pair@$$CBV?$basic_string@DU?$char_traits@D@std@@V?$allocator@D@2@@std@@UGuildMember@@@std@@@std@@U?$pair@$$CBV?$basic_string@DU?$char_traits@D@std@@V?$allocator@D@2@@std@@UGuildMember@@@2@U32@@std@@YAXAAV?$allocator@U?$pair@$$CBV?$basic_string@DU?$char_traits@D@std@@V?$allocator@D@2@@std@@UGuildMember@@@std@@@0@PAU?$pair@$$CBV?$basic_string@DU?$char_traits@D@std@@V?$allocator@D@2@@std@@UGuildMember@@@0@$$QAU20@@Z 00409140 f i Guild.obj
 0001:000081e0       ?clear@?$list@U?$pair@$$CBV?$basic_string@DU?$char_traits@D@std@@V?$allocator@D@2@@std@@UGuildMember@@@std@@V?$allocator@U?$pair@$$CBV?$basic_string@DU?$char_traits@D@std@@V?$allocator@D@2@@std@@UGuildMember@@@std@@@2@@std@@QAEXXZ 004091e0 f i Guild.obj
 0001:00008250       ?_Tidy@?$list@U?$pair@$$CBV?$basic_string@DU?$char_traits@D@std@@V?$allocator@D@2@@std@@UGuildMember@@@std@@V?$allocator@U?$pair@$$CBV?$basic_string@DU?$char_traits@D@std@@V?$allocator@D@2@@std@@UGuildMember@@@std@@@2@@std@@QAEXXZ 00409250 f i Guild.obj
 0001:00008260       ?assign@?$vector@V?$_List_iterator@V?$_List_val@U?$pair@$$CBV?$basic_string@DU?$char_traits@D@std@@V?$allocator@D@2@@std@@UGuildMember@@@std@@V?$allocator@U?$pair@$$CBV?$basic_string@DU?$char_traits@D@std@@V?$allocator@D@2@@std@@UGuildMember@@@std@@@2@@std@@@std@@V?$allocator@V?$_List_iterator@V?$_List_val@U?$pair@$$CBV?$basic_string@DU?$char_traits@D@std@@V?$allocator@D@2@@std@@UGuildMember@@@std@@V?$allocator@U?$pair@$$CBV?$basic_string@DU?$char_traits@D@std@@V?$allocator@D@2@@std@@UGuildMember@@@std@@@2@@std@@@std@@@2@@std@@QAEXIABV?$_List_iterator@V?$_List_val@U?$pair@$$CBV?$basic_string@DU?$char_traits@D@std@@V?$allocator@D@2@@std@@UGuildMember@@@std@@V?$allocator@U?$pair@$$CBV?$basic_string@DU?$char_traits@D@std@@V?$allocator@D@2@@std@@UGuildMember@@@std@@@2@@std@@@2@@Z 00409260 f i Guild.obj
 0001:000082c0       ?erase@?$list@U?$pair@$$CBV?$basic_string@DU?$char_traits@D@std@@V?$allocator@D@2@@std@@UGuildMember@@@std@@V?$allocator@U?$pair@$$CBV?$basic_string@DU?$char_traits@D@std@@V?$allocator@D@2@@std@@UGuildMember@@@std@@@2@@std@@QAE?AV?$_List_iterator@V?$_List_val@U?$pair@$$CBV?$basic_string@DU?$char_traits@D@std@@V?$allocator@D@2@@std@@UGuildMember@@@std@@V?$allocator@U?$pair@$$CBV?$basic_string@DU?$char_traits@D@std@@V?$allocator@D@2@@std@@UGuildMember@@@std@@@2@@std@@@2@V?$_List_const_iterator@V?$_List_val@U?$pair@$$CBV?$basic_string@DU?$char_traits@D@std@@V?$allocator@D@2@@std@@UGuildMember@@@std@@V?$allocator@U?$pair@$$CBV?$basic_string@DU?$char_traits@D@std@@V?$allocator@D@2@@std@@UGuildMember@@@std@@@2@@std@@@2@@Z 004092c0 f i Guild.obj
 0001:00008350       ??$_Buynode@U?$pair@$$CBV?$basic_string@DU?$char_traits@D@std@@V?$allocator@D@2@@std@@UGuildMember@@@std@@@?$_List_val@U?$pair@$$CBV?$basic_string@DU?$char_traits@D@std@@V?$allocator@D@2@@std@@UGuildMember@@@std@@V?$allocator@U?$pair@$$CBV?$basic_string@DU?$char_traits@D@std@@V?$allocator@D@2@@std@@UGuildMember@@@std@@@2@@std@@QAEPAU_Node@?$_List_nod@U?$pair@$$CBV?$basic_string@DU?$char_traits@D@std@@V?$allocator@D@2@@std@@UGuildMember@@@std@@V?$allocator@U?$pair@$$CBV?$basic_string@DU?$char_traits@D@std@@V?$allocator@D@2@@std@@UGuildMember@@@std@@@2@@1@PAU231@0$$QAU?$pair@$$CBV?$basic_string@DU?$char_traits@D@std@@V?$allocator@D@2@@std@@UGuildMember@@@1@@Z 00409350 f i Guild.obj
 0001:00008470       ?_Init@?$_Hash@V?$_Umap_traits@V?$basic_string@DU?$char_traits@D@std@@V?$allocator@D@2@@std@@UGuildMember@@V?$_Hash_compare@V?$basic_string@DU?$char_traits@D@std@@V?$allocator@D@2@@std@@V?$hash@V?$basic_string@DU?$char_traits@D@std@@V?$allocator@D@2@@std@@@2@U?$equal_to@V?$basic_string@DU?$char_traits@D@std@@V?$allocator@D@2@@std@@@2@@2@V?$allocator@U?$pair@$$CBV?$basic_string@DU?$char_traits@D@std@@V?$allocator@D@2@@std@@UGuildMember@@@std@@@2@$0A@@tr1@std@@@std@@IAEXI@Z 00409470 f i Guild.obj
 0001:000084e0       ??1?$list@U?$pair@$$CBV?$basic_string@DU?$char_traits@D@std@@V?$allocator@D@2@@std@@UGuildMember@@@std@@V?$allocator@U?$pair@$$CBV?$basic_string@DU?$char_traits@D@std@@V?$allocator@D@2@@std@@UGuildMember@@@std@@@2@@std@@QAE@XZ 004094e0 f i Guild.obj
 0001:00008500       ?erase@?$_Hash@V?$_Umap_traits@V?$basic_string@DU?$char_traits@D@std@@V?$allocator@D@2@@std@@UGuildMember@@V?$_Hash_compare@V?$basic_string@DU?$char_traits@D@std@@V?$allocator@D@2@@std@@V?$hash@V?$basic_string@DU?$char_traits@D@std@@V?$allocator@D@2@@std@@@2@U?$equal_to@V?$basic_string@DU?$char_traits@D@std@@V?$allocator@D@2@@std@@@2@@2@V?$allocator@U?$pair@$$CBV?$basic_string@DU?$char_traits@D@std@@V?$allocator@D@2@@std@@UGuildMember@@@std@@@2@$0A@@tr1@std@@@std@@QAE?AV?$_List_iterator@V?$_List_val@U?$pair@$$CBV?$basic_string@DU?$char_traits@D@std@@V?$allocator@D@2@@std@@UGuildMember@@@std@@V?$allocator@U?$pair@$$CBV?$basic_string@DU?$char_traits@D@std@@V?$allocator@D@2@@std@@UGuildMember@@@std@@@2@@std@@@2@V?$_List_const_iterator@V?$_List_val@U?$pair@$$CBV?$basic_string@DU?$char_traits@D@std@@V?$allocator@D@2@@std@@UGuildMember@@@std@@V?$allocator@U?$pair@$$CBV?$basic_string@DU?$char_traits@D@std@@V?$allocator@D@2@@std@@UGuildMember@@@std@@@2@@std@@@2@@Z 00409500 f i Guild.obj
 0001:00008590       ?_Check_size@?$_Hash@V?$_Umap_traits@V?$basic_string@DU?$char_traits@D@std@@V?$allocator@D@2@@std@@UGuildMember@@V?$_Hash_compare@V?$basic_string@DU?$char_traits@D@std@@V?$allocator@D@2@@std@@V?$hash@V?$basic_string@DU?$char_traits@D@std@@V?$allocator@D@2@@std@@@2@U?$equal_to@V?$basic_string@DU?$char_traits@D@std@@V?$allocator@D@2@@std@@@2@@2@V?$allocator@U?$pair@$$CBV?$basic_string@DU?$char_traits@D@std@@V?$allocator@D@2@@std@@UGuildMember@@@std@@@2@$0A@@tr1@std@@@std@@IAEXXZ 00409590 f i Guild.obj
 0001:00008670       ??$_Insert_rv@U?$pair@$$CBV?$basic_string@DU?$char_traits@D@std@@V?$allocator@D@2@@std@@UGuildMember@@@std@@@?$list@U?$pair@$$CBV?$basic_string@DU?$char_traits@D@std@@V?$allocator@D@2@@std@@UGuildMember@@@std@@V?$allocator@U?$pair@$$CBV?$basic_string@DU?$char_traits@D@std@@V?$allocator@D@2@@std@@UGuildMember@@@std@@@2@@std@@QAEXV?$_List_const_iterator@V?$_List_val@U?$pair@$$CBV?$basic_string@DU?$char_traits@D@std@@V?$allocator@D@2@@std@@UGuildMember@@@std@@V?$allocator@U?$pair@$$CBV?$basic_string@DU?$char_traits@D@std@@V?$allocator@D@2@@std@@UGuildMember@@@std@@@2@@std@@@1@$$QAU?$pair@$$CBV?$basic_string@DU?$char_traits@D@std@@V?$allocator@D@2@@std@@UGuildMember@@@1@@Z 00409670 f i Guild.obj
 0001:000086d0       ??1?$_Hash@V?$_Umap_traits@V?$basic_string@DU?$char_traits@D@std@@V?$allocator@D@2@@std@@UGuildMember@@V?$_Hash_compare@V?$basic_string@DU?$char_traits@D@std@@V?$allocator@D@2@@std@@V?$hash@V?$basic_string@DU?$char_traits@D@std@@V?$allocator@D@2@@std@@@2@U?$equal_to@V?$basic_string@DU?$char_traits@D@std@@V?$allocator@D@2@@std@@@2@@2@V?$allocator@U?$pair@$$CBV?$basic_string@DU?$char_traits@D@std@@V?$allocator@D@2@@std@@UGuildMember@@@std@@@2@$0A@@tr1@std@@@std@@QAE@XZ 004096d0 f i Guild.obj
 0001:00008720       ?clear@?$_Hash@V?$_Umap_traits@V?$basic_string@DU?$char_traits@D@std@@V?$allocator@D@2@@std@@UGuildMember@@V?$_Hash_compare@V?$basic_string@DU?$char_traits@D@std@@V?$allocator@D@2@@std@@V?$hash@V?$basic_string@DU?$char_traits@D@std@@V?$allocator@D@2@@std@@@2@U?$equal_to@V?$basic_string@DU?$char_traits@D@std@@V?$allocator@D@2@@std@@@2@@2@V?$allocator@U?$pair@$$CBV?$basic_string@DU?$char_traits@D@std@@V?$allocator@D@2@@std@@UGuildMember@@@std@@@2@$0A@@tr1@std@@@std@@QAEXXZ 00409720 f i Guild.obj
 0001:000087a0       ??0?$_Hash@V?$_Umap_traits@V?$basic_string@DU?$char_traits@D@std@@V?$allocator@D@2@@std@@UGuildMember@@V?$_Hash_compare@V?$basic_string@DU?$char_traits@D@std@@V?$allocator@D@2@@std@@V?$hash@V?$basic_string@DU?$char_traits@D@std@@V?$allocator@D@2@@std@@@2@U?$equal_to@V?$basic_string@DU?$char_traits@D@std@@V?$allocator@D@2@@std@@@2@@2@V?$allocator@U?$pair@$$CBV?$basic_string@DU?$char_traits@D@std@@V?$allocator@D@2@@std@@UGuildMember@@@std@@@2@$0A@@tr1@std@@@std@@QAE@ABV?$_Hash_compare@V?$basic_string@DU?$char_traits@D@std@@V?$allocator@D@2@@std@@V?$hash@V?$basic_string@DU?$char_traits@D@std@@V?$allocator@D@2@@std@@@2@U?$equal_to@V?$basic_string@DU?$char_traits@D@std@@V?$allocator@D@2@@std@@@2@@1@ABV?$allocator@U?$pair@$$CBV?$basic_string@DU?$char_traits@D@std@@V?$allocator@D@2@@std@@UGuildMember@@@std@@@1@@Z 004097a0 f i Guild.obj
 0001:000088d0       ?erase@?$_Hash@V?$_Umap_traits@V?$basic_string@DU?$char_traits@D@std@@V?$allocator@D@2@@std@@UGuildMember@@V?$_Hash_compare@V?$basic_string@DU?$char_traits@D@std@@V?$allocator@D@2@@std@@V?$hash@V?$basic_string@DU?$char_traits@D@std@@V?$allocator@D@2@@std@@@2@U?$equal_to@V?$basic_string@DU?$char_traits@D@std@@V?$allocator@D@2@@std@@@2@@2@V?$allocator@U?$pair@$$CBV?$basic_string@DU?$char_traits@D@std@@V?$allocator@D@2@@std@@UGuildMember@@@std@@@2@$0A@@tr1@std@@@std@@QAE?AV?$_List_iterator@V?$_List_val@U?$pair@$$CBV?$basic_string@DU?$char_traits@D@std@@V?$allocator@D@2@@std@@UGuildMember@@@std@@V?$allocator@U?$pair@$$CBV?$basic_string@DU?$char_traits@D@std@@V?$allocator@D@2@@std@@UGuildMember@@@std@@@2@@std@@@2@V?$_List_const_iterator@V?$_List_val@U?$pair@$$CBV?$basic_string@DU?$char_traits@D@std@@V?$allocator@D@2@@std@@UGuildMember@@@std@@V?$allocator@U?$pair@$$CBV?$basic_string@DU?$char_traits@D@std@@V?$allocator@D@2@@std@@UGuildMember@@@std@@@2@@std@@@2@0@Z 004098d0 f i Guild.obj
 0001:00008a60       ?_Insert@?$_Hash@V?$_Umap_traits@V?$basic_string@DU?$char_traits@D@std@@V?$allocator@D@2@@std@@UGuildMember@@V?$_Hash_compare@V?$basic_string@DU?$char_traits@D@std@@V?$allocator@D@2@@std@@V?$hash@V?$basic_string@DU?$char_traits@D@std@@V?$allocator@D@2@@std@@@2@U?$equal_to@V?$basic_string@DU?$char_traits@D@std@@V?$allocator@D@2@@std@@@2@@2@V?$allocator@U?$pair@$$CBV?$basic_string@DU?$char_traits@D@std@@V?$allocator@D@2@@std@@UGuildMember@@@std@@@2@$0A@@tr1@std@@@std@@IAE?AU?$pair@V?$_List_iterator@V?$_List_val@U?$pair@$$CBV?$basic_string@DU?$char_traits@D@std@@V?$allocator@D@2@@std@@UGuildMember@@@std@@V?$allocator@U?$pair@$$CBV?$basic_string@DU?$char_traits@D@std@@V?$allocator@D@2@@std@@UGuildMember@@@std@@@2@@std@@@std@@_N@2@ABU?$pair@$$CBV?$basic_string@DU?$char_traits@D@std@@V?$allocator@D@2@@std@@UGuildMember@@@2@V?$_List_iterator@V?$_List_val@U?$pair@$$CBV?$basic_string@DU?$char_traits@D@std@@V?$allocator@D@2@@std@@UGuildMember@@@std@@V?$allocator@U?$pair@$$CBV?$basic_string@DU?$char_traits@D@std@@V?$allocator@D@2@@std@@UGuildMember@@@std@@@2@@std@@@2@@Z 00409a60 f i Guild.obj
 0001:00008c40       ?_Reinsert@?$_Hash@V?$_Umap_traits@V?$basic_string@DU?$char_traits@D@std@@V?$allocator@D@2@@std@@UGuildMember@@V?$_Hash_compare@V?$basic_string@DU?$char_traits@D@std@@V?$allocator@D@2@@std@@V?$hash@V?$basic_string@DU?$char_traits@D@std@@V?$allocator@D@2@@std@@@2@U?$equal_to@V?$basic_string@DU?$char_traits@D@std@@V?$allocator@D@2@@std@@@2@@2@V?$allocator@U?$pair@$$CBV?$basic_string@DU?$char_traits@D@std@@V?$allocator@D@2@@std@@UGuildMember@@@std@@@2@$0A@@tr1@std@@@std@@IAEXV?$_List_iterator@V?$_List_val@U?$pair@$$CBV?$basic_string@DU?$char_traits@D@std@@V?$allocator@D@2@@std@@UGuildMember@@@std@@V?$allocator@U?$pair@$$CBV?$basic_string@DU?$char_traits@D@std@@V?$allocator@D@2@@std@@UGuildMember@@@std@@@2@@std@@@2@@Z 00409c40 f i Guild.obj
 0001:00008ca0       ??$emplace_front@U?$pair@$$CBV?$basic_string@DU?$char_traits@D@std@@V?$allocator@D@2@@std@@UGuildMember@@@std@@@?$list@U?$pair@$$CBV?$basic_string@DU?$char_traits@D@std@@V?$allocator@D@2@@std@@UGuildMember@@@std@@V?$allocator@U?$pair@$$CBV?$basic_string@DU?$char_traits@D@std@@V?$allocator@D@2@@std@@UGuildMember@@@std@@@2@@std@@QAEX$$QAU?$pair@$$CBV?$basic_string@DU?$char_traits@D@std@@V?$allocator@D@2@@std@@UGuildMember@@@1@@Z 00409ca0 f i Guild.obj
 0001:00008d00       ??1?$unordered_map@V?$basic_string@DU?$char_traits@D@std@@V?$allocator@D@2@@std@@UGuildMember@@V?$hash@V?$basic_string@DU?$char_traits@D@std@@V?$allocator@D@2@@std@@@2@U?$equal_to@V?$basic_string@DU?$char_traits@D@std@@V?$allocator@D@2@@std@@@2@V?$allocator@U?$pair@$$CBV?$basic_string@DU?$char_traits@D@std@@V?$allocator@D@2@@std@@UGuildMember@@@std@@@2@@tr1@std@@QAE@XZ 00409d00 f i Guild.obj
 0001:00008d50       ??1CGuild@@QAE@XZ          00409d50 f   Guild.obj
 0001:00008da0       ?Reset@CGuild@@QAEXXZ      00409da0 f   Guild.obj
 0001:00008dc0       ??0?$unordered_map@V?$basic_string@DU?$char_traits@D@std@@V?$allocator@D@2@@std@@UGuildMember@@V?$hash@V?$basic_string@DU?$char_traits@D@std@@V?$allocator@D@2@@std@@@2@U?$equal_to@V?$basic_string@DU?$char_traits@D@std@@V?$allocator@D@2@@std@@@2@V?$allocator@U?$pair@$$CBV?$basic_string@DU?$char_traits@D@std@@V?$allocator@D@2@@std@@UGuildMember@@@std@@@2@@tr1@std@@QAE@XZ 00409dc0 f i Guild.obj
 0001:00008df0       ?erase@?$_Hash@V?$_Umap_traits@V?$basic_string@DU?$char_traits@D@std@@V?$allocator@D@2@@std@@UGuildMember@@V?$_Hash_compare@V?$basic_string@DU?$char_traits@D@std@@V?$allocator@D@2@@std@@V?$hash@V?$basic_string@DU?$char_traits@D@std@@V?$allocator@D@2@@std@@@2@U?$equal_to@V?$basic_string@DU?$char_traits@D@std@@V?$allocator@D@2@@std@@@2@@2@V?$allocator@U?$pair@$$CBV?$basic_string@DU?$char_traits@D@std@@V?$allocator@D@2@@std@@UGuildMember@@@std@@@2@$0A@@tr1@std@@@std@@QAEIABV?$basic_string@DU?$char_traits@D@std@@V?$allocator@D@2@@2@@Z 00409df0 f i Guild.obj
 0001:00008e50       ??$insert@U?$pair@$$CBV?$basic_string@DU?$char_traits@D@std@@V?$allocator@D@2@@std@@UGuildMember@@@std@@@?$_Hash@V?$_Umap_traits@V?$basic_string@DU?$char_traits@D@std@@V?$allocator@D@2@@std@@UGuildMember@@V?$_Hash_compare@V?$basic_string@DU?$char_traits@D@std@@V?$allocator@D@2@@std@@V?$hash@V?$basic_string@DU?$char_traits@D@std@@V?$allocator@D@2@@std@@@2@U?$equal_to@V?$basic_string@DU?$char_traits@D@std@@V?$allocator@D@2@@std@@@2@@2@V?$allocator@U?$pair@$$CBV?$basic_string@DU?$char_traits@D@std@@V?$allocator@D@2@@std@@UGuildMember@@@std@@@2@$0A@@tr1@std@@@std@@QAE?AU?$pair@V?$_List_iterator@V?$_List_val@U?$pair@$$CBV?$basic_string@DU?$char_traits@D@std@@V?$allocator@D@2@@std@@UGuildMember@@@std@@V?$allocator@U?$pair@$$CBV?$basic_string@DU?$char_traits@D@std@@V?$allocator@D@2@@std@@UGuildMember@@@std@@@2@@std@@@std@@_N@1@$$QAU?$pair@$$CBV?$basic_string@DU?$char_traits@D@std@@V?$allocator@D@2@@std@@UGuildMember@@@1@@Z 00409e50 f i Guild.obj
 0001:00008ed0       ??0CGuild@@QAE@XZ          00409ed0 f   Guild.obj
 0001:00008f00       ?RemoveMember@CGuild@@QAEXV?$basic_string@DU?$char_traits@D@std@@V?$allocator@D@2@@std@@@Z 00409f00 f   Guild.obj
 0001:00008fb0       ??A?$unordered_map@V?$basic_string@DU?$char_traits@D@std@@V?$allocator@D@2@@std@@UGuildMember@@V?$hash@V?$basic_string@DU?$char_traits@D@std@@V?$allocator@D@2@@std@@@2@U?$equal_to@V?$basic_string@DU?$char_traits@D@std@@V?$allocator@D@2@@std@@@2@V?$allocator@U?$pair@$$CBV?$basic_string@DU?$char_traits@D@std@@V?$allocator@D@2@@std@@UGuildMember@@@std@@@2@@tr1@std@@QAEAAUGuildMember@@ABV?$basic_string@DU?$char_traits@D@std@@V?$allocator@D@2@@2@@Z 00409fb0 f i Guild.obj
 0001:000090a0       ?AddMember@CGuild@@QAEXUGuildMember@@V?$basic_string@DU?$char_traits@D@std@@V?$allocator@D@2@@std@@@Z 0040a0a0 f   Guild.obj
 0001:00009130       ??0CMagic@@QAE@XZ          0040a130 f   Magic.obj
 0001:00009160       ??1CMagic@@UAE@XZ          0040a160 f   Magic.obj
 0001:00009170       ??_ECMagic@@UAEPAXI@Z      0040a170 f i Magic.obj
 0001:00009170       ??_GCMagic@@UAEPAXI@Z      0040a170 f i Magic.obj
 0001:000091a0       ??0CSkill@@QAE@XZ          0040a1a0 f   Skill.obj
 0001:000091d0       ??1CSkill@@UAE@XZ          0040a1d0 f   Skill.obj
 0001:000091e0       ??_GCSkill@@UAEPAXI@Z      0040a1e0 f i Skill.obj
 0001:000091e0       ??_ECSkill@@UAEPAXI@Z      0040a1e0 f i Skill.obj
 0001:00009210       ??0CBuildItem@@QAE@XZ      0040a210 f   BuildItem.obj
 0001:000092a0       ??1CBuildItem@@UAE@XZ      0040a2a0 f   BuildItem.obj
 0001:000092b0       ??_GCBuildItem@@UAEPAXI@Z  0040a2b0 f i BuildItem.obj
 0001:000092b0       ??_ECBuildItem@@UAEPAXI@Z  0040a2b0 f i BuildItem.obj
 0001:000092e0       ?IsManued@CItem@@QBE_NXZ   0040a2e0 f i Item.obj
 0001:000092f0       ?GetManuCompletion@CItem@@QBEKXZ 0040a2f0 f i Item.obj
 0001:00009300       ??0CItem@@QAE@XZ           0040a300 f   Item.obj
 0001:00009370       ?InitItemAttr@CItem@@QAEXD@Z 0040a370 f   Item.obj
 0001:000095e0       ??1CItem@@UAE@XZ           0040a5e0 f   Item.obj
 0001:000095f0       ?GetMaxSockets@CItem@@QBEKXZ 0040a5f0 f   Item.obj
 0001:00009730       ?GetNUsedSockets@CItem@@QBEKXZ 0040a730 f   Item.obj
 0001:00009770       ?GetGemAttr@CItem@@QBEXPADE@Z 0040a770 f   Item.obj
 0001:00009c00       ?GetGemAttr@CItem@@QBEXPAD@Z 0040ac00 f   Item.obj
 0001:0000a7c0       ??_ECItem@@UAEPAXI@Z       0040b7c0 f i Item.obj
 0001:0000a7c0       ??_GCItem@@UAEPAXI@Z       0040b7c0 f i Item.obj
 0001:0000a7f0       ??0CItemName@@QAE@XZ       0040b7f0 f   ItemName.obj
 0001:0000a840       ??1CItemName@@UAE@XZ       0040b840 f   ItemName.obj
 0001:0000a850       ??_ECItemName@@UAEPAXI@Z   0040b850 f i ItemName.obj
 0001:0000a850       ??_GCItemName@@UAEPAXI@Z   0040b850 f i ItemName.obj
 0001:0000a880       ??0DXC_ddraw@@QAE@XZ       0040b880 f   DXC_ddraw.obj
 0001:0000a8c0       ??3DXC_ddraw@@SAXPAX@Z     0040b8c0 f i DXC_ddraw.obj
 0001:0000a8e0       ??1DXC_ddraw@@UAE@XZ       0040b8e0 f   DXC_ddraw.obj
 0001:0000a980       ?SetFontStyle@DXC_ddraw@@QAEXD@Z 0040b980 f   DXC_ddraw.obj
 0001:0000a9f0       ?iFlip@DXC_ddraw@@QAEJXZ   0040b9f0 f   DXC_ddraw.obj
 0001:0000ab50       ?pCreateOffScreenSurface@DXC_ddraw@@QAEPAUIDirectDrawSurface7@@GG@Z 0040bb50 f   DXC_ddraw.obj
 0001:0000ac20       ?_dwColorMatch@DXC_ddraw@@QAEKPAUIDirectDrawSurface7@@K@Z 0040bc20 f   DXC_ddraw.obj
 0001:0000ad60       ?_dwColorMatch@DXC_ddraw@@QAEKPAUIDirectDrawSurface7@@G@Z 0040bd60 f   DXC_ddraw.obj
 0001:0000ae00       ?TextOutA@DXC_ddraw@@QAEXHHPBDK@Z 0040be00 f   DXC_ddraw.obj
 0001:0000ae60       ?_TestPixelFormat@DXC_ddraw@@QAEXXZ 0040be60 f   DXC_ddraw.obj
 0001:0000af50       ?_CalcMaxValue@DXC_ddraw@@QAEJHHDDN@Z 0040bf50 f   DXC_ddraw.obj
 0001:0000afe0       ?_CalcMinValue@DXC_ddraw@@QAEJHHD@Z 0040bfe0 f   DXC_ddraw.obj
 0001:0000b030       ?ClearBackB4@DXC_ddraw@@QAEXXZ 0040c030 f   DXC_ddraw.obj
 0001:0000b0c0       ?DrawShadowBox@DXC_ddraw@@QAEXFFFFH@Z 0040c0c0 f   DXC_ddraw.obj
 0001:0000b450       ?PutPixel@DXC_ddraw@@QAEXFFGGG@Z 0040c450 f   DXC_ddraw.obj
 0001:0000b580       ?_GetBackBufferDC@DXC_ddraw@@QAEXXZ 0040c580 f   DXC_ddraw.obj
 0001:0000b5e0       ?_ReleaseBackBufferDC@DXC_ddraw@@QAEXXZ 0040c5e0 f   DXC_ddraw.obj
 0001:0000b600       ?DrawTextA@DXC_ddraw@@QAEXPAUtagRECT@@QBDK_N@Z 0040c600 f   DXC_ddraw.obj
 0001:0000b670       ?DrawTextExA@DXC_ddraw@@QAEXPAUtagRECT@@QBDKK_N@Z 0040c670 f   DXC_ddraw.obj
 0001:0000b6e0       ?InitFlipToGDI@DXC_ddraw@@QAEJPAUHWND__@@@Z 0040c6e0 f   DXC_ddraw.obj
 0001:0000b800       ?ColorTransferRGB@DXC_ddraw@@QAEXKPAH00@Z 0040c800 f   DXC_ddraw.obj
 0001:0000b890       ?Screenshot@DXC_ddraw@@QAE_NPBDPAUIDirectDrawSurface7@@@Z 0040c890 f   DXC_ddraw.obj
 0001:0000c060       ??_GDXC_ddraw@@UAEPAXI@Z   0040d060 f i DXC_ddraw.obj
 0001:0000c060       ??_EDXC_ddraw@@UAEPAXI@Z   0040d060 f i DXC_ddraw.obj
 0001:0000c0a0       ?bInit@DXC_ddraw@@QAEHPAUHWND__@@@Z 0040d0a0 f   DXC_ddraw.obj
 0001:0000c9b0       ?ChangeDisplayMode@DXC_ddraw@@QAEXPAUHWND__@@@Z 0040d9b0 f   DXC_ddraw.obj
 0001:0000ce10       ?iSetColorKey@DXC_ddraw@@QAEJPAUIDirectDrawSurface7@@K@Z 0040de10 f   DXC_ddraw.obj
 0001:0000ce50       ?iSetColorKey@DXC_ddraw@@QAEJPAUIDirectDrawSurface7@@G@Z 0040de50 f   DXC_ddraw.obj
 0001:0000ce90       ??0DXC_dinput@@QAE@XZ      0040de90 f   DXC_dinput.obj
 0001:0000ceb0       ??1DXC_dinput@@UAE@XZ      0040deb0 f   DXC_dinput.obj
 0001:0000cf10       ?bInit@DXC_dinput@@QAEHPAUHWND__@@PAUHINSTANCE__@@@Z 0040df10 f   DXC_dinput.obj
 0001:0000d020       ?SetAcquire@DXC_dinput@@QAEXH@Z 0040e020 f   DXC_dinput.obj
 0001:0000d0b0       ?UpdateMouseState@DXC_dinput@@QAEXPAF00PAD11@Z 0040e0b0 f   DXC_dinput.obj
 0001:0000d1b0       ?UpdateMouseState@DXC_dinput@@QAEXXZ 0040e1b0 f   DXC_dinput.obj
 0001:0000d2a0       ??_EDXC_dinput@@UAEPAXI@Z  0040e2a0 f i DXC_dinput.obj
 0001:0000d2a0       ??_GDXC_dinput@@UAEPAXI@Z  0040e2a0 f i DXC_dinput.obj
 0001:0000d310       ??0DXC_dsound@@QAE@XZ      0040e310 f   DXC_dsound.obj
 0001:0000d320       ??1DXC_dsound@@UAE@XZ      0040e320 f   DXC_dsound.obj
 0001:0000d330       ??_GDXC_dsound@@UAEPAXI@Z  0040e330 f i DXC_dsound.obj
 0001:0000d330       ??_EDXC_dsound@@UAEPAXI@Z  0040e330 f i DXC_dsound.obj
 0001:0000d360       ??0CEffect@@QAE@XZ         0040e360 f   Effect.obj
 0001:0000d390       ??1CEffect@@UAE@XZ         0040e390 f   Effect.obj
 0001:0000d3a0       ??_ECEffect@@UAEPAXI@Z     0040e3a0 f i Effect.obj
 0001:0000d3a0       ??_GCEffect@@UAEPAXI@Z     0040e3a0 f i Effect.obj
 0001:0000d3d0       ??0CMyDib@@QAE@PADK@Z      0040e3d0 f   Mydib.obj
 0001:0000d5a0       ??1CMyDib@@QAE@XZ          0040e5a0 f   Mydib.obj
 0001:0000d5c0       ?PaintImage@CMyDib@@QAEXPAUHDC__@@@Z 0040e5c0 f   Mydib.obj
 0001:0000d620       ??0CSoundBuffer@@QAE@PAUIDirectSound@@U_DSCAPS@@PADH@Z 0040e620 f   SoundBuffer.obj
 0001:0000d6c0       ??1CSoundBuffer@@UAE@XZ    0040e6c0 f   SoundBuffer.obj
 0001:0000d700       ?_bCreateSoundBuffer@CSoundBuffer@@QAEHDKKKKH@Z 0040e700 f   SoundBuffer.obj
 0001:0000d800       ?_LoadWavContents@CSoundBuffer@@QAEHDPAU_iobuf@@KK@Z 0040e800 f   SoundBuffer.obj
 0001:0000d920       ?SetVolume@CSoundBuffer@@QAEXJ@Z 0040e920 f   SoundBuffer.obj
 0001:0000d960       ?bStop@CSoundBuffer@@QAEXH@Z 0040e960 f   SoundBuffer.obj
 0001:0000d9c0       ?_ReleaseSoundBuffer@CSoundBuffer@@QAEXXZ 0040e9c0 f   SoundBuffer.obj
 0001:0000da00       ??_ECSoundBuffer@@UAEPAXI@Z 0040ea00 f i SoundBuffer.obj
 0001:0000da00       ??_GCSoundBuffer@@UAEPAXI@Z 0040ea00 f i SoundBuffer.obj
 0001:0000da70       ?bCreateBuffer_LoadWavFileContents@CSoundBuffer@@QAEHD@Z 0040ea70 f   SoundBuffer.obj
 0001:0000dbc0       ?GetIdleBuffer@CSoundBuffer@@QAEPAUIDirectSoundBuffer@@XZ 0040ebc0 f   SoundBuffer.obj
 0001:0000de00       ?Play@CSoundBuffer@@QAEHHJH@Z 0040ee00 f   SoundBuffer.obj
 0001:0000ded0       ??1CSprite@@UAE@XZ         0040eed0 f   Sprite.obj
 0001:0000df10       ??3CSprite@@SAXPAX@Z       0040ef10 f i Sprite.obj
 0001:0000df30       ?_pMakeSpriteSurface@CSprite@@QAEPAUIDirectDrawSurface7@@XZ 0040ef30 f   Sprite.obj
 0001:0000e0b0       ?iRestore@CSprite@@QAEXXZ  0040f0b0 f   Sprite.obj
 0001:0000e210       ?_iCloseSprite@CSprite@@QAEXXZ 0040f210 f   Sprite.obj
 0001:0000e260       ?_GetSpriteRect@CSprite@@QAEXHHH@Z 0040f260 f   Sprite.obj
 0001:0000e420       ?_SetAlphaDegree@CSprite@@QAEXXZ 0040f420 f   Sprite.obj
 0001:0000e730       ?_bCheckCollison@CSprite@@QAEHHHFHH@Z 0040f730 f   Sprite.obj
 0001:0000ead0       ??A?$vector@HV?$allocator@H@std@@@std@@QAEAAHI@Z 0040fad0 f i Sprite.obj
 0001:0000eaf0       ?_Inside@?$vector@HV?$allocator@H@std@@@std@@IBE_NPBH@Z 0040faf0 f i Sprite.obj
 0001:0000eb20       ?_Orphan_range@?$vector@HV?$allocator@H@std@@@std@@IBEXPAH0@Z 0040fb20 f i Sprite.obj
 0001:0000eb30       ?capacity@?$vector@HV?$allocator@H@std@@@std@@QBEIXZ 0040fb30 f i Sprite.obj
 0001:0000eb40       ?size@?$vector@HV?$allocator@H@std@@@std@@QBEIXZ 0040fb40 f i Sprite.obj
 0001:0000eb50       ?_Xlen@?$vector@HV?$allocator@H@std@@@std@@IBEXXZ 0040fb50 f i Sprite.obj
 0001:0000eb60       ?deallocate@?$allocator@H@std@@QAEXPAHI@Z 0040fb60 f i Sprite.obj
 0001:0000eb80       ?max_size@?$allocator@H@std@@QBEIXZ 0040fb80 f i Sprite.obj
 0001:0000eb90       ??$addressof@$$CBH@std@@YAPBHABH@Z 0040fb90 f i Sprite.obj
 0001:0000eba0       ??$_Allocate@H@std@@YAPAHIPAH@Z 0040fba0 f i Sprite.obj
 0001:0000ec10       ??$forward@AAH@std@@YAAAHAAH@Z 0040fc10 f i Sprite.obj
 0001:0000ec20       ??$construct@AAH@?$allocator@H@std@@QAEXPAHAAH@Z 0040fc20 f i Sprite.obj
 0001:0000ec40       ??$forward@ABH@std@@YAABHABH@Z 0040fc40 f i Sprite.obj
 0001:0000ec50       ??$_Ptr_cat@HH@std@@YA?AU_Scalar_ptr_iterator_tag@0@PAH0@Z 0040fc50 f i Sprite.obj
 0001:0000ec60       ??$_Destroy_range@V?$allocator@H@std@@@std@@YAXPAH0AAV?$allocator@H@0@U_Scalar_ptr_iterator_tag@0@@Z 0040fc60 f i Sprite.obj
 0001:0000ec70       ??$_Construct@HABH@std@@YAXPAHABH@Z 0040fc70 f i Sprite.obj
 0001:0000ec90       ??$_Val_type@PAH@std@@YAPAHPAH@Z 0040fc90 f i Sprite.obj
 0001:0000eca0       ??$_Uninit_move@HHH@std@@YAPAHPAH00AAV?$allocator@H@0@0U_Scalar_ptr_iterator_tag@0@@Z 0040fca0 f i Sprite.obj
 0001:0000ece0       ??0CSprite@@QAE@PAXPAVDXC_ddraw@@PADF_NPAV?$vector@HV?$allocator@H@std@@@std@@@Z 0040fce0 f   Sprite.obj
 0001:0000ee30       ??_ECSprite@@UAEPAXI@Z     0040fe30 f i Sprite.obj
 0001:0000ee30       ??_GCSprite@@UAEPAXI@Z     0040fe30 f i Sprite.obj
 0001:0000ee90       ?_iOpenSprite@CSprite@@QAE_NXZ 0040fe90 f   Sprite.obj
 0001:0000ef60       ?PutSpriteRGB@CSprite@@QAEXHHHHHHK@Z 0040ff60 f   Sprite.obj
 0001:0000f3e0       ?PutTransSpriteRGB@CSprite@@QAEXHHHHHHK@Z 004103e0 f   Sprite.obj
 0001:0000f950       ?PutTransSpriteRGB_NoColorKey@CSprite@@QAEXHHHHHHK@Z 00410950 f   Sprite.obj
 0001:0000feb0       ?PutShiftSpriteFast@CSprite@@QAEXHHHHHK@Z 00410eb0 f   Sprite.obj
 0001:00010150       ?PutRevTransSprite@CSprite@@QAEXHHHKH@Z 00411150 f   Sprite.obj
 0001:000105c0       ?max_size@?$vector@HV?$allocator@H@std@@@std@@QBEIXZ 004115c0 f i Sprite.obj
 0001:000105d0       ?_Grow_to@?$vector@HV?$allocator@H@std@@@std@@IBEII@Z 004115d0 f i Sprite.obj
 0001:00010610       ?allocate@?$allocator@H@std@@QAEPAHI@Z 00411610 f i Sprite.obj
 0001:00010680       ??$_Cons_val@V?$allocator@H@std@@HAAH@std@@YAXAAV?$allocator@H@0@PAHAAH@Z 00411680 f i Sprite.obj
 0001:000106a0       ??$_Destroy_range@V?$allocator@H@std@@@std@@YAXPAH0AAV?$allocator@H@0@@Z 004116a0 f i Sprite.obj
 0001:000106b0       ?construct@?$allocator@H@std@@QAEXPAHABH@Z 004116b0 f i Sprite.obj
 0001:000106d0       ??$_Uninitialized_move@PAHPAHV?$allocator@H@std@@@std@@YAPAHPAH00AAV?$allocator@H@0@@Z 004116d0 f i Sprite.obj
 0001:00010710       ?PutSpriteFast@CSprite@@QAEXHHHK@Z 00411710 f   Sprite.obj
 0001:00010990       ?PutSpriteFastDst@CSprite@@QAEXPAUIDirectDrawSurface7@@HHHK@Z 00411990 f   Sprite.obj
 0001:00010c10       ?PutSpriteFastNoColorKey@CSprite@@QAEXHHHK@Z 00411c10 f   Sprite.obj
 0001:00010e90       ?PutSpriteFastNoColorKeyDst@CSprite@@QAEXPAUIDirectDrawSurface7@@HHHK@Z 00411e90 f   Sprite.obj
 0001:00011110       ?PutSpriteFastFrontBuffer@CSprite@@QAEXHHHK@Z 00412110 f   Sprite.obj
 0001:00011390       ?PutSpriteFastWidth@CSprite@@QAEXHHHHK@Z 00412390 f   Sprite.obj
 0001:00011620       ?PutSpriteFastHeight@CSprite@@QAEXHHHHK@Z 00412620 f   Sprite.obj
 0001:000118b0       ?PutShadowSprite@CSprite@@QAEXHHHK@Z 004128b0 f   Sprite.obj
 0001:00011bf0       ?PutShadowSpriteClip@CSprite@@QAEXHHHK@Z 00412bf0 f   Sprite.obj
 0001:00011ff0       ?PutTransSprite@CSprite@@QAEXHHHKH@Z 00412ff0 f   Sprite.obj
 0001:000124a0       ?PutTransSprite_NoColorKey@CSprite@@QAEXHHHKH@Z 004134a0 f   Sprite.obj
 0001:00012950       ?PutTransSprite70@CSprite@@QAEXHHHK@Z 00413950 f   Sprite.obj
 0001:00012e00       ?PutTransSprite70_NoColorKey@CSprite@@QAEXHHHK@Z 00413e00 f   Sprite.obj
 0001:000132b0       ?PutTransSprite50@CSprite@@QAEXHHHK@Z 004142b0 f   Sprite.obj
 0001:00013760       ?PutTransSprite50_NoColorKey@CSprite@@QAEXHHHK@Z 00414760 f   Sprite.obj
 0001:00013c10       ?PutTransSprite25@CSprite@@QAEXHHHK@Z 00414c10 f   Sprite.obj
 0001:000140c0       ?PutTransSprite25_NoColorKey@CSprite@@QAEXHHHK@Z 004150c0 f   Sprite.obj
 0001:00014570       ?PutTransSprite2@CSprite@@QAEXHHHK@Z 00415570 f   Sprite.obj
 0001:00014a00       ?PutShiftTransSprite2@CSprite@@QAEXHHHHHK@Z 00415a00 f   Sprite.obj
 0001:00014e90       ?PutFadeSprite@CSprite@@QAEXFFFK@Z 00415e90 f   Sprite.obj
 0001:00015210       ?PutFadeSpriteDst@CSprite@@QAEXPAGFFFFK@Z 00416210 f   Sprite.obj
 0001:00015580       ?_Destroy@?$vector@HV?$allocator@H@std@@@std@@IAEXPAH0@Z 00416580 f i Sprite.obj
 0001:00015590       ??$_Cons_val@V?$allocator@H@std@@HABH@std@@YAXAAV?$allocator@H@0@PAHABH@Z 00416590 f i Sprite.obj
 0001:000155b0       ??$_Umove@PAH@?$vector@HV?$allocator@H@std@@@std@@IAEPAHPAH00@Z 004165b0 f i Sprite.obj
 0001:000155f0       ?reserve@?$vector@HV?$allocator@H@std@@@std@@QAEXI@Z 004165f0 f i Sprite.obj
 0001:00015690       ?_Reserve@?$vector@HV?$allocator@H@std@@@std@@IAEXI@Z 00416690 f i Sprite.obj
 0001:00015710       ?push_back@?$vector@HV?$allocator@H@std@@@std@@QAEXABH@Z 00416710 f i Sprite.obj
 0001:00015790       ?ReadFramePositions@@YAXPAXAAV?$vector@HV?$allocator@H@std@@@std@@H@Z 00416790 f   Sprite.obj
 0001:00015940       ??0CTileSpr@@QAE@XZ        00416940 f   TileSpr.obj
 0001:00015960       ??1CTileSpr@@UAE@XZ        00416960 f   TileSpr.obj
 0001:00015970       ??_GCTileSpr@@UAEPAXI@Z    00416970 f i TileSpr.obj
 0001:00015970       ??_ECTileSpr@@UAEPAXI@Z    00416970 f i TileSpr.obj
 0001:000159a0       ??0YWSound@@QAE@XZ         004169a0 f   YWSound.obj
 0001:000159c0       ??1YWSound@@UAE@XZ         004169c0 f   YWSound.obj
 0001:000159e0       ?Create@YWSound@@QAE_NPAUHWND__@@@Z 004169e0 f   YWSound.obj
 0001:00015b30       ??_EYWSound@@UAEPAXI@Z     00416b30 f i YWSound.obj
 0001:00015b30       ??_GYWSound@@UAEPAXI@Z     00416b30 f i YWSound.obj
 0001:00015b70       ??0CMapData@@QAE@PAVCGame@@@Z 00416b70 f   MapData.obj
 0001:00017100       ??3CMapData@@SAXPAX@Z      00418100 f i MapData.obj
 0001:00017120       ?Init@CMapData@@QAEXXZ     00418120 f   MapData.obj
 0001:000171e0       ??1CMapData@@UAE@XZ        004181e0 f   MapData.obj
 0001:000172b0       ?_bDecodeMapInfo@CMapData@@QAEXPAD@Z 004182b0 f   MapData.obj
 0001:00017400       ?ShiftMapData@CMapData@@QAEXD@Z 00418400 f   MapData.obj
 0001:00017820       ?bGetIsLocateable@CMapData@@QAEHFF@Z 00418820 f   MapData.obj
 0001:00017b60       ?bIsTeleportLoc@CMapData@@QAEHFF@Z 00418b60 f   MapData.obj
 0001:00017be0       ?bSetOwner@CMapData@@QAIHGHHHHHHFFFFHHHPADFFFFHH@Z 00418be0 f   MapData.obj
 0001:000194b0       ?bGetOwner@CMapData@@QAIHFFPAFPAD0000PAH22111200@Z 0041a4b0 f   MapData.obj
 0001:00019610       ?getChatMsgIndex@CMapData@@QBEHG@Z 0041a610 f   MapData.obj
 0001:000196a0       ?iObjectFrameCounter@CMapData@@QAEHPADFF@Z 0041a6a0 f   MapData.obj
 0001:00020010       ?bSetItem@CMapData@@QAEHFFFDKH@Z 00421010 f   MapData.obj
 0001:00020280       ?bSetDeadOwner@CMapData@@QAIHGFFFDFFFFHHHPAD@Z 00421280 f   MapData.obj
 0001:00020700       ?bSetChatMsgOwner@CMapData@@QAIHGFFH@Z 00421700 f   MapData.obj
 0001:00020930       ?ClearChatMsg@CMapData@@QAEXFF@Z 00421930 f   MapData.obj
 0001:00020a20       ?ClearDeadChatMsg@CMapData@@QAEXFF@Z 00421a20 f   MapData.obj
 0001:00020a70       ?bGetOwner@CMapData@@QAIHFFPADPAFPAHPAG1@Z 00421a70 f   MapData.obj
 0001:00020b50       ?bSetDynamicObject@CMapData@@QAEHFFGFH@Z 00421b50 f   MapData.obj
 0001:00020f60       ?GetOwnerStatusByObjectID@CMapData@@QAEXGPAD0PAF111PAH220@Z 00421f60 f   MapData.obj
 0001:00021040       ??_GCMapData@@UAEPAXI@Z    00422040 f i MapData.obj
 0001:00021040       ??_ECMapData@@UAEPAXI@Z    00422040 f i MapData.obj
 0001:00021080       ?OpenMapDataFile@CMapData@@QAEXPAD@Z 00422080 f   MapData.obj
 0001:00021290       ??0CTile@@QAE@XZ           00422290 f   Tile.obj
 0001:00021310       ??1CTile@@UAE@XZ           00422310 f   Tile.obj
 0001:00021320       ?Clear@CTile@@QAEXXZ       00422320 f   Tile.obj
 0001:000213e0       ??_GCTile@@UAEPAXI@Z       004223e0 f i Tile.obj
 0001:000213e0       ??_ECTile@@UAEPAXI@Z       004223e0 f i Tile.obj
 0001:00021410       ?SetupButton@CButton@CDialogBox@@QAEXFFFFD@Z 00422410 f i DialogBox.obj
 0001:00021450       ?IsTop@CDialogBox@@QBE_NXZ 00422450 f i DialogBox.obj
 0001:00021460       ?HasBackground@CDialogBox@@QBE_NAAH0@Z 00422460 f   DialogBox.obj
 0001:000214a0       ?HasTitleText@CDialogBox@@QBE_NAAH@Z 004224a0 f   DialogBox.obj
 0001:000214d0       ?GetTrans@CDialogBox@@QBE_NXZ 004224d0 f   DialogBox.obj
 0001:000214e0       ?GetMode@CDialogBox@@QBEDXZ 004224e0 f   DialogBox.obj
 0001:000214f0       ?AddButton@CDialogBox@@QAEXFFFFD@Z 004224f0 f   DialogBox.obj
 0001:00021540       ?AddButtonList@CDialogBox@@QAEXFFFFDDF@Z 00422540 f   DialogBox.obj
 0001:000215f0       ?AddScrollBar@CDialogBox@@QAEXFFFFD@Z 004225f0 f   DialogBox.obj
 0001:00021640       ?OnButton@CDialogBox@@QBEDXZ 00422640 f   DialogBox.obj
 0001:000216c0       ?IsOnScrollBar@CDialogBox@@QBE_NXZ 004226c0 f   DialogBox.obj
 0001:000216e0       ?HandleScroll@CDialogBox@@QAE?AUPoint@@HH@Z 004226e0 f   DialogBox.obj
 0001:00021910       ?ClearButtons@CDialogBox@@QAEXXZ 00422910 f   DialogBox.obj
 0001:00021920       ?OnDialogBox@CDialogBox@@QBE_NXZ 00422920 f   DialogBox.obj
 0001:00021990       ?GetButton@CDialogBox@@QBE?BUtagRECT@@H@Z 00422990 f   DialogBox.obj
 0001:000219f0       ?ButtonX@CDialogBox@@QBE?BHH@Z 004229f0 f   DialogBox.obj
 0001:00021a20       ?ButtonY@CDialogBox@@QBE?BHH@Z 00422a20 f   DialogBox.obj
 0001:00021a50       ?ValidateButtons@CDialogBox@@QBEXXZ 00422a50 f   DialogBox.obj
 0001:00021a60       ?MoveOnScreen@CDialogBox@@QAEXFF@Z 00422a60 f   DialogBox.obj
 0001:00021b30       ?CentreOverPoint@CDialogBox@@QAEXFF@Z 00422b30 f   DialogBox.obj
 0001:00021c10       ?SetMode@CDialogBox@@QAEXD@Z 00422c10 f   DialogBox.obj
 0001:00025bd0       ??1?$_Vector_val@UMailItemSend@@V?$allocator@UMailItemSend@@@std@@@std@@QAE@XZ 00426bd0 f i DialogBox.obj
 0001:00025be0       ??0?$allocator@UMailItemSend@@@std@@QAE@XZ 00426be0 f i DialogBox.obj
 0001:00025bf0       ?_Inside@?$vector@UtagRECT@@V?$allocator@UtagRECT@@@std@@@std@@IBE_NPBUtagRECT@@@Z 00426bf0 f i DialogBox.obj
 0001:00025c20       ?_Orphan_range@?$vector@UtagRECT@@V?$allocator@UtagRECT@@@std@@@std@@IBEXPAUtagRECT@@0@Z 00426c20 f i DialogBox.obj
 0001:00025c30       ?_Local@?$_Function_impl0@X@tr1@std@@ABE_NXZ 00426c30 f i DialogBox.obj
 0001:00025c40       ?_Set@?$_Function_impl0@X@tr1@std@@AAEXPAV?$_Impl_base0@X@23@@Z 00426c40 f i DialogBox.obj
 0001:00025c50       ??0?$allocator@UMailItemSend@@@std@@QAE@ABV01@@Z 00426c50 f i DialogBox.obj
 0001:00025c60       ?deallocate@?$allocator@UMailItemSend@@@std@@QAEXPAUMailItemSend@@I@Z 00426c60 f i DialogBox.obj
 0001:00025c80       ?capacity@?$vector@UtagRECT@@V?$allocator@UtagRECT@@@std@@@std@@QBEIXZ 00426c80 f i DialogBox.obj
 0001:00025c90       ?size@?$vector@UtagRECT@@V?$allocator@UtagRECT@@@std@@@std@@QBEIXZ 00426c90 f i DialogBox.obj
 0001:00025ca0       ?_Xlen@?$vector@UtagRECT@@V?$allocator@UtagRECT@@@std@@@std@@IBEXXZ 00426ca0 f i DialogBox.obj
 0001:00025cb0       ?deallocate@?$allocator@UtagRECT@@@std@@QAEXPAUtagRECT@@I@Z 00426cb0 f i DialogBox.obj
 0001:00025cd0       ?max_size@?$allocator@UtagRECT@@@std@@QBEIXZ 00426cd0 f i DialogBox.obj
 0001:00025ce0       ??$addressof@$$CBUtagRECT@@@std@@YAPBUtagRECT@@ABU1@@Z 00426ce0 f i DialogBox.obj
 0001:00025cf0       ??$_Allocate@UtagRECT@@@std@@YAPAUtagRECT@@IPAU1@@Z 00426cf0 f i DialogBox.obj
 0001:00025d60       ??$forward@AAUtagRECT@@@std@@YAAAUtagRECT@@AAU1@@Z 00426d60 f i DialogBox.obj
 0001:00025d70       ??$construct@AAUtagRECT@@@?$allocator@UtagRECT@@@std@@QAEXPAUtagRECT@@AAU2@@Z 00426d70 f i DialogBox.obj
 0001:00025da0       ??$forward@ABUtagRECT@@@std@@YAABUtagRECT@@ABU1@@Z 00426da0 f i DialogBox.obj
 0001:00025db0       ??$_Ptr_cat@UMailItemSend@@U1@@std@@YA?AU_Nonscalar_ptr_iterator_tag@0@PAUMailItemSend@@0@Z 00426db0 f i DialogBox.obj
 0001:00025dc0       ??$_Ptr_cat@UtagRECT@@U1@@std@@YA?AU_Nonscalar_ptr_iterator_tag@0@PAUtagRECT@@0@Z 00426dc0 f i DialogBox.obj
 0001:00025dd0       ??$_Construct@UtagRECT@@ABU1@@std@@YAXPAUtagRECT@@ABU1@@Z 00426dd0 f i DialogBox.obj
 0001:00025e00       ??$_Val_type@PAUtagRECT@@@std@@YAPAUtagRECT@@PAU1@@Z 00426e00 f i DialogBox.obj
 0001:00025e10       ??$_Destroy@UMailItemSend@@@std@@YAXPAUMailItemSend@@@Z 00426e10 f i DialogBox.obj
 0001:00025e20       ??$_Destroy@UtagRECT@@@std@@YAXPAUtagRECT@@@Z 00426e20 f i DialogBox.obj
 0001:00025e30       ??$forward@UtagRECT@@@std@@YA$$QAUtagRECT@@AAU1@@Z 00426e30 f i DialogBox.obj
 0001:00025e40       ?_Reset@?$_Function_impl0@X@tr1@std@@IAEXXZ 00426e40 f i DialogBox.obj
 0001:00025e50       ?_Reset@?$_Function_impl0@X@tr1@std@@IAEXABV123@@Z 00426e50 f i DialogBox.obj
 0001:00025ea0       ?_Tidy@?$_Function_impl0@X@tr1@std@@IAEXXZ 00426ea0 f i DialogBox.obj
 0001:00025ed0       ??0?$_Vector_val@UMailItemSend@@V?$allocator@UMailItemSend@@@std@@@std@@QAE@V?$allocator@UMailItemSend@@@1@@Z 00426ed0 f i DialogBox.obj
 0001:00025ef0       ?max_size@?$vector@UtagRECT@@V?$allocator@UtagRECT@@@std@@@std@@QBEIXZ 00426ef0 f i DialogBox.obj
 0001:00025f00       ?_Grow_to@?$vector@UtagRECT@@V?$allocator@UtagRECT@@@std@@@std@@IBEII@Z 00426f00 f i DialogBox.obj
 0001:00025f40       ?allocate@?$allocator@UtagRECT@@@std@@QAEPAUtagRECT@@I@Z 00426f40 f i DialogBox.obj
 0001:00025fb0       ??$_Cons_val@V?$allocator@UtagRECT@@@std@@UtagRECT@@AAU3@@std@@YAXAAV?$allocator@UtagRECT@@@0@PAUtagRECT@@AAU2@@Z 00426fb0 f i DialogBox.obj
 0001:00025fe0       ?construct@?$allocator@UtagRECT@@@std@@QAEXPAUtagRECT@@ABU3@@Z 00426fe0 f i DialogBox.obj
 0001:00026010       ?destroy@?$allocator@UMailItemSend@@@std@@QAEXPAUMailItemSend@@@Z 00427010 f i DialogBox.obj
 0001:00026020       ?destroy@?$allocator@UtagRECT@@@std@@QAEXPAUtagRECT@@@Z 00427020 f i DialogBox.obj
 0001:00026030       ?construct@?$allocator@UtagRECT@@@std@@QAEXPAUtagRECT@@$$QAU3@@Z 00427030 f i DialogBox.obj
 0001:00026060       ??0?$function@$$A6AXXZ@tr1@std@@QAE@XZ 00427060 f i DialogBox.obj
 0001:00026070       ??1?$function@$$A6AXXZ@tr1@std@@QAE@XZ 00427070 f i DialogBox.obj
 0001:000260a0       ??4?$function@$$A6AXXZ@tr1@std@@QAEAAV012@ABV012@@Z 004270a0 f i DialogBox.obj
 0001:00026120       ??4?$function@$$A6AXXZ@tr1@std@@QAEAAV012@H@Z 00427120 f i DialogBox.obj
 0001:00026160       ??0?$vector@UMailItemSend@@V?$allocator@UMailItemSend@@@std@@@std@@QAE@XZ 00427160 f i DialogBox.obj
 0001:00026170       ??$_Cons_val@V?$allocator@UtagRECT@@@std@@UtagRECT@@ABU3@@std@@YAXAAV?$allocator@UtagRECT@@@0@PAUtagRECT@@ABU2@@Z 00427170 f i DialogBox.obj
 0001:000261a0       ??$_Dest_val@V?$allocator@UMailItemSend@@@std@@UMailItemSend@@@std@@YAXAAV?$allocator@UMailItemSend@@@0@PAUMailItemSend@@@Z 004271a0 f i DialogBox.obj
 0001:000261b0       ??$_Dest_val@V?$allocator@UtagRECT@@@std@@UtagRECT@@@std@@YAXAAV?$allocator@UtagRECT@@@0@PAUtagRECT@@@Z 004271b0 f i DialogBox.obj
 0001:000261c0       ??$_Cons_val@V?$allocator@UtagRECT@@@std@@UtagRECT@@U3@@std@@YAXAAV?$allocator@UtagRECT@@@0@PAUtagRECT@@$$QAU2@@Z 004271c0 f i DialogBox.obj
 0001:000261f0       ?SetupDialog@CDialogBox@@QAEXDFFFFFHH_N@Z 004271f0 f   DialogBox.obj
 0001:00026380       ?SetupHandlers@CDialogBox@@QAEXV?$function@$$A6AXXZ@tr1@std@@000@Z 00427380 f   DialogBox.obj
 0001:000265f0       ??$_Destroy_range@V?$allocator@UMailItemSend@@@std@@@std@@YAXPAUMailItemSend@@0AAV?$allocator@UMailItemSend@@@0@U_Nonscalar_ptr_iterator_tag@0@@Z 004275f0 f i DialogBox.obj
 0001:00026600       ??$_Destroy_range@V?$allocator@UtagRECT@@@std@@@std@@YAXPAUtagRECT@@0AAV?$allocator@UtagRECT@@@0@U_Nonscalar_ptr_iterator_tag@0@@Z 00427600 f i DialogBox.obj
 0001:00026610       ??$_Uninit_move@PAUtagRECT@@PAU1@V?$allocator@UtagRECT@@@std@@U1@@std@@YAPAUtagRECT@@PAU1@00AAV?$allocator@UtagRECT@@@0@0U_Nonscalar_ptr_iterator_tag@0@@Z 00427610 f i DialogBox.obj
 0001:00026660       ??$_Destroy_range@V?$allocator@UMailItemSend@@@std@@@std@@YAXPAUMailItemSend@@0AAV?$allocator@UMailItemSend@@@0@@Z 00427660 f i DialogBox.obj
 0001:00026670       ??$_Destroy_range@V?$allocator@UtagRECT@@@std@@@std@@YAXPAUtagRECT@@0AAV?$allocator@UtagRECT@@@0@@Z 00427670 f i DialogBox.obj
 0001:00026680       ??$_Uninitialized_move@PAUtagRECT@@PAU1@V?$allocator@UtagRECT@@@std@@@std@@YAPAUtagRECT@@PAU1@00AAV?$allocator@UtagRECT@@@0@@Z 00427680 f i DialogBox.obj
 0001:000266b0       ?_Destroy@?$vector@UMailItemSend@@V?$allocator@UMailItemSend@@@std@@@std@@IAEXPAUMailItemSend@@0@Z 004276b0 f i DialogBox.obj
 0001:000266c0       ?_Destroy@?$vector@UtagRECT@@V?$allocator@UtagRECT@@@std@@@std@@IAEXPAUtagRECT@@0@Z 004276c0 f i DialogBox.obj
 0001:000266d0       ??$_Umove@PAUtagRECT@@@?$vector@UtagRECT@@V?$allocator@UtagRECT@@@std@@@std@@IAEPAUtagRECT@@PAU2@00@Z 004276d0 f i DialogBox.obj
 0001:00026700       ?_Tidy@?$vector@UMailItemSend@@V?$allocator@UMailItemSend@@@std@@@std@@IAEXXZ 00427700 f i DialogBox.obj
 0001:00026740       ?reserve@?$vector@UtagRECT@@V?$allocator@UtagRECT@@@std@@@std@@QAEXI@Z 00427740 f i DialogBox.obj
 0001:00026850       ??1?$vector@UMailItemSend@@V?$allocator@UMailItemSend@@@std@@@std@@QAE@XZ 00427850 f i DialogBox.obj
 0001:00026890       ?_Reserve@?$vector@UtagRECT@@V?$allocator@UtagRECT@@@std@@@std@@IAEXI@Z 00427890 f i DialogBox.obj
 0001:00026910       ??0CDialogBox@@QAE@XZ      00427910 f   DialogBox.obj
 0001:00026940       ??1CDialogBox@@QAE@XZ      00427940 f   DialogBox.obj
 0001:00026a70       ?push_back@?$vector@UtagRECT@@V?$allocator@UtagRECT@@@std@@@std@@QAEXABUtagRECT@@@Z 00427a70 f i DialogBox.obj
 0001:00026af0       ?GetAllButtons@CDialogBox@@QBEXPAV?$vector@UtagRECT@@V?$allocator@UtagRECT@@@std@@@std@@@Z 00427af0 f   DialogBox.obj
 0001:00026cd0       ??0CMouseInterface@@QAE@XZ 00427cd0 f   MouseInterface.obj
 0001:00026d70       ??1CMouseInterface@@UAE@XZ 00427d70 f   MouseInterface.obj
 0001:00026db0       ?AddRect@CMouseInterface@@QAEXJJJJ@Z 00427db0 f   MouseInterface.obj
 0001:00026e20       ?AddRect@CMouseInterface@@QAEXPAUtagRECT@@@Z 00427e20 f   MouseInterface.obj
 0001:00026e90       ?iGetStatus@CMouseInterface@@QAEHHHDPAD@Z 00427e90 f   MouseInterface.obj
 0001:00026f50       ??_ECMouseInterface@@UAEPAXI@Z 00427f50 f i MouseInterface.obj
 0001:00026f50       ??_GCMouseInterface@@UAEPAXI@Z 00427f50 f i MouseInterface.obj
 0001:00026fc0       ??2CGame@@SAPAXI@Z         00427fc0 f i Wmain.obj
 0001:00026fe0       ??3CGame@@SAXPAX@Z         00427fe0 f i Wmain.obj
 0001:00027000       ?InitInstance@@YAHPAUHINSTANCE__@@H@Z 00428000 f   Wmain.obj
 0001:00027120       ?EventLoop@@YAXXZ          00428120 f   Wmain.obj
 0001:000271d0       ?_TimerFunc@@YGXIIKKK@Z    004281d0 f   Wmain.obj
 0001:00027200       ?_StartTimer@@YAIK@Z       00428200 f   Wmain.obj
 0001:00027250       ?_StopTimer@@YAXI@Z        00428250 f   Wmain.obj
 0001:00027290       ?GetRegKey@@YAJPAUHKEY__@@PBDPAD@Z 00428290 f   Wmain.obj
 0001:00027340       ?GoHomepage@@YAXXZ         00428340 f   Wmain.obj
 0001:00027490       ?KeyboardProc@@YGJHIJ@Z    00428490 f   Wmain.obj
 0001:00027530       ?CheckCheating@@YA_NXZ     00428530 f   Wmain.obj
 0001:00027650       ?SetKeyboardHook@@YAX_N@Z  00428650 f   Wmain.obj
 0001:000276a0       ?OnDestroy@@YAXXZ          004286a0 f   Wmain.obj
 0001:00027720       ?Initialize@@YAXPAD@Z      00428720 f   Wmain.obj
 0001:00027950       ?WndProc@@YGJPAUHWND__@@IIJ@Z 00428950 f   Wmain.obj
 0001:00027df0       ?InitApplication@@YAHPAUHINSTANCE__@@@Z 00428df0 f   Wmain.obj
 0001:00027e80       _WinMain@16                00428e80 f   Wmain.obj
 0001:000283b0       ??0CMsg@@QAE@DPADK@Z       004293b0 f   Msg.obj
 0001:00028470       ??1CMsg@@UAE@XZ            00429470 f   Msg.obj
 0001:00028490       ?RemovePred@CMsg@@SA_NPBV1@@Z 00429490 f   Msg.obj
 0001:000284b0       ??_ECMsg@@UAEPAXI@Z        004294b0 f i Msg.obj
 0001:000284b0       ??_GCMsg@@UAEPAXI@Z        004294b0 f i Msg.obj
 0001:000284f0       ??0XSocket@@QAE@PAUHWND__@@H@Z 004294f0 f   XSocket.obj
 0001:00028590       ??3XSocket@@SAXPAX@Z       00429590 f i XSocket.obj
 0001:000285b0       ?bInitBufferSize@XSocket@@QAEHK@Z 004295b0 f   XSocket.obj
 0001:00028630       ?bBlockConnect@XSocket@@QAEHPADHI@Z 00429630 f   XSocket.obj
 0001:000287d0       ?bConnect@XSocket@@QAEHPADHI_N@Z 004297d0 f   XSocket.obj
 0001:000289b0       ?_iOnRead@XSocket@@QAEHXZ  004299b0 f   XSocket.obj
 0001:00028ad0       ?_iSend_ForInternalUse@XSocket@@QAEHPADH@Z 00429ad0 f   XSocket.obj
 0001:00028b40       ?_iRegisterUnsentData@XSocket@@QAEHPADH@Z 00429b40 f   XSocket.obj
 0001:00028c00       ?_iSendUnsentData@XSocket@@QAEHXZ 00429c00 f   XSocket.obj
 0001:00028db0       ?bListen@XSocket@@QAEHPADHI@Z 00429db0 f   XSocket.obj
 0001:00028ef0       ?bAccept@XSocket@@QAEHPAV1@I@Z 00429ef0 f   XSocket.obj
 0001:00028ff0       ?_CloseConn@XSocket@@QAEXXZ 00429ff0 f   XSocket.obj
 0001:00029060       ?pGetRcvDataPointer@XSocket@@QAEPADPAKPAD@Z 0042a060 f   XSocket.obj
 0001:000290e0       ?iGetPeerAddress@XSocket@@QAEHPAD@Z 0042a0e0 f   XSocket.obj
 0001:00029160       ?iSendMsgBlockingMode@XSocket@@QAEHPADH@Z 0042a160 f   XSocket.obj
 0001:000291b0       ?GetMACaddress@XSocket@@SAXPAD@Z 0042a1b0 f   XSocket.obj
 0001:000293b0       ??1XSocket@@UAE@XZ         0042a3b0 f   XSocket.obj
 0001:00029480       ?iOnSocketEvent@XSocket@@QAEHIJ@Z 0042a480 f   XSocket.obj
 0001:000295b0       ?_iSend@XSocket@@QAEHPADHH@Z 0042a5b0 f   XSocket.obj
 0001:000296d0       ?iSendMsg@XSocket@@QAEHPADKD@Z 0042a6d0 f   XSocket.obj
 0001:000297c0       ?SendRawMsg@XSocket@@QAEHPADK@Z 0042a7c0 f   XSocket.obj
 0001:00029840       ??_EXSocket@@UAEPAXI@Z     0042a840 f i XSocket.obj
 0001:00029840       ??_GXSocket@@UAEPAXI@Z     0042a840 f i XSocket.obj
 0001:00029880       _ceilf                     0042a880 f i Game.obj
 0001:000298b0       ?ceil@@YAMM@Z              0042a8b0 f i Game.obj
 0001:000298f0       ?find@?$char_traits@D@std@@SAPBDPBDIABD@Z 0042a8f0 f i Game.obj
 0001:00029920       ?to_int_type@?$char_traits@D@std@@SAHABD@Z 0042a920 f i Game.obj
 0001:00029930       ?eq_int_type@?$char_traits@D@std@@SA_NABH0@Z 0042a930 f i Game.obj
 0001:00029950       ?eof@?$char_traits@D@std@@SAHXZ 0042a950 f i Game.obj
 0001:00029960       ??0runtime_error@std@@QAE@PBD@Z 0042a960 f i Game.obj
 0001:00029990       ??1runtime_error@std@@UAE@XZ 0042a990 f i Game.obj
 0001:000299a0       ?_Getctype@_Locinfo@std@@QBE?AU_Ctypevec@@XZ 0042a9a0 f i Game.obj
 0001:000299e0       ??Bid@locale@std@@QAEIXZ   0042a9e0 f i Game.obj
 0001:00029a30       ?_Incref@facet@locale@std@@QAEXXZ 0042aa30 f i Game.obj
 0001:00029a70       ?_Decref@facet@locale@std@@QAEPAV123@XZ 0042aa70 f i Game.obj
 0001:00029ac0       ?_Register@facet@locale@std@@QAEXXZ 0042aac0 f i Game.obj
 0001:00029ad0       ??1facet@locale@std@@UAE@XZ 0042aad0 f i Game.obj
 0001:00029ae0       ??0facet@locale@std@@IAE@I@Z 0042aae0 f i Game.obj
 0001:00029b00       ??0locale@std@@QAE@ABV01@@Z 0042ab00 f i Game.obj
 0001:00029b50       ??0locale@std@@QAE@XZ      0042ab50 f i Game.obj
 0001:00029ba0       ??1locale@std@@QAE@XZ      0042aba0 f i Game.obj
 0001:00029c00       ?_Getfacet@locale@std@@QBEPBVfacet@12@I@Z 0042ac00 f i Game.obj
 0001:00029c50       ??_Efacet@locale@std@@UAEPAXI@Z 0042ac50 f i Game.obj
 0001:00029c50       ??_Gfacet@locale@std@@UAEPAXI@Z 0042ac50 f i Game.obj
 0001:00029c80       ??0ctype_base@std@@QAE@I@Z 0042ac80 f i Game.obj
 0001:00029ca0       ??1ctype_base@std@@UAE@XZ  0042aca0 f i Game.obj
 0001:00029cb0       ??_Ectype_base@std@@UAEPAXI@Z 0042acb0 f i Game.obj
 0001:00029cb0       ??_Gctype_base@std@@UAEPAXI@Z 0042acb0 f i Game.obj
 0001:00029ce0       ?widen@?$ctype@D@std@@QBEDD@Z 0042ace0 f i Game.obj
 0001:00029cf0       ?_Init@?$ctype@D@std@@IAEXABV_Locinfo@2@@Z 0042acf0 f i Game.obj
 0001:00029d30       ??0error_code@std@@QAE@HABVerror_category@1@@Z 0042ad30 f i Game.obj
 0001:00029d50       ?make_error_code@std@@YA?AVerror_code@1@W4io_errc@31@@Z 0042ad50 f i Game.obj
 0001:00029d70       ?_Makestr@system_error@std@@AAEXXZ 0042ad70 f i Game.obj
 0001:00029d80       ??1system_error@std@@UAE@XZ 0042ad80 f i Game.obj
 0001:00029d90       ?rdstate@ios_base@std@@QBEHXZ 0042ad90 f i Game.obj
 0001:00029da0       ?good@ios_base@std@@QBE_NXZ 0042ada0 f i Game.obj
 0001:00029db0       ?fail@ios_base@std@@QBE_NXZ 0042adb0 f i Game.obj
 0001:00029dc0       ?flags@ios_base@std@@QBEHXZ 0042adc0 f i Game.obj
 0001:00029dd0       ?width@ios_base@std@@QBE_JXZ 0042add0 f i Game.obj
 0001:00029de0       ?width@ios_base@std@@QAE_J_J@Z 0042ade0 f i Game.obj
 0001:00029e10       ?getloc@ios_base@std@@QBE?AVlocale@2@XZ 0042ae10 f i Game.obj
 0001:00029e60       ??1ios_base@std@@UAE@XZ    0042ae60 f i Game.obj
 0001:00029e80       ??0ios_base@std@@IAE@XZ    0042ae80 f i Game.obj
 0001:00029e90       ??_Gios_base@std@@UAEPAXI@Z 0042ae90 f i Game.obj
 0001:00029e90       ??_Eios_base@std@@UAEPAXI@Z 0042ae90 f i Game.obj
 0001:00029ed0       ?randn_notrig@@YANNN@Z     0042aed0 f i Game.obj
 0001:00029fc0       ?ndice@@YAJJJ@Z            0042afc0 f i Game.obj
 0001:0002a010       ?dice@@YAJJJ@Z             0042b010 f i Game.obj
 0001:0002a0c0       ??2XSocket@@SAPAXI@Z       0042b0c0 f i Game.obj
 0001:0002a0e0       ??2CSprite@@SAPAXI@Z       0042b0e0 f i Game.obj
 0001:0002a100       ?OrderPred@CMsg@@SA_NPBV1@0@Z 0042b100 f i Game.obj
 0001:0002a120       ?SetPred@CMsg@@SAXW4chatTypes@@@Z 0042b120 f i Game.obj
 0001:0002a130       ??2CMapData@@SAPAXI@Z      0042b130 f i Game.obj
 0001:0002a150       ??MCItem@@QBE_NPAV0@@Z     0042b150 f i Game.obj
 0001:0002a1b0       ?IsVortexed@CItem@@QBE_NXZ 0042b1b0 f i Game.obj
 0001:0002a1c0       ??RItemMapComp@@QBE_NPAVCItem@@0@Z 0042b1c0 f i Game.obj
 0001:0002a220       ?IsScrollable@CDialogBox@@QBE_NXZ 0042b220 f i Game.obj
 0001:0002a230       ?SetTop@CDialogBox@@QAEX_N@Z 0042b230 f i Game.obj
 0001:0002a240       ?ReadSettings@CGame@@QAEXXZ 0042b240 f   Game.obj
 0001:0002a330       ?ReadSettingsVar@CGame@@QAEKPBDPAD@Z 0042b330 f   Game.obj
 0001:0002a440       ?WriteSettings@CGame@@QAEXXZ 0042b440 f   Game.obj
 0001:0002a4d0       ?WriteSettingsVar@CGame@@QAEXPBDKPAD@Z 0042b4d0 f   Game.obj
 0001:0002a590       ?SetupDialogBox@CGame@@QAEXHFFFHH_N@Z 0042b590 f   Game.obj
 0001:0002a600       ?CalcViewPoint@CGame@@QAEXXZ 0042b600 f   Game.obj
 0001:0002a7c0       ?RestoreSprites@CGame@@QAEXXZ 0042b7c0 f   Game.obj
 0001:0002a7f0       ?_bCheckMoveable@CGame@@QAEHFF@Z 0042b7f0 f   Game.obj
 0001:0002a800       ?_SetItemOrder@CGame@@QAEXDD@Z 0042b800 f   Game.obj
 0001:0002a8b0       ?ClearGuildNameList@CGame@@QAEXXZ 0042b8b0 f   Game.obj
 0001:0002a900       ?_GetHairColorRGB@CGame@@QAEXHPAH00@Z 0042b900 f   Game.obj
 0001:0002abd0       ?CreateNewGuildResponseHandler@CGame@@QAEXPAD@Z 0042bbd0 f   Game.obj
 0001:0002ac40       ?InitPlayerCharacteristics@CGame@@QAEXPAD@Z 0042bc40 f   Game.obj
 0001:0002af30       ?_PutGuildOperationList@CGame@@QAEXPADD@Z 0042bf30 f   Game.obj
 0001:0002afe0       ?_ShiftGuildOperationList@CGame@@QAEXXZ 0042bfe0 f   Game.obj
 0001:0002b090       ?SetItemCount@CGame@@QAEXPADK@Z 0042c090 f   Game.obj
 0001:0002b170       ?AddEventList@CGame@@QAEXQBDDH@Z 0042c170 f   Game.obj
 0001:0002b310       ?DrawEffectLights@CGame@@QAEXXZ 0042c310 f   Game.obj
 0001:0002ba50       ?__bDecodeContentsAndBuildItemForSaleList@CGame@@QAEHPAD@Z 0042ca50 f   Game.obj
 0001:0002be90       ?PutString_SprFont@CGame@@QAEXHHPADFFF@Z 0042ce90 f   Game.obj
 0001:0002c030       ?PutString_SprFont2@CGame@@QAEXHHPADFFF@Z 0042d030 f   Game.obj
 0001:0002c250       ?PutString_SprFont3@CGame@@QAEXHHPADFFFHH@Z 0042d250 f   Game.obj
 0001:0002c660       ?PutString_SprNum@CGame@@QAEXHHPADFFF@Z 0042d660 f   Game.obj
 0001:0002c890       ?PutString@CGame@@QAEXHHPBDKHDH@Z 0042d890 f   Game.obj
 0001:0002cb10       ?PutString@CGame@@QAEXHHPBDK@Z 0042db10 f   Game.obj
 0001:0002cb60       ?PutString2@CGame@@QAEXHHPADFFF@Z 0042db60 f   Game.obj
 0001:0002cc00       ?PutString3@CGame@@QAEXHHPBDK@Z 0042dc00 f   Game.obj
 0001:0002cc60       ?PutAlignedString@CGame@@QAEXHHHQBDFFF@Z 0042dc60 f   Game.obj
 0001:0002cd00       ?PutAlignedString@CGame@@QAEXHHHQBDK@Z 0042dd00 f   Game.obj
 0001:0002cd80       ?PutAlignedString@CGame@@QAEXHHHQBD_NK@Z 0042dd80 f   Game.obj
 0001:0002ce10       ?PutAlignedString@CGame@@QAEXPBUtagRECT@@QBDK@Z 0042de10 f   Game.obj
 0001:0002ce50       ?PutStringRight@CGame@@QAEXHHHQBDK@Z 0042de50 f   Game.obj
 0001:0002cee0       ?PutStringLeft@CGame@@QAEXHHHQBDK_N@Z 0042dee0 f   Game.obj
 0001:0002cf70       ?PutStringLeft@CGame@@QAEXPBUtagRECT@@QBDK_N@Z 0042df70 f   Game.obj
 0001:0002cfc0       ?bCheckImportantFile@CGame@@QAEHXZ 0042dfc0 f   Game.obj
 0001:0002d0b0       ?_bGetIsStringIsNumber@CGame@@QAEHPAD@Z 0042e0b0 f   Game.obj
 0001:0002d120       ?_ReadMapData@CGame@@QAEXFFPAD@Z 0042e120 f   Game.obj
 0001:0002d470       ?_InitOnCreateNewCharacter@CGame@@QAEXXZ 0042e470 f   Game.obj
 0001:0002d520       ?ClearContents_OnCreateNewAccount@CGame@@QAEXXZ 0042e520 f   Game.obj
 0001:0002d620       ?ChangeGameMode@CGame@@QAEXD@Z 0042e620 f   Game.obj
 0001:0002d6a0       ?bReadIp@CGame@@QAEHXZ     0042e6a0 f   Game.obj
 0001:0002d710       ?bReadLoginConfigFile@CGame@@QAEHPAD@Z 0042e710 f   Game.obj
 0001:0002daf0       ?ReleaseUnusedSprites@CGame@@QAEXXZ 0042eaf0 f   Game.obj
 0001:0002dc90       ?ReleaseTimeoverChatMsg@CGame@@QAEXXZ 0042ec90 f   Game.obj
 0001:0002dd50       ?MouseOverDialog@CGame@@QAEDXZ 0042ed50 f   Game.obj
 0001:0002ddb0       ?_Draw_CharacterBody@CGame@@QAEXFFF@Z 0042edb0 f   Game.obj
 0001:0002df00       ?iGetTopDialogBoxIndex@CGame@@QAEHXZ 0042ef00 f   Game.obj
 0001:0002df30       ?_LoadTextDlgContents@CGame@@QAEXH@Z 0042ef30 f   Game.obj
 0001:0002e280       ?_iLoadTextDlgContents2@CGame@@QAEHH@Z 0042f280 f   Game.obj
 0001:0002e5f0       ?AddMapStatusInfo@CGame@@QAEXPADH@Z 0042f5f0 f   Game.obj
 0001:0002e710       ?GetCharKind@CGame@@QAEHPADH@Z 0042f710 f   Game.obj
 0001:0002e750       ?ShowReceivedString@CGame@@QAEXH@Z 0042f750 f   Game.obj
 0001:0002e9d0       ?ClearInputString@CGame@@QAEXXZ 0042f9d0 f   Game.obj
 0001:0002e9f0       ?StartInputString@CGame@@QAEXHHEPADH@Z 0042f9f0 f   Game.obj
 0001:0002ea40       ?EndInputString@CGame@@QAEXXZ 0042fa40 f   Game.obj
 0001:0002eab0       ?ReceiveString@CGame@@QAEXPAD@Z 0042fab0 f   Game.obj
 0001:0002eae0       ?DrawNewDialogBox@CGame@@QAEXDHHHHH@Z 0042fae0 f   Game.obj
 0001:0002eb60       ?SetCameraShakingEffect@CGame@@QAEXFH@Z 0042fb60 f   Game.obj
 0001:0002eba0       ?SetTopMsg@CGame@@QAEXPBDE@Z 0042fba0 f   Game.obj
 0001:0002ec00       ?DrawTopMsg@CGame@@QAEXXZ  0042fc00 f   Game.obj
 0001:0002ed20       ?DrawAstoriaStats@CGame@@QAEXXZ 0042fd20 f   Game.obj
 0001:0002eff0       ?DrawDialogBox_IconPanel@CGame@@QAEXXZ 0042fff0 f   Game.obj
 0001:0002f430       ?DrawDialogBox_GaugePanel@CGame@@QAEXXZ 00430430 f   Game.obj
 0001:0002f8d0       ?DrawDialogBox_Text@CGame@@QAEXXZ 004308d0 f   Game.obj
 0001:0002fc40       ?DrawDialogBox_15AgeMsg@CGame@@QAEXXZ 00430c40 f   Game.obj
 0001:0002fc50       ?DrawDialogBox_WarningMsg@CGame@@QAEXXZ 00430c50 f   Game.obj
 0001:0002fe10       ?DrawDialogBox_NpcTalk@CGame@@QAEXXZ 00430e10 f   Game.obj
 0001:000301c0       ?TimeStamp@CGame@@QAEXPAD@Z 004311c0 f   Game.obj
 0001:00030220       ?PutAlignedLabel@CGame@@QAEXHHHQBD@Z 00431220 f   Game.obj
 0001:000302b0       ?PutAlignedLabel@CGame@@QAEXPBUtagRECT@@QBD@Z 004312b0 f   Game.obj
 0001:00030350       ?PutLabel@CGame@@QAEXABUtagRECT@@QBDW4Alignment@@@Z 00431350 f   Game.obj
 0001:00030460       ?PutStringLeft@CGame@@QAEXHHHQBD_N1@Z 00431460 f   Game.obj
 0001:00030500       ?ButtonString@CGame@@QAEXAAVCDialogBox@@HQBDW4Alignment@@@Z 00431500 f   Game.obj
 0001:00030620       ?ButtonStringToggle@CGame@@QAEXAAVCDialogBox@@HQBD_NW4Alignment@@@Z 00431620 f   Game.obj
 0001:00030730       ?CannotConstruct@CGame@@QAEXH@Z 00431730 f   Game.obj
 0001:000307f0       ?DisplayCommaNumber_G_cTxt@CGame@@QAEXH@Z 004317f0 f   Game.obj
 0001:00030910       ?DrawDialogBox_Inventory@CGame@@QAEXXZ 00431910 f   Game.obj
 0001:00030e80       ?_Draw_UpdateScreen_OnCreateNewAccount@CGame@@QAEXXZ 00431e80 f   Game.obj
 0001:00030fd0       ?ClearContents_OnSelectCharacter@CGame@@QAEXXZ 00431fd0 f   Game.obj
 0001:00030fe0       ?DlgBoxPress_Character@CGame@@QAEHXZ 00431fe0 f   Game.obj
 0001:00031ec0       ?CivilRightAdmissionHandler@CGame@@QAEXPAD@Z 00432ec0 f   Game.obj
 0001:00032010       ?DlgBoxClick_FeedBackCard@CGame@@QAEXXZ 00433010 f   Game.obj
 0001:00032020       ?_RemoveChatMsgListByObjectID@CGame@@QAEXH@Z 00433020 f   Game.obj
 0001:00032070       ?PlaySoundA@CGame@@QAEXDHHJ@Z 00433070 f   Game.obj
 0001:00032130       ?_DrawBlackRect@CGame@@QAEXH@Z 00433130 f   Game.obj
 0001:00032250       ?_bCheckItemByType@CGame@@QAEHD@Z 00433250 f   Game.obj
 0001:000322a0       ?DynamicObjectHandler@CGame@@QAEXPAD@Z 004332a0 f   Game.obj
 0001:00032300       ?_bIsItemOnHand@CGame@@QAEHXZ 00433300 f   Game.obj
 0001:000323d0       ?_iCalcTotalWeight@CGame@@QAEHXZ 004333d0 f   Game.obj
 0001:00032510       ?iGetLevelExp@CGame@@QAEHH@Z 00433510 f   Game.obj
 0001:00032570       ?_iGetTotalItemNum@CGame@@QAEHXZ 00433570 f   Game.obj
 0001:000325c0       ?GetGold@CGame@@QBEKXZ     004335c0 f   Game.obj
 0001:00032640       ?SetGold@CGame@@QAEXK@Z    00433640 f   Game.obj
 0001:000327f0       ?DrawWhetherEffects@CGame@@QAEXXZ 004337f0 f   Game.obj
 0001:00032b80       ?WhetherObjectFrameCounter@CGame@@QAEXXZ 00433b80 f   Game.obj
 0001:00032ef0       ?DrawLine@CGame@@QAEXHHHHHHH@Z 00433ef0 f   Game.obj
 0001:000331e0       ?DrawLine2@CGame@@QAEXHHHHHHH@Z 004341e0 f   Game.obj
 0001:000334d0       ?_DrawThunderEffect@CGame@@QAEXHHHHHHD@Z 004344d0 f   Game.obj
 0001:00033a30       ?_iGetAttackType@CGame@@QAEHXZ 00434a30 f   Game.obj
 0001:00033c90       ?_iGetWeaponSkillType@CGame@@QAEHXZ 00434c90 f   Game.obj
 0001:00033d60       ?NotifyMsg_AdminInfo@CGame@@QAEXPAD@Z 00434d60 f   Game.obj
 0001:00033e20       ?_iGetBankItemCount@CGame@@QAEHXZ 00434e20 f   Game.obj
 0001:00033e70       ?_bCheckBuildItemStatus@CGame@@QAEHXZ 00434e70 f   Game.obj
 0001:000344a0       ?_ItemDropHistory@CGame@@QAEHPAD@Z 004354a0 f   Game.obj
 0001:000345b0       ?_bCheckCurrentBuildItemStatus@CGame@@QAEHXZ 004355b0 f   Game.obj
 0001:00034a70       ?GetBisleEnemy@CGame@@QAEHPAD0@Z 00435a70 f   Game.obj
 0001:00034b90       ?_iGetFOE@CGame@@QAEHH_N@Z 00435b90 f   Game.obj
 0001:00034c10       ?_SetIlusionEffect@CGame@@QAEXH@Z 00435c10 f   Game.obj
 0001:00034cc0       ?ResponsePanningHandler@CGame@@QAEXPAD@Z 00435cc0 f   Game.obj
 0001:00034e50       ?bReadItemNameConfigFile@CGame@@QAEHXZ 00435e50 f   Game.obj
 0001:00035070       ?DrawDialogBox_Map@CGame@@QAEXXZ 00436070 f   Game.obj
 0001:000355f0       ?NotifyMsg_SetExchangeItem@CGame@@QAEXPAD@Z 004365f0 f   Game.obj
 0001:00035850       ?NotifyMsg_DownSkillIndexSet@CGame@@QAEXPAD@Z 00436850 f   Game.obj
 0001:00035880       ?NotifyMsg_FishChance@CGame@@QAEXPAD@Z 00436880 f   Game.obj
 0001:000358a0       ?NotifyMsg_TimeChange@CGame@@QAEXPAD@Z 004368a0 f   Game.obj
 0001:00035950       ?NotifyMsg_QuestContents@CGame@@QAEXPAD@Z 00436950 f   Game.obj
 0001:00035a40       ?NotifyMsg_PlayerProfile@CGame@@QAEXPAD@Z 00436a40 f   Game.obj
 0001:00035b70       ?NotifyMsg_NoticeMsg@CGame@@QAEXPAD@Z 00436b70 f   Game.obj
 0001:00035bd0       ?_LoadAgreementTextContents@CGame@@QAEXD@Z 00436bd0 f   Game.obj
 0001:00035f30       ?OnSysKeyUp@CGame@@QAEXI@Z 00436f30 f   Game.obj
 0001:00036000       ?ReserveFightzoneResponseHandler@CGame@@QAEXPAD@Z 00437000 f   Game.obj
 0001:00036120       ?FindGuildName@CGame@@QAEHPADPAH@Z 00437120 f   Game.obj
 0001:000362e0       ?DrawVersion@CGame@@QAEXH@Z 004372e0 f   Game.obj
 0001:00036410       ?GetOfficialMapName@CGame@@QAEDQBDPAD@Z 00437410 f   Game.obj
 0001:00038700       ?bCheckItemOperationEnabled@CGame@@QAEHD@Z 00439700 f   Game.obj
 0001:00038820       ?GetNpcName@CGame@@QAEXFPAD@Z 00439820 f   Game.obj
 0001:00039e90       ?GetItemName@CGame@@QAEXPAVCItem@@PAD11@Z 0043ae90 f   Game.obj
 0001:0003ab10       ?GetItemName@CGame@@QAEXPADKK000@Z 0043bb10 f   Game.obj
 0001:0003b790       ?_CalcSocketClosed@CGame@@QAEXXZ 0043c790 f   Game.obj
 0001:0003b850       ?DrawHeldenianStats@CGame@@QAEXXZ 0043c850 f   Game.obj
 0001:0003b970       ?NotifyMsg_Heldenian@CGame@@QAEXPAD@Z 0043c970 f   Game.obj
 0001:0003b9e0       ?StartBGM@CGame@@QAEXXZ    0043c9e0 f   Game.obj
 0001:0003c1a0       ?MotionResponseHandler@CGame@@QAEXPAD@Z 0043d1a0 f   Game.obj
 0001:0003c6e0       ?DrawDialogBox_FeedBackCard@CGame@@QAEXXZ 0043d6e0 f   Game.obj
 0001:0003c6f0       ?DrawDialogBox_LevelUpSetting@CGame@@QAEXXZ 0043d6f0 f   Game.obj
 0001:0003d600       ?DrawQuestLog@CGame@@QAEX_N@Z 0043e600 f   Game.obj
 0001:0003d920       ?DrawDialogBox_ConfirmExchange@CGame@@QAEXXZ 0043e920 f   Game.obj
 0001:0003db30       ?DrawDialogBox_Fishing@CGame@@QAEXXZ 0043eb30 f   Game.obj
 0001:0003ddc0       ?DrawDialogBox_GuildQuery@CGame@@QAEXXZ 0043edc0 f   Game.obj
 0001:0003e420       ?DrawDialogBox_GuildOperation@CGame@@QAEXXZ 0043f420 f   Game.obj
 0001:0003eb20       ?DrawDialogBox_MagicShop@CGame@@QAEXXZ 0043fb20 f   Game.obj
 0001:000405c0       ?DrawDialogBox_ShutDownMsg@CGame@@QAEXXZ 004415c0 f   Game.obj
 0001:000409a0       ?DrawDialogBox_NpcActionQuery@CGame@@QAEXXZ 004419a0 f   Game.obj
 0001:00042210       ?DrawDialogBox_QueryDropItemAmount@CGame@@QAEXXZ 00443210 f   Game.obj
 0001:000426f0       ?DrawDialogBox_Quest@CGame@@QAEXXZ 004436f0 f   Game.obj
 0001:00043020       ?DrawDialogBox_SellList@CGame@@QAEXXZ 00444020 f   Game.obj
 0001:00044010       ?DrawDialogBox_SellorRepairItem@CGame@@QAEXXZ 00445010 f   Game.obj
 0001:00044b50       ?DrawDialogBox_Skill@CGame@@QAEXXZ 00445b50 f   Game.obj
 0001:00044f50       ?DrawDialogBox_SysMenu@CGame@@QAEXXZ 00445f50 f   Game.obj
 0001:00045ce0       ?bItemDrop_ItemUpgrade@CGame@@QAEXXZ 00446ce0 f   Game.obj
 0001:00045d90       ?bItemDrop_SkillDialog@CGame@@QAEXXZ 00446d90 f   Game.obj
 0001:00046230       ?bItemDrop_Slates@CGame@@QAEXXZ 00447230 f   Game.obj
 0001:00046410       ?DlgBoxClick_SkillDlg@CGame@@QAEXXZ 00447410 f   Game.obj
 0001:00046cd0       ?ResponseTeleportList@CGame@@QAEXPAD@Z 00447cd0 f   Game.obj
 0001:00046d60       ?ResponseChargedTeleport@CGame@@QAEXPAD@Z 00447d60 f   Game.obj
 0001:00046e40       ?NotifyMsg_CannotGiveItem@CGame@@QAEXPAD@Z 00447e40 f   Game.obj
 0001:00046f40       ?NotifyMsg_DropItemFin_CountChanged@CGame@@QAEXPAD@Z 00447f40 f   Game.obj
 0001:00046ff0       ?GuildContributeRsp@CGame@@QAEXPAD@Z 00447ff0 f   Game.obj
 0001:00047100       ?NotifyMsg_CannotJoinMoreGuildsMan@CGame@@QAEXPAD@Z 00448100 f   Game.obj
 0001:000471b0       ?NotifyMsg_DismissGuildsMan@CGame@@QAEXPAD@Z 004481b0 f   Game.obj
 0001:000472d0       ?NotifyMsg_CannotRating@CGame@@QAEXPAD@Z 004482d0 f   Game.obj
 0001:00047350       ?NotifyMsg_CannotRepairItem@CGame@@QAEXPAD@Z 00448350 f   Game.obj
 0001:00047460       ?NotifyMsg_CannotSellItem@CGame@@QAEXPAD@Z 00448460 f   Game.obj
 0001:00047610       ?NotifyMsg_Charisma@CGame@@QAEXPAD@Z 00448610 f   Game.obj
 0001:000476e0       ?NotifyMsg_EnemyKillReward@CGame@@QAEXPAD@Z 004486e0 f   Game.obj
 0001:00047920       ?NotifyMsg_ForceDisconn@CGame@@QAEXPAD@Z 00448920 f   Game.obj
 0001:00047a40       ?NotifyMsg_GiveItemFin_CountChanged@CGame@@QAEXPAD@Z 00448a40 f   Game.obj
 0001:00047b60       ?NotifyMsg_GlobalAttackMode@CGame@@QAEXPAD@Z 00448b60 f   Game.obj
 0001:00047bc0       ?NotifyMsg_HP@CGame@@QAEXPAD@Z 00448bc0 f   Game.obj
 0001:00047d20       ?NotifyMsg_Hunger@CGame@@QAEXPAD@Z 00448d20 f   Game.obj
 0001:00047de0       ?NotifyMsg_ItemColorChange@CGame@@QAEXPAD@Z 00448de0 f   Game.obj
 0001:00047eb0       ?NotifyMsg_ItemSocketChange@CGame@@QAEXPAD@Z 00448eb0 f   Game.obj
 0001:00047fa0       ?NotifyMsg_ItemRepaired@CGame@@QAEXPAD@Z 00448fa0 f   Game.obj
 0001:000480a0       ?NotifyMsg_ItemToBank@CGame@@QAEXPAD@Z 004490a0 f   Game.obj
 0001:00048450       ?NotifyMsg_LevelUp@CGame@@QAEXPAD@Z 00449450 f   Game.obj
 0001:00048760       ?NotifyMsg_SettingSuccess@CGame@@QAEXPAD@Z 00449760 f   Game.obj
 0001:00048890       ?NotifyMsg_MagicEffectOff@CGame@@QAEXPAD@Z 00449890 f   Game.obj
 0001:00048b90       ?NotifyMsg_ContPoints@CGame@@QAEXPAD@Z 00449b90 f   Game.obj
 0001:00048bb0       ?NotifyMsg_MagicEffectOn@CGame@@QAEXPAD@Z 00449bb0 f   Game.obj
 0001:00048f30       ?NotifyMsg_MagicStudyFail@CGame@@QAEXPAD@Z 00449f30 f   Game.obj
 0001:00049040       ?NotifyMsg_MagicStudySuccess@CGame@@QAEXPAD@Z 0044a040 f   Game.obj
 0001:00049110       ?NotifyMsg_MP@CGame@@QAEXPAD@Z 0044a110 f   Game.obj
 0001:00049200       ?NotifyMsg_NewGuildsMan@CGame@@QAEXPAD@Z 0044a200 f   Game.obj
 0001:000492a0       ?NotifyMsg_PKcaptured@CGame@@QAEXPAD@Z 0044a2a0 f   Game.obj
 0001:00049340       ?NotifyMsg_PKpenalty@CGame@@QAEXPAD@Z 0044a340 f   Game.obj
 0001:00049410       ?NotifyMsg_PlayerShutUp@CGame@@QAEXPAD@Z 0044a410 f   Game.obj
 0001:00049580       ?NotifyMsg_PlayerStatus@CGame@@QAEXHPAD@Z 0044a580 f   Game.obj
 0001:000496b0       ?NotifyMsg_RatingPlayer@CGame@@QAEXPAD@Z 0044a6b0 f   Game.obj
 0001:00049840       ?NotifyMsg_ServerChange@CGame@@QAEXPAD@Z 0044a840 f   Game.obj
 0001:00049ab0       ?NotifyMsg_SetItemCount@CGame@@QAEXPAD@Z 0044aab0 f   Game.obj
 0001:00049b20       ?NotifyMsg_Skill@CGame@@QAEXPAD@Z 0044ab20 f   Game.obj
 0001:00049ed0       ?NotifyMsg_SkillTrainSuccess@CGame@@QAEXPAD@Z 0044aed0 f   Game.obj
 0001:00049fb0       ?NotifyMsg_SkillUsingEnd@CGame@@QAEXPAD@Z 0044afb0 f   Game.obj
 0001:0004a020       ?NotifyMsg_SP@CGame@@QAEXPAD@Z 0044b020 f   Game.obj
 0001:0004a0e0       ?NotifyMsg_TotalUsers@CGame@@QAEXPAD@Z 0044b0e0 f   Game.obj
 0001:0004a130       ?NotifyMsg_RelicInAltar@CGame@@QAEXPAD@Z 0044b130 f   Game.obj
 0001:0004a1e0       ?NotifyMsg_RelicGrabbed@CGame@@QAEXPAD@Z 0044b1e0 f   Game.obj
 0001:0004a280       ?NotifyMsg_EventWinner@CGame@@QAEXPAD@Z 0044b280 f   Game.obj
 0001:0004a440       ?NotifyMsg_PingPlayers@CGame@@QAEXPAD@Z 0044b440 f   Game.obj
 0001:0004a480       ?NotifyMsg_BisleEventScoreboard@CGame@@QAEXPAD@Z 0044b480 f   Game.obj
 0001:0004a500       ?NotifyMsg_BisleEventToggle@CGame@@QAEXPAD@Z 0044b500 f   Game.obj
 0001:0004a550       ?NotifyMsg_EventStart@CGame@@QAEXPAD@Z 0044b550 f   Game.obj
 0001:0004a660       ?NotifyMsg_Casualties@CGame@@QAEXPAD@Z 0044b660 f   Game.obj
 0001:0004a6d0       ?NotifyMsg_ShieldHP@CGame@@QAEXPAD@Z 0044b6d0 f   Game.obj
 0001:0004a740       ?NotifyMsg_WhisperMode@CGame@@QAEXHPAD@Z 0044b740 f   Game.obj
 0001:0004a8d0       ?NotifyMsg_FriendOnGame@CGame@@QAEXPAD@Z 0044b8d0 f   Game.obj
 0001:0004a980       ?DrawDialogBox_CrusadeJob@CGame@@QAEXXZ 0044b980 f   Game.obj
 0001:0004b160       ?_Draw_OnLogin@CGame@@QAEXPAD0HHH@Z 0044c160 f   Game.obj
 0001:0004b420       ?ShowEventList@CGame@@QAEXK@Z 0044c420 f   Game.obj
 0001:0004b9b0       ?DrawDialogBox_Help@CGame@@QAEXXZ 0044c9b0 f   Game.obj
 0001:0004c790       ?GetRegKey@CGame@@QAEJPAUHKEY__@@PBDPAD@Z 0044d790 f   Game.obj
 0001:0004c840       ?GoHomepage@CGame@@QAEXXZ  0044d840 f   Game.obj
 0001:0004c9a0       ?iGetManaCost@CGame@@QAEHH@Z 0044d9a0 f   Game.obj
 0001:0004d0c0       ?CheckActiveAura@CGame@@QAEXFFKF@Z 0044e0c0 f   Game.obj
 0001:0004d380       ?CheckActiveAura2@CGame@@QAEXFFKF@Z 0044e380 f   Game.obj
 0001:0004d6c0       ?DrawDialogBox_ChangeStats@CGame@@QAEXXZ 0044e6c0 f   Game.obj
 0001:0004e470       ?DrawAngel@CGame@@QAEXHFFDK@Z 0044f470 f   Game.obj
 0001:0004e660       ?bHasHeroSet@CGame@@QAEHFFD@Z 0044f660 f   Game.obj
 0001:0004e870       ?DrawDialogBox_Resurect@CGame@@QAEXXZ 0044f870 f   Game.obj
 0001:0004ea50       ?ResponseHeldenianTeleportList@CGame@@QAEXPAD@Z 0044fa50 f   Game.obj
 0001:0004eae0       ?DrawDialogBox_CMDHallMenu@CGame@@QAEXXZ 0044fae0 f   Game.obj
 0001:0004f740       ?Glare@CGame@@QAEXHPAH@Z   00450740 f   Game.obj
 0001:0004f760       ?DrawDruncncity@CGame@@QAEXXZ 00450760 f   Game.obj
 0001:0004f770       ?Abaddon_corpse@CGame@@QAEXHH@Z 00450770 f   Game.obj
 0001:0004f910       ?DebugLog@CGame@@QAEXPAD_N@Z 00450910 f   Game.obj
 0001:0004fa80       ?DrawQuestHelper@CGame@@QAEXXZ 00450a80 f   Game.obj
 0001:0004fc60       ?DrawDialogBox_FriendList@CGame@@QAEXXZ 00450c60 f   Game.obj
 0001:000500c0       ?SaveFriendList@CGame@@QAEXXZ 004510c0 f   Game.obj
 0001:000501f0       ?LoadFriendList@CGame@@QAEXXZ 004511f0 f   Game.obj
 0001:000503d0       ?DrawDialogBox_Shop@CGame@@QAEXXZ 004513d0 f   Game.obj
 0001:000526b0       ?DrawDialogBox_DKMenuWeapons@CGame@@QAEXXZ 004536b0 f   Game.obj
 0001:00052d40       ?DrawDialogBox_AuctionHouse@CGame@@QAEXXZ 00453d40 f   Game.obj
 0001:000538f0       ?bItemDrop_SubAuctionHouse@CGame@@QAEXXZ 004548f0 f   Game.obj
 0001:000539a0       ?DrawDialogBox_ExtendedSysMenu@CGame@@QAEXXZ 004549a0 f   Game.obj
 0001:00054be0       ?ResponseQuestList@CGame@@QAEXPAD@Z 00455be0 f   Game.obj
 0001:00054cb0       ?DrawDialogBox_QuestList@CGame@@QAEXXZ 00455cb0 f   Game.obj
 0001:000554c0       ?NotifyMsg_Soccer@CGame@@QAEXPAD@Z 004564c0 f   Game.obj
 0001:000554f0       ?DrawSoccerInfo@CGame@@QAEXXZ 004564f0 f   Game.obj
 0001:00055620       ?bSetSprRangeObj@CGame@@QAEHF_N@Z 00456620 f   Game.obj
 0001:00055860       ?NotifyMsg_TitleList@CGame@@QAEXPAD@Z 00456860 f   Game.obj
 0001:000558e0       ?_bDecodeBuildItemFileContents@CGame@@QAEHXZ 004568e0 f   Game.obj
 0001:00055ff0       ?_bDecodeLogData@CGame@@QAEHXZ 00456ff0 f   Game.obj
 0001:00057370       ?_bDecodeItemConfigFileContents@CGame@@QAEHXZ 00458370 f   Game.obj
 0001:00058460       ?CheckHeroItemEquipped@CGame@@QAEDXZ 00459460 f   Game.obj
 0001:00058880       ?CalcTotalDamage@CGame@@QAEXPAH0DDF_N@Z 00459880 f   Game.obj
 0001:00058bd0       ?DrawDialogBox_AddCharges@CGame@@QAEXXZ 00459bd0 f   Game.obj
 0001:00059620       ?bItemDrop_AddCharges@CGame@@QAEXXZ 0045a620 f   Game.obj
 0001:000596b0       ?length@?$basic_string@DU?$char_traits@D@std@@V?$allocator@D@2@@std@@QBEIXZ 0045a6b0 f i Game.obj
 0001:000596c0       ??0?$_Yarn@D@std@@QAE@XZ   0045a6c0 f i Game.obj
 0001:000596d0       ?c_str@?$_Yarn@D@std@@QBEPBDXZ 0045a6d0 f i Game.obj
 0001:000596e0       ??1?$basic_ostream@DU?$char_traits@D@std@@@std@@UAE@XZ 0045a6e0 f i Game.obj
 0001:00059700       ??1?$basic_ios@DU?$char_traits@D@std@@@std@@UAE@XZ 0045a700 f i Game.obj
 0001:00059720       ?rdbuf@?$basic_ios@DU?$char_traits@D@std@@@std@@QBEPAV?$basic_streambuf@DU?$char_traits@D@std@@@2@XZ 0045a720 f i Game.obj
 0001:00059730       ??1?$basic_istream@DU?$char_traits@D@std@@@std@@UAE@XZ 0045a730 f i Game.obj
 0001:00059750       ?size@?$_Tree@V?$_Tmap_traits@PAVCItem@@KUItemMapComp@@V?$allocator@U?$pair@QAVCItem@@K@std@@@std@@$00@std@@@std@@QBEIXZ 0045a750 f i Game.obj
 0001:00059760       ??R?$_Function_impl0@X@tr1@std@@QBEXXZ 0045a760 f i Game.obj
 0001:00059780       ?size@?$vector@PAVCMsg@@V?$allocator@PAVCMsg@@@std@@@std@@QBEIXZ 0045a780 f i Game.obj
 0001:00059790       ?size@?$vector@V?$basic_string@DU?$char_traits@D@std@@V?$allocator@D@2@@std@@V?$allocator@V?$basic_string@DU?$char_traits@D@std@@V?$allocator@D@2@@std@@@2@@std@@QBEIXZ 0045a790 f i Game.obj
 0001:000597c0       ??A?$vector@V?$basic_string@DU?$char_traits@D@std@@V?$allocator@D@2@@std@@V?$allocator@V?$basic_string@DU?$char_traits@D@std@@V?$allocator@D@2@@std@@@2@@std@@QAEAAV?$basic_string@DU?$char_traits@D@std@@V?$allocator@D@2@@1@I@Z 0045a7c0 f i Game.obj
 0001:000597e0       ??8?$_Tree_const_iterator@V?$_Tree_val@V?$_Tmap_traits@PAVCItem@@KUItemMapComp@@V?$allocator@U?$pair@QAVCItem@@K@std@@@std@@$00@std@@@std@@@std@@QBE_NABV01@@Z 0045a7e0 f i Game.obj
 0001:00059800       ??9?$_Tree_const_iterator@V?$_Tree_val@V?$_Tmap_traits@PAVCItem@@KUItemMapComp@@V?$allocator@U?$pair@QAVCItem@@K@std@@@std@@$00@std@@@std@@@std@@QBE_NABV01@@Z 0045a800 f i Game.obj
 0001:00059820       ?size@?$vector@PAUpartyMember@CGame@@V?$allocator@PAUpartyMember@CGame@@@std@@@std@@QBEIXZ 0045a820 f i Game.obj
 0001:00059830       ??A?$vector@PAUpartyMember@CGame@@V?$allocator@PAUpartyMember@CGame@@@std@@@std@@QAEAAPAUpartyMember@CGame@@I@Z 0045a830 f i Game.obj
 0001:00059850       ?size@?$vector@PAUguildMember@CGame@@V?$allocator@PAUguildMember@CGame@@@std@@@std@@QBEIXZ 0045a850 f i Game.obj
 0001:00059860       ??A?$vector@PAUguildMember@CGame@@V?$allocator@PAUguildMember@CGame@@@std@@@std@@QAEAAPAUguildMember@CGame@@I@Z 0045a860 f i Game.obj
 0001:00059880       ??8?$_Tree_const_iterator@V?$_Tree_val@V?$_Tset_traits@V?$basic_string@DU?$char_traits@D@std@@V?$allocator@D@2@@std@@U?$less@V?$basic_string@DU?$char_traits@D@std@@V?$allocator@D@2@@std@@@2@V?$allocator@V?$basic_string@DU?$char_traits@D@std@@V?$allocator@D@2@@std@@@2@$0A@@std@@@std@@@std@@QBE_NABV01@@Z 0045a880 f i Game.obj
 0001:000598a0       ??9?$_Tree_const_iterator@V?$_Tree_val@V?$_Tset_traits@V?$basic_string@DU?$char_traits@D@std@@V?$allocator@D@2@@std@@U?$less@V?$basic_string@DU?$char_traits@D@std@@V?$allocator@D@2@@std@@@2@V?$allocator@V?$basic_string@DU?$char_traits@D@std@@V?$allocator@D@2@@std@@@2@$0A@@std@@@std@@@std@@QBE_NABV01@@Z 0045a8a0 f i Game.obj
 0001:000598c0       ??8?$_List_const_iterator@V?$_List_val@U?$pair@$$CBEPBD@std@@V?$allocator@U?$pair@$$CBEPBD@std@@@2@@std@@@std@@QBE_NABV01@@Z 0045a8c0 f i Game.obj
 0001:000598e0       ??1?$basic_iostream@DU?$char_traits@D@std@@@std@@UAE@XZ 0045a8e0 f i Game.obj
 0001:00059920       ??_Glocale@std@@QAEPAXI@Z  0045a920 f i Game.obj
 0001:000599a0       ??_D?$basic_ostream@DU?$char_traits@D@std@@@std@@QAEXXZ 0045a9a0 f i Game.obj
 0001:000599d0       ??_D?$basic_istream@DU?$char_traits@D@std@@@std@@QAEXXZ 0045a9d0 f i Game.obj
 0001:00059a00       ??_D?$basic_iostream@DU?$char_traits@D@std@@@std@@QAEXXZ 0045aa00 f i Game.obj
 0001:00059a50       ?_Tidy@?$_Yarn@D@std@@AAEXXZ 0045aa50 f i Game.obj
 0001:00059a70       ??0?$basic_ios@DU?$char_traits@D@std@@@std@@IAE@XZ 0045aa70 f i Game.obj
 0001:00059a80       ??_E?$basic_ios@DU?$char_traits@D@std@@@std@@UAEPAXI@Z 0045aa80 f i Game.obj
 0001:00059a80       ??_G?$basic_ios@DU?$char_traits@D@std@@@std@@UAEPAXI@Z 0045aa80 f i Game.obj
 0001:00059ac0       ?pubsync@?$basic_streambuf@DU?$char_traits@D@std@@@std@@QAEHXZ 0045aac0 f i Game.obj
 0001:00059ad0       ?eback@?$basic_streambuf@DU?$char_traits@D@std@@@std@@IBEPADXZ 0045aad0 f i Game.obj
 0001:00059ae0       ?gptr@?$basic_streambuf@DU?$char_traits@D@std@@@std@@IBEPADXZ 0045aae0 f i Game.obj
 0001:00059af0       ?pbase@?$basic_streambuf@DU?$char_traits@D@std@@@std@@IBEPADXZ 0045aaf0 f i Game.obj
 0001:00059b00       ?pptr@?$basic_streambuf@DU?$char_traits@D@std@@@std@@IBEPADXZ 0045ab00 f i Game.obj
 0001:00059b10       ?egptr@?$basic_streambuf@DU?$char_traits@D@std@@@std@@IBEPADXZ 0045ab10 f i Game.obj
 0001:00059b20       ?setg@?$basic_streambuf@DU?$char_traits@D@std@@@std@@IAEXPAD00@Z 0045ab20 f i Game.obj
 0001:00059b50       ?epptr@?$basic_streambuf@DU?$char_traits@D@std@@@std@@IBEPADXZ 0045ab50 f i Game.obj
 0001:00059b60       ?setp@?$basic_streambuf@DU?$char_traits@D@std@@@std@@IAEXPAD0@Z 0045ab60 f i Game.obj
 0001:00059b90       ?setp@?$basic_streambuf@DU?$char_traits@D@std@@@std@@IAEXPAD00@Z 0045ab90 f i Game.obj
 0001:00059bc0       ?_Pninc@?$basic_streambuf@DU?$char_traits@D@std@@@std@@IAEPADXZ 0045abc0 f i Game.obj
 0001:00059be0       ?_Pnavail@?$basic_streambuf@DU?$char_traits@D@std@@@std@@IBE_JXZ 0045abe0 f i Game.obj
 0001:00059c00       ?_Color@?$_Tree_val@V?$_Tmap_traits@PAVCItem@@KUItemMapComp@@V?$allocator@U?$pair@QAVCItem@@K@std@@@std@@$00@std@@@std@@SAAADPAU_Node@?$_Tree_nod@V?$_Tmap_traits@PAVCItem@@KUItemMapComp@@V?$allocator@U?$pair@QAVCItem@@K@std@@@std@@$00@std@@@2@@Z 0045ac00 f i Game.obj
 0001:00059c10       ?_Isnil@?$_Tree_val@V?$_Tmap_traits@PAVCItem@@KUItemMapComp@@V?$allocator@U?$pair@QAVCItem@@K@std@@@std@@$00@std@@@std@@SAAADPAU_Node@?$_Tree_nod@V?$_Tmap_traits@PAVCItem@@KUItemMapComp@@V?$allocator@U?$pair@QAVCItem@@K@std@@@std@@$00@std@@@2@@Z 0045ac10 f i Game.obj
 0001:00059c20       ?_Left@?$_Tree_val@V?$_Tmap_traits@PAVCItem@@KUItemMapComp@@V?$allocator@U?$pair@QAVCItem@@K@std@@@std@@$00@std@@@std@@SAAAPAU_Node@?$_Tree_nod@V?$_Tmap_traits@PAVCItem@@KUItemMapComp@@V?$allocator@U?$pair@QAVCItem@@K@std@@@std@@$00@std@@@2@PAU342@@Z 0045ac20 f i Game.obj
 0001:00059c30       ?_Parent@?$_Tree_val@V?$_Tmap_traits@PAVCItem@@KUItemMapComp@@V?$allocator@U?$pair@QAVCItem@@K@std@@@std@@$00@std@@@std@@SAAAPAU_Node@?$_Tree_nod@V?$_Tmap_traits@PAVCItem@@KUItemMapComp@@V?$allocator@U?$pair@QAVCItem@@K@std@@@std@@$00@std@@@2@PAU342@@Z 0045ac30 f i Game.obj
 0001:00059c40       ?_Right@?$_Tree_val@V?$_Tmap_traits@PAVCItem@@KUItemMapComp@@V?$allocator@U?$pair@QAVCItem@@K@std@@@std@@$00@std@@@std@@SAAAPAU_Node@?$_Tree_nod@V?$_Tmap_traits@PAVCItem@@KUItemMapComp@@V?$allocator@U?$pair@QAVCItem@@K@std@@@std@@$00@std@@@2@PAU342@@Z 0045ac40 f i Game.obj
 0001:00059c50       ?_Myval@?$_Tree_val@V?$_Tmap_traits@PAVCItem@@KUItemMapComp@@V?$allocator@U?$pair@QAVCItem@@K@std@@@std@@$00@std@@@std@@SAAAU?$pair@QAVCItem@@K@2@PAU_Node@?$_Tree_nod@V?$_Tmap_traits@PAVCItem@@KUItemMapComp@@V?$allocator@U?$pair@QAVCItem@@K@std@@@std@@$00@std@@@2@@Z 0045ac50 f i Game.obj
 0001:00059c60       ?_Max@?$_Tree_val@V?$_Tmap_traits@PAVCItem@@KUItemMapComp@@V?$allocator@U?$pair@QAVCItem@@K@std@@@std@@$00@std@@@std@@SAPAU_Node@?$_Tree_nod@V?$_Tmap_traits@PAVCItem@@KUItemMapComp@@V?$allocator@U?$pair@QAVCItem@@K@std@@@std@@$00@std@@@2@PAU342@@Z 0045ac60 f i Game.obj
 0001:00059c90       ?_Min@?$_Tree_val@V?$_Tmap_traits@PAVCItem@@KUItemMapComp@@V?$allocator@U?$pair@QAVCItem@@K@std@@@std@@$00@std@@@std@@SAPAU_Node@?$_Tree_nod@V?$_Tmap_traits@PAVCItem@@KUItemMapComp@@V?$allocator@U?$pair@QAVCItem@@K@std@@@std@@$00@std@@@2@PAU342@@Z 0045ac90 f i Game.obj
 0001:00059cc0       ??0?$allocator@U?$pair@QAVCItem@@K@std@@@std@@QAE@XZ 0045acc0 f i Game.obj
 0001:00059cd0       ?deallocate@?$allocator@U_Node@?$_Tree_nod@V?$_Tmap_traits@PAVCItem@@KUItemMapComp@@V?$allocator@U?$pair@QAVCItem@@K@std@@@std@@$00@std@@@std@@@std@@QAEXPAU_Node@?$_Tree_nod@V?$_Tmap_traits@PAVCItem@@KUItemMapComp@@V?$allocator@U?$pair@QAVCItem@@K@std@@@std@@$00@std@@@2@I@Z 0045acd0 f i Game.obj
 0001:00059cf0       ?_Empty@?$_Function_impl0@X@tr1@std@@QBE_NXZ 0045acf0 f i Game.obj
 0001:00059d00       ?_Inside@?$vector@PAVCMsg@@V?$allocator@PAVCMsg@@@std@@@std@@IBE_NPBQAVCMsg@@@Z 0045ad00 f i Game.obj
 0001:00059d30       ?_Orphan_range@?$vector@PAVCMsg@@V?$allocator@PAVCMsg@@@std@@@std@@IBEXPAPAVCMsg@@0@Z 0045ad30 f i Game.obj
 0001:00059d40       ??1?$_Vector_val@PAVCMsg@@V?$allocator@PAVCMsg@@@std@@@std@@QAE@XZ 0045ad40 f i Game.obj
 0001:00059d50       ??0?$allocator@PAVCMsg@@@std@@QAE@XZ 0045ad50 f i Game.obj
 0001:00059d60       ?_Inside@?$vector@V?$basic_string@DU?$char_traits@D@std@@V?$allocator@D@2@@std@@V?$allocator@V?$basic_string@DU?$char_traits@D@std@@V?$allocator@D@2@@std@@@2@@std@@IBE_NPBV?$basic_string@DU?$char_traits@D@std@@V?$allocator@D@2@@2@@Z 0045ad60 f i Game.obj
 0001:00059d90       ?_Orphan_range@?$vector@V?$basic_string@DU?$char_traits@D@std@@V?$allocator@D@2@@std@@V?$allocator@V?$basic_string@DU?$char_traits@D@std@@V?$allocator@D@2@@std@@@2@@std@@IBEXPAV?$basic_string@DU?$char_traits@D@std@@V?$allocator@D@2@@2@0@Z 0045ad90 f i Game.obj
 0001:00059da0       ??1?$_Vector_val@V?$basic_string@DU?$char_traits@D@std@@V?$allocator@D@2@@std@@V?$allocator@V?$basic_string@DU?$char_traits@D@std@@V?$allocator@D@2@@std@@@2@@std@@QAE@XZ 0045ada0 f i Game.obj
 0001:00059db0       ??0?$allocator@V?$basic_string@DU?$char_traits@D@std@@V?$allocator@D@2@@std@@@std@@QAE@XZ 0045adb0 f i Game.obj
 0001:00059dc0       ??D?$_Tree_const_iterator@V?$_Tree_val@V?$_Tmap_traits@PAVCItem@@KUItemMapComp@@V?$allocator@U?$pair@QAVCItem@@K@std@@@std@@$00@std@@@std@@@std@@QBEABU?$pair@QAVCItem@@K@1@XZ 0045adc0 f i Game.obj
 0001:00059dd0       ?_Mynode@?$_Tree_unchecked_const_iterator@V?$_Tree_val@V?$_Tmap_traits@PAVCItem@@KUItemMapComp@@V?$allocator@U?$pair@QAVCItem@@K@std@@@std@@$00@std@@@std@@U_Iterator_base0@2@@std@@QBEPAU_Node@?$_Tree_nod@V?$_Tmap_traits@PAVCItem@@KUItemMapComp@@V?$allocator@U?$pair@QAVCItem@@K@std@@@std@@$00@std@@@2@XZ 0045add0 f i Game.obj
 0001:00059de0       ?_Inside@?$vector@PAUpartyMember@CGame@@V?$allocator@PAUpartyMember@CGame@@@std@@@std@@IBE_NPBQAUpartyMember@CGame@@@Z 0045ade0 f i Game.obj
 0001:00059e10       ?_Orphan_range@?$vector@PAUpartyMember@CGame@@V?$allocator@PAUpartyMember@CGame@@@std@@@std@@IBEXPAPAUpartyMember@CGame@@0@Z 0045ae10 f i Game.obj
 0001:00059e20       ??1?$_Vector_val@PAUpartyMember@CGame@@V?$allocator@PAUpartyMember@CGame@@@std@@@std@@QAE@XZ 0045ae20 f i Game.obj
 0001:00059e30       ??0?$allocator@PAUpartyMember@CGame@@@std@@QAE@XZ 0045ae30 f i Game.obj
 0001:00059e40       ?_Inside@?$vector@PAUguildMember@CGame@@V?$allocator@PAUguildMember@CGame@@@std@@@std@@IBE_NPBQAUguildMember@CGame@@@Z 0045ae40 f i Game.obj
 0001:00059e70       ?_Orphan_range@?$vector@PAUguildMember@CGame@@V?$allocator@PAUguildMember@CGame@@@std@@@std@@IBEXPAPAUguildMember@CGame@@0@Z 0045ae70 f i Game.obj
 0001:00059e80       ??1?$_Vector_val@PAUguildMember@CGame@@V?$allocator@PAUguildMember@CGame@@@std@@@std@@QAE@XZ 0045ae80 f i Game.obj
 0001:00059e90       ??0?$allocator@PAUguildMember@CGame@@@std@@QAE@XZ 0045ae90 f i Game.obj
 0001:00059ea0       ?_Myval@?$_Tree_val@V?$_Tset_traits@V?$basic_string@DU?$char_traits@D@std@@V?$allocator@D@2@@std@@U?$less@V?$basic_string@DU?$char_traits@D@std@@V?$allocator@D@2@@std@@@2@V?$allocator@V?$basic_string@DU?$char_traits@D@std@@V?$allocator@D@2@@std@@@2@$0A@@std@@@std@@SAAAV?$basic_string@DU?$char_traits@D@std@@V?$allocator@D@2@@2@PAU_Node@?$_Tree_nod@V?$_Tset_traits@V?$basic_string@DU?$char_traits@D@std@@V?$allocator@D@2@@std@@U?$less@V?$basic_string@DU?$char_traits@D@std@@V?$allocator@D@2@@std@@@2@V?$allocator@V?$basic_string@DU?$char_traits@D@std@@V?$allocator@D@2@@std@@@2@$0A@@std@@@2@@Z 0045aea0 f i Game.obj
 0001:00059eb0       ??0?$allocator@U?$pair@$$CBEPBD@std@@@std@@QAE@XZ 0045aeb0 f i Game.obj
 0001:00059ec0       ??0?$_Hash_compare@EV?$hash@E@std@@U?$equal_to@E@2@@std@@QAE@XZ 0045aec0 f i Game.obj
 0001:00059ed0       ??D?$_Vector_const_iterator@V?$_Vector_val@PAVCMsg@@V?$allocator@PAVCMsg@@@std@@@std@@@std@@QBEABQAVCMsg@@XZ 0045aed0 f i Game.obj
 0001:00059ee0       ??E?$_Vector_const_iterator@V?$_Vector_val@PAVCMsg@@V?$allocator@PAVCMsg@@@std@@@std@@@std@@QAEAAV01@XZ 0045aee0 f i Game.obj
 0001:00059ef0       ??1?$_Vector_val@HV?$allocator@H@std@@@std@@QAE@XZ 0045aef0 f i Game.obj
 0001:00059f00       ??0?$allocator@H@std@@QAE@XZ 0045af00 f i Game.obj
 0001:00059f10       ??0?$_List_unchecked_const_iterator@V?$_List_val@U?$pair@$$CBV?$basic_string@DU?$char_traits@D@std@@V?$allocator@D@2@@std@@UGuildMember@@@std@@V?$allocator@U?$pair@$$CBV?$basic_string@DU?$char_traits@D@std@@V?$allocator@D@2@@std@@UGuildMember@@@std@@@2@@std@@U_Iterator_base0@2@@std@@QAE@XZ 0045af10 f i Game.obj
 0001:00059f20       ??D?$_Tree_unchecked_const_iterator@V?$_Tree_val@V?$_Tset_traits@V?$basic_string@DU?$char_traits@D@std@@V?$allocator@D@2@@std@@U?$less@V?$basic_string@DU?$char_traits@D@std@@V?$allocator@D@2@@std@@@2@V?$allocator@V?$basic_string@DU?$char_traits@D@std@@V?$allocator@D@2@@std@@@2@$0A@@std@@@std@@U_Iterator_base0@2@@std@@QBEABV?$basic_string@DU?$char_traits@D@std@@V?$allocator@D@2@@1@XZ 0045af20 f i Game.obj
 0001:00059f30       ?_Mynode@?$_Tree_unchecked_const_iterator@V?$_Tree_val@V?$_Tset_traits@V?$basic_string@DU?$char_traits@D@std@@V?$allocator@D@2@@std@@U?$less@V?$basic_string@DU?$char_traits@D@std@@V?$allocator@D@2@@std@@@2@V?$allocator@V?$basic_string@DU?$char_traits@D@std@@V?$allocator@D@2@@std@@@2@$0A@@std@@@std@@U_Iterator_base0@2@@std@@QBEPAU_Node@?$_Tree_nod@V?$_Tset_traits@V?$basic_string@DU?$char_traits@D@std@@V?$allocator@D@2@@std@@U?$less@V?$basic_string@DU?$char_traits@D@std@@V?$allocator@D@2@@std@@@2@V?$allocator@V?$basic_string@DU?$char_traits@D@std@@V?$allocator@D@2@@std@@@2@$0A@@std@@@2@XZ 0045af30 f i Game.obj
 0001:00059f40       ??D?$_Vector_const_iterator@V?$_Vector_val@PAUpartyMember@CGame@@V?$allocator@PAUpartyMember@CGame@@@std@@@std@@@std@@QBEABQAUpartyMember@CGame@@XZ 0045af40 f i Game.obj
 0001:00059f50       ??E?$_Vector_const_iterator@V?$_Vector_val@PAUpartyMember@CGame@@V?$allocator@PAUpartyMember@CGame@@@std@@@std@@@std@@QAEAAV01@XZ 0045af50 f i Game.obj
 0001:00059f60       ?_Compat@?$_Vector_const_iterator@V?$_Vector_val@PAUpartyMember@CGame@@V?$allocator@PAUpartyMember@CGame@@@std@@@std@@@std@@QBEXABV12@@Z 0045af60 f i Game.obj
 0001:00059f70       ??E?$_Vector_const_iterator@V?$_Vector_val@V?$basic_string@DU?$char_traits@D@std@@V?$allocator@D@2@@std@@V?$allocator@V?$basic_string@DU?$char_traits@D@std@@V?$allocator@D@2@@std@@@2@@std@@@std@@QAEAAV01@XZ 0045af70 f i Game.obj
 0001:00059f80       ?_Tidy@?$basic_stringbuf@DU?$char_traits@D@std@@V?$allocator@D@2@@std@@IAEXXZ 0045af80 f i Game.obj
 0001:00059ff0       ??D?$_Vector_const_iterator@V?$_Vector_val@PAUguildMember@CGame@@V?$allocator@PAUguildMember@CGame@@@std@@@std@@@std@@QBEABQAUguildMember@CGame@@XZ 0045aff0 f i Game.obj
 0001:0005a000       ??E?$_Vector_const_iterator@V?$_Vector_val@PAUguildMember@CGame@@V?$allocator@PAUguildMember@CGame@@@std@@@std@@@std@@QAEAAV01@XZ 0045b000 f i Game.obj
 0001:0005a010       ?_Compat@?$_Vector_const_iterator@V?$_Vector_val@PAUguildMember@CGame@@V?$allocator@PAUguildMember@CGame@@@std@@@std@@@std@@QBEXABV12@@Z 0045b010 f i Game.obj
 0001:0005a020       ??Bsentry@?$basic_ostream@DU?$char_traits@D@std@@@std@@QBEPQ_Bool_struct@2@HXZ 0045b020 f i Game.obj
 0001:0005a030       ??1?$_Impl_base0@X@tr1@std@@UAE@XZ 0045b030 f i Game.obj
 0001:0005a040       ??_E?$_Impl_base0@X@tr1@std@@UAEPAXI@Z 0045b040 f i Game.obj
 0001:0005a040       ??_G?$_Impl_base0@X@tr1@std@@UAEPAXI@Z 0045b040 f i Game.obj
 0001:0005a070       ??0?$basic_ostream@DU?$char_traits@D@std@@@std@@QAE@W4_Uninitialized@1@_N@Z 0045b070 f i Game.obj
 0001:0005a120       ?tie@?$basic_ios@DU?$char_traits@D@std@@@std@@QBEPAV?$basic_ostream@DU?$char_traits@D@std@@@2@XZ 0045b120 f i Game.obj
 0001:0005a130       ??0?$allocator@U?$pair@QAVCItem@@K@std@@@std@@QAE@ABV01@@Z 0045b130 f i Game.obj
 0001:0005a140       ?capacity@?$vector@PAVCMsg@@V?$allocator@PAVCMsg@@@std@@@std@@QBEIXZ 0045b140 f i Game.obj
 0001:0005a150       ?_Xlen@?$vector@PAVCMsg@@V?$allocator@PAVCMsg@@@std@@@std@@IBEXXZ 0045b150 f i Game.obj
 0001:0005a160       ??0?$allocator@PAVCMsg@@@std@@QAE@ABV01@@Z 0045b160 f i Game.obj
 0001:0005a170       ?deallocate@?$allocator@PAVCMsg@@@std@@QAEXPAPAVCMsg@@I@Z 0045b170 f i Game.obj
 0001:0005a190       ?capacity@?$vector@V?$basic_string@DU?$char_traits@D@std@@V?$allocator@D@2@@std@@V?$allocator@V?$basic_string@DU?$char_traits@D@std@@V?$allocator@D@2@@std@@@2@@std@@QBEIXZ 0045b190 f i Game.obj
 0001:0005a1c0       ?_Xlen@?$vector@V?$basic_string@DU?$char_traits@D@std@@V?$allocator@D@2@@std@@V?$allocator@V?$basic_string@DU?$char_traits@D@std@@V?$allocator@D@2@@std@@@2@@std@@IBEXXZ 0045b1c0 f i Game.obj
 0001:0005a1d0       ??0?$allocator@V?$basic_string@DU?$char_traits@D@std@@V?$allocator@D@2@@std@@@std@@QAE@ABV01@@Z 0045b1d0 f i Game.obj
 0001:0005a1e0       ?deallocate@?$allocator@V?$basic_string@DU?$char_traits@D@std@@V?$allocator@D@2@@std@@@std@@QAEXPAV?$basic_string@DU?$char_traits@D@std@@V?$allocator@D@2@@2@I@Z 0045b1e0 f i Game.obj
 0001:0005a200       ??0?$_Tree_unchecked_const_iterator@V?$_Tree_val@V?$_Tmap_traits@PAVCItem@@KUItemMapComp@@V?$allocator@U?$pair@QAVCItem@@K@std@@@std@@$00@std@@@std@@U_Iterator_base0@2@@std@@QAE@XZ 0045b200 f i Game.obj
 0001:0005a210       ??E?$_Tree_unchecked_const_iterator@V?$_Tree_val@V?$_Tmap_traits@PAVCItem@@KUItemMapComp@@V?$allocator@U?$pair@QAVCItem@@K@std@@@std@@$00@std@@@std@@U_Iterator_base0@2@@std@@QAEAAV01@XZ 0045b210 f i Game.obj
 0001:0005a270       ??F?$_Tree_unchecked_const_iterator@V?$_Tree_val@V?$_Tmap_traits@PAVCItem@@KUItemMapComp@@V?$allocator@U?$pair@QAVCItem@@K@std@@@std@@$00@std@@@std@@U_Iterator_base0@2@@std@@QAEAAV01@XZ 0045b270 f i Game.obj
 0001:0005a2e0       ?capacity@?$vector@PAUpartyMember@CGame@@V?$allocator@PAUpartyMember@CGame@@@std@@@std@@QBEIXZ 0045b2e0 f i Game.obj
 0001:0005a2f0       ?_Xlen@?$vector@PAUpartyMember@CGame@@V?$allocator@PAUpartyMember@CGame@@@std@@@std@@IBEXXZ 0045b2f0 f i Game.obj
 0001:0005a300       ??0?$allocator@PAUpartyMember@CGame@@@std@@QAE@ABV01@@Z 0045b300 f i Game.obj
 0001:0005a310       ?deallocate@?$allocator@PAUpartyMember@CGame@@@std@@QAEXPAPAUpartyMember@CGame@@I@Z 0045b310 f i Game.obj
 0001:0005a330       ?capacity@?$vector@PAUguildMember@CGame@@V?$allocator@PAUguildMember@CGame@@@std@@@std@@QBEIXZ 0045b330 f i Game.obj
 0001:0005a340       ?_Xlen@?$vector@PAUguildMember@CGame@@V?$allocator@PAUguildMember@CGame@@@std@@@std@@IBEXXZ 0045b340 f i Game.obj
 0001:0005a350       ??0?$allocator@PAUguildMember@CGame@@@std@@QAE@ABV01@@Z 0045b350 f i Game.obj
 0001:0005a360       ?deallocate@?$allocator@PAUguildMember@CGame@@@std@@QAEXPAPAUguildMember@CGame@@I@Z 0045b360 f i Game.obj
 0001:0005a380       ?_Isnil@?$_Tree_val@V?$_Tset_traits@V?$basic_string@DU?$char_traits@D@std@@V?$allocator@D@2@@std@@U?$less@V?$basic_string@DU?$char_traits@D@std@@V?$allocator@D@2@@std@@@2@V?$allocator@V?$basic_string@DU?$char_traits@D@std@@V?$allocator@D@2@@std@@@2@$0A@@std@@@std@@SAAADPAU_Node@?$_Tree_nod@V?$_Tset_traits@V?$basic_string@DU?$char_traits@D@std@@V?$allocator@D@2@@std@@U?$less@V?$basic_string@DU?$char_traits@D@std@@V?$allocator@D@2@@std@@@2@V?$allocator@V?$basic_string@DU?$char_traits@D@std@@V?$allocator@D@2@@std@@@2@$0A@@std@@@2@@Z 0045b380 f i Game.obj
 0001:0005a390       ?_Left@?$_Tree_val@V?$_Tset_traits@V?$basic_string@DU?$char_traits@D@std@@V?$allocator@D@2@@std@@U?$less@V?$basic_string@DU?$char_traits@D@std@@V?$allocator@D@2@@std@@@2@V?$allocator@V?$basic_string@DU?$char_traits@D@std@@V?$allocator@D@2@@std@@@2@$0A@@std@@@std@@SAAAPAU_Node@?$_Tree_nod@V?$_Tset_traits@V?$basic_string@DU?$char_traits@D@std@@V?$allocator@D@2@@std@@U?$less@V?$basic_string@DU?$char_traits@D@std@@V?$allocator@D@2@@std@@@2@V?$allocator@V?$basic_string@DU?$char_traits@D@std@@V?$allocator@D@2@@std@@@2@$0A@@std@@@2@PAU342@@Z 0045b390 f i Game.obj
 0001:0005a3a0       ?_Parent@?$_Tree_val@V?$_Tset_traits@V?$basic_string@DU?$char_traits@D@std@@V?$allocator@D@2@@std@@U?$less@V?$basic_string@DU?$char_traits@D@std@@V?$allocator@D@2@@std@@@2@V?$allocator@V?$basic_string@DU?$char_traits@D@std@@V?$allocator@D@2@@std@@@2@$0A@@std@@@std@@SAAAPAU_Node@?$_Tree_nod@V?$_Tset_traits@V?$basic_string@DU?$char_traits@D@std@@V?$allocator@D@2@@std@@U?$less@V?$basic_string@DU?$char_traits@D@std@@V?$allocator@D@2@@std@@@2@V?$allocator@V?$basic_string@DU?$char_traits@D@std@@V?$allocator@D@2@@std@@@2@$0A@@std@@@2@PAU342@@Z 0045b3a0 f i Game.obj
 0001:0005a3b0       ?_Right@?$_Tree_val@V?$_Tset_traits@V?$basic_string@DU?$char_traits@D@std@@V?$allocator@D@2@@std@@U?$less@V?$basic_string@DU?$char_traits@D@std@@V?$allocator@D@2@@std@@@2@V?$allocator@V?$basic_string@DU?$char_traits@D@std@@V?$allocator@D@2@@std@@@2@$0A@@std@@@std@@SAAAPAU_Node@?$_Tree_nod@V?$_Tset_traits@V?$basic_string@DU?$char_traits@D@std@@V?$allocator@D@2@@std@@U?$less@V?$basic_string@DU?$char_traits@D@std@@V?$allocator@D@2@@std@@@2@V?$allocator@V?$basic_string@DU?$char_traits@D@std@@V?$allocator@D@2@@std@@@2@$0A@@std@@@2@PAU342@@Z 0045b3b0 f i Game.obj
 0001:0005a3c0       ?_Min@?$_Tree_val@V?$_Tset_traits@V?$basic_string@DU?$char_traits@D@std@@V?$allocator@D@2@@std@@U?$less@V?$basic_string@DU?$char_traits@D@std@@V?$allocator@D@2@@std@@@2@V?$allocator@V?$basic_string@DU?$char_traits@D@std@@V?$allocator@D@2@@std@@@2@$0A@@std@@@std@@SAPAU_Node@?$_Tree_nod@V?$_Tset_traits@V?$basic_string@DU?$char_traits@D@std@@V?$allocator@D@2@@std@@U?$less@V?$basic_string@DU?$char_traits@D@std@@V?$allocator@D@2@@std@@@2@V?$allocator@V?$basic_string@DU?$char_traits@D@std@@V?$allocator@D@2@@std@@@2@$0A@@std@@@2@PAU342@@Z 0045b3c0 f i Game.obj
 0001:0005a3f0       ?_Kfn@?$_Tset_traits@V?$basic_string@DU?$char_traits@D@std@@V?$allocator@D@2@@std@@U?$less@V?$basic_string@DU?$char_traits@D@std@@V?$allocator@D@2@@std@@@2@V?$allocator@V?$basic_string@DU?$char_traits@D@std@@V?$allocator@D@2@@std@@@2@$0A@@std@@SAABV?$basic_string@DU?$char_traits@D@std@@V?$allocator@D@2@@2@ABV32@@Z 0045b3f0 f i Game.obj
 0001:0005a400       ?deallocate@?$allocator@U_Node@?$_Tree_nod@V?$_Tset_traits@V?$basic_string@DU?$char_traits@D@std@@V?$allocator@D@2@@std@@U?$less@V?$basic_string@DU?$char_traits@D@std@@V?$allocator@D@2@@std@@@2@V?$allocator@V?$basic_string@DU?$char_traits@D@std@@V?$allocator@D@2@@std@@@2@$0A@@std@@@std@@@std@@QAEXPAU_Node@?$_Tree_nod@V?$_Tset_traits@V?$basic_string@DU?$char_traits@D@std@@V?$allocator@D@2@@std@@U?$less@V?$basic_string@DU?$char_traits@D@std@@V?$allocator@D@2@@std@@@2@V?$allocator@V?$basic_string@DU?$char_traits@D@std@@V?$allocator@D@2@@std@@@2@$0A@@std@@@2@I@Z 0045b400 f i Game.obj
 0001:0005a420       ??0?$_Umap_traits@EPBDV?$_Hash_compare@EV?$hash@E@std@@U?$equal_to@E@2@@std@@V?$allocator@U?$pair@$$CBEPBD@std@@@2@$0A@@tr1@std@@QAE@ABV?$_Hash_compare@EV?$hash@E@std@@U?$equal_to@E@2@@2@@Z 0045b420 f i Game.obj
 0001:0005a440       ??1?$_Vector_val@V?$_List_iterator@V?$_List_val@U?$pair@$$CBEPBD@std@@V?$allocator@U?$pair@$$CBEPBD@std@@@2@@std@@@std@@V?$allocator@V?$_List_iterator@V?$_List_val@U?$pair@$$CBEPBD@std@@V?$allocator@U?$pair@$$CBEPBD@std@@@2@@std@@@std@@@2@@std@@QAE@XZ 0045b440 f i Game.obj
 0001:0005a450       ??0?$_String_const_iterator@DU?$char_traits@D@std@@V?$allocator@D@2@@std@@QAE@PBDPBU_Container_base0@1@@Z 0045b450 f i Game.obj
 0001:0005a470       ??0?$_Vector_const_iterator@V?$_Vector_val@PAVCMsg@@V?$allocator@PAVCMsg@@@std@@@std@@@std@@QAE@PAPAVCMsg@@PBU_Container_base0@1@@Z 0045b470 f i Game.obj
 0001:0005a490       ??F?$_Vector_const_iterator@V?$_Vector_val@PAVCMsg@@V?$allocator@PAVCMsg@@@std@@@std@@@std@@QAEAAV01@XZ 0045b490 f i Game.obj
 0001:0005a4a0       ??Y?$_Vector_const_iterator@V?$_Vector_val@PAVCMsg@@V?$allocator@PAVCMsg@@@std@@@std@@@std@@QAEAAV01@H@Z 0045b4a0 f i Game.obj
 0001:0005a4c0       ?_Compat@?$_Vector_const_iterator@V?$_Vector_val@PAVCMsg@@V?$allocator@PAVCMsg@@@std@@@std@@@std@@QBEXABV12@@Z 0045b4c0 f i Game.obj
 0001:0005a4d0       ??0?$allocator@H@std@@QAE@ABV01@@Z 0045b4d0 f i Game.obj
 0001:0005a4e0       ??0?$_Tree_unchecked_const_iterator@V?$_Tree_val@V?$_Tset_traits@V?$basic_string@DU?$char_traits@D@std@@V?$allocator@D@2@@std@@U?$less@V?$basic_string@DU?$char_traits@D@std@@V?$allocator@D@2@@std@@@2@V?$allocator@V?$basic_string@DU?$char_traits@D@std@@V?$allocator@D@2@@std@@@2@$0A@@std@@@std@@U_Iterator_base0@2@@std@@QAE@PAU_Node@?$_Tree_nod@V?$_Tset_traits@V?$basic_string@DU?$char_traits@D@std@@V?$allocator@D@2@@std@@U?$less@V?$basic_string@DU?$char_traits@D@std@@V?$allocator@D@2@@std@@@2@V?$allocator@V?$basic_string@DU?$char_traits@D@std@@V?$allocator@D@2@@std@@@2@$0A@@std@@@1@PBV?$_Tree_val@V?$_Tset_traits@V?$basic_string@DU?$char_traits@D@std@@V?$allocator@D@2@@std@@U?$less@V?$basic_string@DU?$char_traits@D@std@@V?$allocator@D@2@@std@@@2@V?$allocator@V?$basic_string@DU?$char_traits@D@std@@V?$allocator@D@2@@std@@@2@$0A@@std@@@1@@Z 0045b4e0 f i Game.obj
 0001:0005a500       ??0?$_Revranit@V?$_Vector_iterator@V?$_Vector_val@PAVCMsg@@V?$allocator@PAVCMsg@@@std@@@std@@@std@@U?$iterator@Urandom_access_iterator_tag@std@@PAVCMsg@@HPAPAV3@AAPAV3@@2@@std@@QAE@V?$_Vector_iterator@V?$_Vector_val@PAVCMsg@@V?$allocator@PAVCMsg@@@std@@@std@@@1@@Z 0045b500 f i Game.obj
 0001:0005a520       ??0?$_Vector_const_iterator@V?$_Vector_val@PAUpartyMember@CGame@@V?$allocator@PAUpartyMember@CGame@@@std@@@std@@@std@@QAE@PAPAUpartyMember@CGame@@PBU_Container_base0@1@@Z 0045b520 f i Game.obj
 0001:0005a540       ??9?$_List_const_iterator@V?$_List_val@U?$pair@$$CBEPBD@std@@V?$allocator@U?$pair@$$CBEPBD@std@@@2@@std@@@std@@QBE_NABV01@@Z 0045b540 f i Game.obj
 0001:0005a560       ??0?$_Vector_const_iterator@V?$_Vector_val@V?$basic_string@DU?$char_traits@D@std@@V?$allocator@D@2@@std@@V?$allocator@V?$basic_string@DU?$char_traits@D@std@@V?$allocator@D@2@@std@@@2@@std@@@std@@QAE@PAV?$basic_string@DU?$char_traits@D@std@@V?$allocator@D@2@@1@PBU_Container_base0@1@@Z 0045b560 f i Game.obj
 0001:0005a580       ??D?$_Vector_const_iterator@V?$_Vector_val@V?$basic_string@DU?$char_traits@D@std@@V?$allocator@D@2@@std@@V?$allocator@V?$basic_string@DU?$char_traits@D@std@@V?$allocator@D@2@@std@@@2@@std@@@std@@QBEABV?$basic_string@DU?$char_traits@D@std@@V?$allocator@D@2@@1@XZ 0045b580 f i Game.obj
 0001:0005a590       ?_Compat@?$_Vector_const_iterator@V?$_Vector_val@V?$basic_string@DU?$char_traits@D@std@@V?$allocator@D@2@@std@@V?$allocator@V?$basic_string@DU?$char_traits@D@std@@V?$allocator@D@2@@std@@@2@@std@@@std@@QBEXABV12@@Z 0045b590 f i Game.obj
 0001:0005a5a0       ?_Getstate@?$basic_stringbuf@DU?$char_traits@D@std@@V?$allocator@D@2@@std@@AAEHH@Z 0045b5a0 f i Game.obj
 0001:0005a5e0       ??0?$_Vector_const_iterator@V?$_Vector_val@PAUguildMember@CGame@@V?$allocator@PAUguildMember@CGame@@@std@@@std@@@std@@QAE@PAPAUguildMember@CGame@@PBU_Container_base0@1@@Z 0045b5e0 f i Game.obj
 0001:0005a600       ??0_Sentry_base@?$basic_ostream@DU?$char_traits@D@std@@@std@@QAE@AAV12@@Z 0045b600 f i Game.obj
 0001:0005a630       ??1_Sentry_base@?$basic_ostream@DU?$char_traits@D@std@@@std@@QAE@XZ 0045b630 f i Game.obj
 0001:0005a650       ?_Init@?$basic_streambuf@DU?$char_traits@D@std@@@std@@IAEXXZ 0045b650 f i Game.obj
 0001:0005a6c0       ?max_size@?$allocator@PAVCMsg@@@std@@QBEIXZ 0045b6c0 f i Game.obj
 0001:0005a6d0       ?max_size@?$allocator@V?$basic_string@DU?$char_traits@D@std@@V?$allocator@D@2@@std@@@std@@QBEIXZ 0045b6d0 f i Game.obj
 0001:0005a6e0       ??0?$_Tree_unchecked_const_iterator@V?$_Tree_val@V?$_Tmap_traits@PAVCItem@@KUItemMapComp@@V?$allocator@U?$pair@QAVCItem@@K@std@@@std@@$00@std@@@std@@U_Iterator_base0@2@@std@@QAE@PAU_Node@?$_Tree_nod@V?$_Tmap_traits@PAVCItem@@KUItemMapComp@@V?$allocator@U?$pair@QAVCItem@@K@std@@@std@@$00@std@@@1@PBV?$_Tree_val@V?$_Tmap_traits@PAVCItem@@KUItemMapComp@@V?$allocator@U?$pair@QAVCItem@@K@std@@@std@@$00@std@@@1@@Z 0045b6e0 f i Game.obj
 0001:0005a700       ?max_size@?$allocator@PAUpartyMember@CGame@@@std@@QBEIXZ 0045b700 f i Game.obj
 0001:0005a710       ?max_size@?$allocator@PAUguildMember@CGame@@@std@@QBEIXZ 0045b710 f i Game.obj
 0001:0005a720       ?_Color@?$_Tree_val@V?$_Tset_traits@V?$basic_string@DU?$char_traits@D@std@@V?$allocator@D@2@@std@@U?$less@V?$basic_string@DU?$char_traits@D@std@@V?$allocator@D@2@@std@@@2@V?$allocator@V?$basic_string@DU?$char_traits@D@std@@V?$allocator@D@2@@std@@@2@$0A@@std@@@std@@SAAADPAU_Node@?$_Tree_nod@V?$_Tset_traits@V?$basic_string@DU?$char_traits@D@std@@V?$allocator@D@2@@std@@U?$less@V?$basic_string@DU?$char_traits@D@std@@V?$allocator@D@2@@std@@@2@V?$allocator@V?$basic_string@DU?$char_traits@D@std@@V?$allocator@D@2@@std@@@2@$0A@@std@@@2@@Z 0045b720 f i Game.obj
 0001:0005a730       ?_Max@?$_Tree_val@V?$_Tset_traits@V?$basic_string@DU?$char_traits@D@std@@V?$allocator@D@2@@std@@U?$less@V?$basic_string@DU?$char_traits@D@std@@V?$allocator@D@2@@std@@@2@V?$allocator@V?$basic_string@DU?$char_traits@D@std@@V?$allocator@D@2@@std@@@2@$0A@@std@@@std@@SAPAU_Node@?$_Tree_nod@V?$_Tset_traits@V?$basic_string@DU?$char_traits@D@std@@V?$allocator@D@2@@std@@U?$less@V?$basic_string@DU?$char_traits@D@std@@V?$allocator@D@2@@std@@@2@V?$allocator@V?$basic_string@DU?$char_traits@D@std@@V?$allocator@D@2@@std@@@2@$0A@@std@@@2@PAU342@@Z 0045b730 f i Game.obj
 0001:0005a760       ??0?$allocator@U?$pair@$$CBEPBD@std@@@std@@QAE@ABV01@@Z 0045b760 f i Game.obj
 0001:0005a770       ??R?$equal_to@E@std@@QBE_NABE0@Z 0045b770 f i Game.obj
 0001:0005a790       ?_Myval@?$_List_val@U?$pair@$$CBEPBD@std@@V?$allocator@U?$pair@$$CBEPBD@std@@@2@@std@@SAAAU?$pair@$$CBEPBD@2@PAU_Node@?$_List_nod@U?$pair@$$CBEPBD@std@@V?$allocator@U?$pair@$$CBEPBD@std@@@2@@2@@Z 0045b790 f i Game.obj
 0001:0005a7a0       ?deallocate@?$allocator@U_Node@?$_List_nod@U?$pair@$$CBEPBD@std@@V?$allocator@U?$pair@$$CBEPBD@std@@@2@@std@@@std@@QAEXPAU_Node@?$_List_nod@U?$pair@$$CBEPBD@std@@V?$allocator@U?$pair@$$CBEPBD@std@@@2@@2@I@Z 0045b7a0 f i Game.obj
 0001:0005a7c0       ??0?$allocator@V?$_List_iterator@V?$_List_val@U?$pair@$$CBEPBD@std@@V?$allocator@U?$pair@$$CBEPBD@std@@@2@@std@@@std@@@std@@QAE@ABV01@@Z 0045b7c0 f i Game.obj
 0001:0005a7d0       ?deallocate@?$allocator@V?$_List_iterator@V?$_List_val@U?$pair@$$CBEPBD@std@@V?$allocator@U?$pair@$$CBEPBD@std@@@2@@std@@@std@@@std@@QAEXPAV?$_List_iterator@V?$_List_val@U?$pair@$$CBEPBD@std@@V?$allocator@U?$pair@$$CBEPBD@std@@@2@@std@@@2@I@Z 0045b7d0 f i Game.obj
 0001:0005a7f0       ??8?$_Vector_const_iterator@V?$_Vector_val@PAUpartyMember@CGame@@V?$allocator@PAUpartyMember@CGame@@@std@@@std@@@std@@QBE_NABV01@@Z 0045b7f0 f i Game.obj
 0001:0005a810       ??0?$_Vector_const_iterator@V?$_Vector_val@HV?$allocator@H@std@@@std@@@std@@QAE@PAHPBU_Container_base0@1@@Z 0045b810 f i Game.obj
 0001:0005a830       ??0?$_Tmap_traits@PAVCItem@@KUItemMapComp@@V?$allocator@U?$pair@QAVCItem@@K@std@@@std@@$00@std@@QAE@UItemMapComp@@@Z 0045b830 f i Game.obj
 0001:0005a840       ??0?$_Tset_traits@V?$basic_string@DU?$char_traits@D@std@@V?$allocator@D@2@@std@@U?$less@V?$basic_string@DU?$char_traits@D@std@@V?$allocator@D@2@@std@@@2@V?$allocator@V?$basic_string@DU?$char_traits@D@std@@V?$allocator@D@2@@std@@@2@$0A@@std@@QAE@U?$less@V?$basic_string@DU?$char_traits@D@std@@V?$allocator@D@2@@std@@@1@@Z 0045b840 f i Game.obj
 0001:0005a850       ??R?$hash@E@std@@QBEIABE@Z 0045b850 f i Game.obj
 0001:0005a890       ?_Nextnode@?$_List_val@U?$pair@$$CBEPBD@std@@V?$allocator@U?$pair@$$CBEPBD@std@@@2@@std@@SAAAPAU_Node@?$_List_nod@U?$pair@$$CBEPBD@std@@V?$allocator@U?$pair@$$CBEPBD@std@@@2@@2@PAU342@@Z 0045b890 f i Game.obj
 0001:0005a8a0       ?_Prevnode@?$_List_val@U?$pair@$$CBEPBD@std@@V?$allocator@U?$pair@$$CBEPBD@std@@@2@@std@@SAAAPAU_Node@?$_List_nod@U?$pair@$$CBEPBD@std@@V?$allocator@U?$pair@$$CBEPBD@std@@@2@@2@PAU342@@Z 0045b8a0 f i Game.obj
 0001:0005a8b0       ??A?$vector@V?$_List_iterator@V?$_List_val@U?$pair@$$CBEPBD@std@@V?$allocator@U?$pair@$$CBEPBD@std@@@2@@std@@@std@@V?$allocator@V?$_List_iterator@V?$_List_val@U?$pair@$$CBEPBD@std@@V?$allocator@U?$pair@$$CBEPBD@std@@@2@@std@@@std@@@2@@std@@QAEAAV?$_List_iterator@V?$_List_val@U?$pair@$$CBEPBD@std@@V?$allocator@U?$pair@$$CBEPBD@std@@@2@@std@@@1@I@Z 0045b8b0 f i Game.obj
 0001:0005a8d0       ?_Compat@?$_String_const_iterator@DU?$char_traits@D@std@@V?$allocator@D@2@@std@@QBEXABV12@@Z 0045b8d0 f i Game.obj
 0001:0005a8e0       ??0?$_List_unchecked_const_iterator@V?$_List_val@U?$pair@$$CBEPBD@std@@V?$allocator@U?$pair@$$CBEPBD@std@@@2@@std@@U_Iterator_base0@2@@std@@QAE@PAU_Node@?$_List_nod@U?$pair@$$CBEPBD@std@@V?$allocator@U?$pair@$$CBEPBD@std@@@2@@1@PBV?$_List_val@U?$pair@$$CBEPBD@std@@V?$allocator@U?$pair@$$CBEPBD@std@@@2@@1@@Z 0045b8e0 f i Game.obj
 0001:0005a900       ?_Compat@?$_Vector_const_iterator@V?$_Vector_val@HV?$allocator@H@std@@@std@@@std@@QBEXABV12@@Z 0045b900 f i Game.obj
 0001:0005a910       ?capacity@?$vector@V?$_List_iterator@V?$_List_val@U?$pair@$$CBEPBD@std@@V?$allocator@U?$pair@$$CBEPBD@std@@@2@@std@@@std@@V?$allocator@V?$_List_iterator@V?$_List_val@U?$pair@$$CBEPBD@std@@V?$allocator@U?$pair@$$CBEPBD@std@@@2@@std@@@std@@@2@@std@@QBEIXZ 0045b910 f i Game.obj
 0001:0005a920       ?size@?$vector@V?$_List_iterator@V?$_List_val@U?$pair@$$CBEPBD@std@@V?$allocator@U?$pair@$$CBEPBD@std@@@2@@std@@@std@@V?$allocator@V?$_List_iterator@V?$_List_val@U?$pair@$$CBEPBD@std@@V?$allocator@U?$pair@$$CBEPBD@std@@@2@@std@@@std@@@2@@std@@QBEIXZ 0045b920 f i Game.obj
 0001:0005a930       ?_Xlen@?$vector@V?$_List_iterator@V?$_List_val@U?$pair@$$CBEPBD@std@@V?$allocator@U?$pair@$$CBEPBD@std@@@2@@std@@@std@@V?$allocator@V?$_List_iterator@V?$_List_val@U?$pair@$$CBEPBD@std@@V?$allocator@U?$pair@$$CBEPBD@std@@@2@@std@@@std@@@2@@std@@IBEXXZ 0045b930 f i Game.obj
 0001:0005a940       ?_Orphan_range@?$vector@V?$_List_iterator@V?$_List_val@U?$pair@$$CBEPBD@std@@V?$allocator@U?$pair@$$CBEPBD@std@@@2@@std@@@std@@V?$allocator@V?$_List_iterator@V?$_List_val@U?$pair@$$CBEPBD@std@@V?$allocator@U?$pair@$$CBEPBD@std@@@2@@std@@@std@@@2@@std@@IBEXPAV?$_List_iterator@V?$_List_val@U?$pair@$$CBEPBD@std@@V?$allocator@U?$pair@$$CBEPBD@std@@@2@@std@@@2@0@Z 0045b940 f i Game.obj
 0001:0005a950       ??0?$_Vector_const_iterator@V?$_Vector_val@V?$_List_iterator@V?$_List_val@U?$pair@$$CBEPBD@std@@V?$allocator@U?$pair@$$CBEPBD@std@@@2@@std@@@std@@V?$allocator@V?$_List_iterator@V?$_List_val@U?$pair@$$CBEPBD@std@@V?$allocator@U?$pair@$$CBEPBD@std@@@2@@std@@@std@@@2@@std@@@std@@QAE@PAV?$_List_iterator@V?$_List_val@U?$pair@$$CBEPBD@std@@V?$allocator@U?$pair@$$CBEPBD@std@@@2@@std@@@1@PBU_Container_base0@1@@Z 0045b950 f i Game.obj
 0001:0005a970       ?max_size@?$allocator@V?$_List_iterator@V?$_List_val@U?$pair@$$CBEPBD@std@@V?$allocator@U?$pair@$$CBEPBD@std@@@2@@std@@@std@@@std@@QBEIXZ 0045b970 f i Game.obj
 0001:0005a980       ?_Compat@?$_Vector_const_iterator@V?$_Vector_val@V?$_List_iterator@V?$_List_val@U?$pair@$$CBEPBD@std@@V?$allocator@U?$pair@$$CBEPBD@std@@@2@@std@@@std@@V?$allocator@V?$_List_iterator@V?$_List_val@U?$pair@$$CBEPBD@std@@V?$allocator@U?$pair@$$CBEPBD@std@@@2@@std@@@std@@@2@@std@@@std@@QBEXABV12@@Z 0045b980 f i Game.obj
 0001:0005a990       ??$_Pow_int@M@@YAMMH@Z     0045b990 f i Game.obj
 0001:0005a9f0       ??$forward@V?$allocator@D@std@@@std@@YA$$QAV?$allocator@D@0@AAV10@@Z 0045b9f0 f i Game.obj
 0001:0005aa00       ??$forward@V?$basic_string@DU?$char_traits@D@std@@V?$allocator@D@2@@std@@@std@@YA$$QAV?$basic_string@DU?$char_traits@D@std@@V?$allocator@D@2@@0@AAV10@@Z 0045ba00 f i Game.obj
 0001:0005aa10       ??$addressof@U?$pair@QAVCItem@@K@std@@@std@@YAPAU?$pair@QAVCItem@@K@0@AAU10@@Z 0045ba10 f i Game.obj
 0001:0005aa20       ??$addressof@QAVCMsg@@@std@@YAPBQAVCMsg@@ABQAV1@@Z 0045ba20 f i Game.obj
 0001:0005aa30       ??$addressof@$$CBV?$basic_string@DU?$char_traits@D@std@@V?$allocator@D@2@@std@@@std@@YAPBV?$basic_string@DU?$char_traits@D@std@@V?$allocator@D@2@@0@ABV10@@Z 0045ba30 f i Game.obj
 0001:0005aa40       ??$addressof@PAUpartyMember@CGame@@@std@@YAPAPAUpartyMember@CGame@@AAPAU12@@Z 0045ba40 f i Game.obj
 0001:0005aa50       ??$forward@PAUpartyMember@CGame@@@std@@YA$$QAPAUpartyMember@CGame@@AAPAU12@@Z 0045ba50 f i Game.obj
 0001:0005aa60       ??$addressof@PAUguildMember@CGame@@@std@@YAPAPAUguildMember@CGame@@AAPAU12@@Z 0045ba60 f i Game.obj
 0001:0005aa70       ??$forward@PAUguildMember@CGame@@@std@@YA$$QAPAUguildMember@CGame@@AAPAU12@@Z 0045ba70 f i Game.obj
 0001:0005aa80       ??$addressof@V?$basic_string@DU?$char_traits@D@std@@V?$allocator@D@2@@std@@@std@@YAPAV?$basic_string@DU?$char_traits@D@std@@V?$allocator@D@2@@0@AAV10@@Z 0045ba80 f i Game.obj
 0001:0005aa90       ??$?0U?$pair@$$CBEPBD@std@@@?$allocator@V?$_List_iterator@V?$_List_val@U?$pair@$$CBEPBD@std@@V?$allocator@U?$pair@$$CBEPBD@std@@@2@@std@@@std@@@std@@QAE@ABV?$allocator@U?$pair@$$CBEPBD@std@@@1@@Z 0045ba90 f i Game.obj
 0001:0005aaa0       ??$_Kfn@$$CBEPBD@?$_Umap_traits@EPBDV?$_Hash_compare@EV?$hash@E@std@@U?$equal_to@E@2@@std@@V?$allocator@U?$pair@$$CBEPBD@std@@@2@$0A@@tr1@std@@SAABEABU?$pair@$$CBEPBD@2@@Z 0045baa0 f i Game.obj
 0001:0005aab0       ??$move@AAPBD@std@@YA$$QAPBDAAPBD@Z 0045bab0 f i Game.obj
 0001:0005aac0       ??$?0U?$pair@QAVCItem@@K@std@@@?$allocator@U_Node@?$_Tree_nod@V?$_Tmap_traits@PAVCItem@@KUItemMapComp@@V?$allocator@U?$pair@QAVCItem@@K@std@@@std@@$00@std@@@std@@@std@@QAE@ABV?$allocator@U?$pair@QAVCItem@@K@std@@@1@@Z 0045bac0 f i Game.obj
 0001:0005aad0       ??$_Allocate@U_Node@?$_Tree_nod@V?$_Tmap_traits@PAVCItem@@KUItemMapComp@@V?$allocator@U?$pair@QAVCItem@@K@std@@@std@@$00@std@@@std@@@std@@YAPAU_Node@?$_Tree_nod@V?$_Tmap_traits@PAVCItem@@KUItemMapComp@@V?$allocator@U?$pair@QAVCItem@@K@std@@@std@@$00@std@@@0@IPAU120@@Z 0045bad0 f i Game.obj
 0001:0005ab40       ??$_Allocate@PAVCMsg@@@std@@YAPAPAVCMsg@@IPAPAV1@@Z 0045bb40 f i Game.obj
 0001:0005abb0       ??$_Allocate@V?$basic_string@DU?$char_traits@D@std@@V?$allocator@D@2@@std@@@std@@YAPAV?$basic_string@DU?$char_traits@D@std@@V?$allocator@D@2@@0@IPAV10@@Z 0045bbb0 f i Game.obj
 0001:0005ac30       ??$_Allocate@PAUpartyMember@CGame@@@std@@YAPAPAUpartyMember@CGame@@IPAPAU12@@Z 0045bc30 f i Game.obj
 0001:0005aca0       ??$_Allocate@PAUguildMember@CGame@@@std@@YAPAPAUguildMember@CGame@@IPAPAU12@@Z 0045bca0 f i Game.obj
 0001:0005ad10       ??$?0V?$basic_string@DU?$char_traits@D@std@@V?$allocator@D@2@@std@@@?$allocator@U_Node@?$_Tree_nod@V?$_Tset_traits@V?$basic_string@DU?$char_traits@D@std@@V?$allocator@D@2@@std@@U?$less@V?$basic_string@DU?$char_traits@D@std@@V?$allocator@D@2@@std@@@2@V?$allocator@V?$basic_string@DU?$char_traits@D@std@@V?$allocator@D@2@@std@@@2@$0A@@std@@@std@@@std@@QAE@ABV?$allocator@V?$basic_string@DU?$char_traits@D@std@@V?$allocator@D@2@@std@@@1@@Z 0045bd10 f i Game.obj
 0001:0005ad20       ??$_Allocate@U_Node@?$_Tree_nod@V?$_Tset_traits@V?$basic_string@DU?$char_traits@D@std@@V?$allocator@D@2@@std@@U?$less@V?$basic_string@DU?$char_traits@D@std@@V?$allocator@D@2@@std@@@2@V?$allocator@V?$basic_string@DU?$char_traits@D@std@@V?$allocator@D@2@@std@@@2@$0A@@std@@@std@@@std@@YAPAU_Node@?$_Tree_nod@V?$_Tset_traits@V?$basic_string@DU?$char_traits@D@std@@V?$allocator@D@2@@std@@U?$less@V?$basic_string@DU?$char_traits@D@std@@V?$allocator@D@2@@std@@@2@V?$allocator@V?$basic_string@DU?$char_traits@D@std@@V?$allocator@D@2@@std@@@2@$0A@@std@@@0@IPAU120@@Z 0045bd20 f i Game.obj
 0001:0005ad90       ??$?0U?$pair@$$CBEPBD@std@@@?$allocator@U_Node@?$_List_nod@U?$pair@$$CBEPBD@std@@V?$allocator@U?$pair@$$CBEPBD@std@@@2@@std@@@std@@QAE@ABV?$allocator@U?$pair@$$CBEPBD@std@@@1@@Z 0045bd90 f i Game.obj
 0001:0005ada0       ??$_Allocate@U_Node@?$_List_nod@U?$pair@$$CBEPBD@std@@V?$allocator@U?$pair@$$CBEPBD@std@@@2@@std@@@std@@YAPAU_Node@?$_List_nod@U?$pair@$$CBEPBD@std@@V?$allocator@U?$pair@$$CBEPBD@std@@@2@@0@IPAU120@@Z 0045bda0 f i Game.obj
 0001:0005ae10       ??$addressof@$$CBV?$_List_iterator@V?$_List_val@U?$pair@$$CBEPBD@std@@V?$allocator@U?$pair@$$CBEPBD@std@@@2@@std@@@std@@@std@@YAPBV?$_List_iterator@V?$_List_val@U?$pair@$$CBEPBD@std@@V?$allocator@U?$pair@$$CBEPBD@std@@@2@@std@@@0@ABV10@@Z 0045be10 f i Game.obj
 0001:0005ae20       ??$addressof@V?$_List_iterator@V?$_List_val@U?$pair@$$CBEPBD@std@@V?$allocator@U?$pair@$$CBEPBD@std@@@2@@std@@@std@@@std@@YAPAV?$_List_iterator@V?$_List_val@U?$pair@$$CBEPBD@std@@V?$allocator@U?$pair@$$CBEPBD@std@@@2@@std@@@0@AAV10@@Z 0045be20 f i Game.obj
 0001:0005ae30       ??$_Allocate@V?$_List_iterator@V?$_List_val@U?$pair@$$CBEPBD@std@@V?$allocator@U?$pair@$$CBEPBD@std@@@2@@std@@@std@@@std@@YAPAV?$_List_iterator@V?$_List_val@U?$pair@$$CBEPBD@std@@V?$allocator@U?$pair@$$CBEPBD@std@@@2@@std@@@0@IPAV10@@Z 0045be30 f i Game.obj
 0001:0005aea0       ?fill@?$basic_ios@DU?$char_traits@D@std@@@std@@QBEDXZ 0045bea0 f i Game.obj
 0001:0005aeb0       ?sputn@?$basic_streambuf@DU?$char_traits@D@std@@@std@@QAE_JPBD_J@Z 0045beb0 f i Game.obj
 0001:0005aed0       ?construct@?$allocator@PAUpartyMember@CGame@@@std@@QAEXPAPAUpartyMember@CGame@@$$QAPAU34@@Z 0045bed0 f i Game.obj
 0001:0005aef0       ?construct@?$allocator@PAUguildMember@CGame@@@std@@QAEXPAPAUguildMember@CGame@@$$QAPAU34@@Z 0045bef0 f i Game.obj
 0001:0005af10       ??0?$mem_fun_t@XVCGame@@@std@@QAE@P8CGame@@AEXXZ@Z 0045bf10 f i Game.obj
 0001:0005af30       ??0?$_Bind_base@U_Notforced@tr1@std@@V?$_Bind1@U?$_Callable_obj@V?$mem_fun_t@XVCGame@@@std@@$0A@@tr1@std@@PAVCGame@@@23@@tr1@std@@QAE@V?$_Bind1@U?$_Callable_obj@V?$mem_fun_t@XVCGame@@@std@@$0A@@tr1@std@@PAVCGame@@@12@@Z 0045bf30 f i Game.obj
 0001:0005af50       ??8?$_String_const_iterator@DU?$char_traits@D@std@@V?$allocator@D@2@@std@@QBE_NABV01@@Z 0045bf50 f i Game.obj
 0001:0005af70       ?max_size@?$_Tree@V?$_Tset_traits@V?$basic_string@DU?$char_traits@D@std@@V?$allocator@D@2@@std@@U?$less@V?$basic_string@DU?$char_traits@D@std@@V?$allocator@D@2@@std@@@2@V?$allocator@V?$basic_string@DU?$char_traits@D@std@@V?$allocator@D@2@@std@@@2@$0A@@std@@@std@@QBEIXZ 0045bf70 f i Game.obj
 0001:0005af80       ?bucket_count@?$_Hash@V?$_Umap_traits@EPBDV?$_Hash_compare@EV?$hash@E@std@@U?$equal_to@E@2@@std@@V?$allocator@U?$pair@$$CBEPBD@std@@@2@$0A@@tr1@std@@@std@@QBEIXZ 0045bf80 f i Game.obj
 0001:0005af90       ?max_load_factor@?$_Hash@V?$_Umap_traits@EPBDV?$_Hash_compare@EV?$hash@E@std@@U?$equal_to@E@2@@std@@V?$allocator@U?$pair@$$CBEPBD@std@@@2@$0A@@tr1@std@@@std@@QBEMXZ 0045bf90 f i Game.obj
 0001:0005afa0       ??F?$_Tree_unchecked_const_iterator@V?$_Tree_val@V?$_Tset_traits@V?$basic_string@DU?$char_traits@D@std@@V?$allocator@D@2@@std@@U?$less@V?$basic_string@DU?$char_traits@D@std@@V?$allocator@D@2@@std@@@2@V?$allocator@V?$basic_string@DU?$char_traits@D@std@@V?$allocator@D@2@@std@@@2@$0A@@std@@@std@@U_Iterator_base0@2@@std@@QAEAAV01@XZ 0045bfa0 f i Game.obj
 0001:0005b010       ??F?$_List_const_iterator@V?$_List_val@U?$pair@$$CBEPBD@std@@V?$allocator@U?$pair@$$CBEPBD@std@@@2@@std@@@std@@QAEAAV01@XZ 0045c010 f i Game.obj
 0001:0005b020       ?_Mynode@?$_List_unchecked_const_iterator@V?$_List_val@U?$pair@$$CBEPBD@std@@V?$allocator@U?$pair@$$CBEPBD@std@@@2@@std@@U_Iterator_base0@2@@std@@QBEPAU_Node@?$_List_nod@U?$pair@$$CBEPBD@std@@V?$allocator@U?$pair@$$CBEPBD@std@@@2@@2@XZ 0045c020 f i Game.obj
 0001:0005b030       ??0?$_Callable_base@V?$mem_fun_t@XVCGame@@@std@@$0A@@tr1@std@@QAE@AAV?$mem_fun_t@XVCGame@@@2@@Z 0045c030 f i Game.obj
 0001:0005b050       ?max_size@?$allocator@U?$pair@$$CBEPBD@std@@@std@@QBEIXZ 0045c050 f i Game.obj
 0001:0005b060       ?size@?$list@U?$pair@$$CBEPBD@std@@V?$allocator@U?$pair@$$CBEPBD@std@@@2@@std@@QBEIXZ 0045c060 f i Game.obj
 0001:0005b070       ??$forward@AAPAVCItem@@@std@@YAAAPAVCItem@@AAPAV1@@Z 0045c070 f i Game.obj
 0001:0005b080       ??$forward@AAK@std@@YAAAKAAK@Z 0045c080 f i Game.obj
 0001:0005b090       ??$?0AAPAVCItem@@AAK@?$_Pair_base@PAVCItem@@K@std@@QAE@AAPAVCItem@@AAK@Z 0045c090 f i Game.obj
 0001:0005b0b0       ??$forward@U?$pair@PAVCItem@@K@std@@@std@@YA$$QAU?$pair@PAVCItem@@K@0@AAU10@@Z 0045c0b0 f i Game.obj
 0001:0005b0c0       ??$_Move@AAD@std@@YA$$QADAAD@Z 0045c0c0 f i Game.obj
 0001:0005b0d0       ??$forward@AAPAVCMsg@@@std@@YAAAPAVCMsg@@AAPAV1@@Z 0045c0d0 f i Game.obj
 0001:0005b0e0       ??$construct@AAPAVCMsg@@@?$allocator@PAVCMsg@@@std@@QAEXPAPAVCMsg@@AAPAV2@@Z 0045c0e0 f i Game.obj
 0001:0005b100       ??$forward@ABQAVCMsg@@@std@@YAABQAVCMsg@@ABQAV1@@Z 0045c100 f i Game.obj
 0001:0005b110       ??$_Ptr_cat@PAVCMsg@@PAV1@@std@@YA?AU_Scalar_ptr_iterator_tag@0@PAPAVCMsg@@0@Z 0045c110 f i Game.obj
 0001:0005b120       ??$_Move@PAPAVCMsg@@PAPAV1@@std@@YAPAPAVCMsg@@PAPAV1@00U_Scalar_ptr_iterator_tag@0@@Z 0045c120 f i Game.obj
 0001:0005b160       ??$forward@AAV?$basic_string@DU?$char_traits@D@std@@V?$allocator@D@2@@std@@@std@@YAAAV?$basic_string@DU?$char_traits@D@std@@V?$allocator@D@2@@0@AAV10@@Z 0045c160 f i Game.obj
 0001:0005b170       ??$forward@ABV?$basic_string@DU?$char_traits@D@std@@V?$allocator@D@2@@std@@@std@@YAABV?$basic_string@DU?$char_traits@D@std@@V?$allocator@D@2@@0@ABV10@@Z 0045c170 f i Game.obj
 0001:0005b180       ??$_Ptr_cat@PAUpartyMember@CGame@@PAU12@@std@@YA?AU_Scalar_ptr_iterator_tag@0@PAPAUpartyMember@CGame@@0@Z 0045c180 f i Game.obj
 0001:0005b190       ??$_Move@PAPAUpartyMember@CGame@@PAPAU12@@std@@YAPAPAUpartyMember@CGame@@PAPAU12@00U_Scalar_ptr_iterator_tag@0@@Z 0045c190 f i Game.obj
 0001:0005b1d0       ??$_Ptr_cat@PAUguildMember@CGame@@PAU12@@std@@YA?AU_Scalar_ptr_iterator_tag@0@PAPAUguildMember@CGame@@0@Z 0045c1d0 f i Game.obj
 0001:0005b1e0       ??$_Move@PAPAUguildMember@CGame@@PAPAU12@@std@@YAPAPAUguildMember@CGame@@PAPAU12@00U_Scalar_ptr_iterator_tag@0@@Z 0045c1e0 f i Game.obj
 0001:0005b220       ??$_Iter_cat@V?$_Tree_const_iterator@V?$_Tree_val@V?$_Tset_traits@V?$basic_string@DU?$char_traits@D@std@@V?$allocator@D@2@@std@@U?$less@V?$basic_string@DU?$char_traits@D@std@@V?$allocator@D@2@@std@@@2@V?$allocator@V?$basic_string@DU?$char_traits@D@std@@V?$allocator@D@2@@std@@@2@$0A@@std@@@std@@@std@@@std@@YA?AUbidirectional_iterator_tag@0@ABV?$_Tree_const_iterator@V?$_Tree_val@V?$_Tset_traits@V?$basic_string@DU?$char_traits@D@std@@V?$allocator@D@2@@std@@U?$less@V?$basic_string@DU?$char_traits@D@std@@V?$allocator@D@2@@std@@@2@V?$allocator@V?$basic_string@DU?$char_traits@D@std@@V?$allocator@D@2@@std@@@2@$0A@@std@@@std@@@0@@Z 0045c220 f i Game.obj
 0001:0005b230       ??$forward@U?$pair@$$CBEPBD@std@@@std@@YA$$QAU?$pair@$$CBEPBD@0@AAU10@@Z 0045c230 f i Game.obj
 0001:0005b240       ??$?8DD@std@@YA_NABV?$allocator@D@0@0@Z 0045c240 f i Game.obj
 0001:0005b250       ??$_Val_type@PAPAVCMsg@@@std@@YAPAPAVCMsg@@PAPAV1@@Z 0045c250 f i Game.obj
 0001:0005b260       ??$_Destroy_range@V?$allocator@PAVCMsg@@@std@@@std@@YAXPAPAVCMsg@@0AAV?$allocator@PAVCMsg@@@0@U_Scalar_ptr_iterator_tag@0@@Z 0045c260 f i Game.obj
 0001:0005b270       ??$_Ptr_cat@V?$basic_string@DU?$char_traits@D@std@@V?$allocator@D@2@@std@@V12@@std@@YA?AU_Nonscalar_ptr_iterator_tag@0@PAV?$basic_string@DU?$char_traits@D@std@@V?$allocator@D@2@@0@0@Z 0045c270 f i Game.obj
 0001:0005b280       ??$_Destroy_range@V?$allocator@PAUpartyMember@CGame@@@std@@@std@@YAXPAPAUpartyMember@CGame@@0AAV?$allocator@PAUpartyMember@CGame@@@0@U_Scalar_ptr_iterator_tag@0@@Z 0045c280 f i Game.obj
 0001:0005b290       ??$_Destroy_range@V?$allocator@PAUguildMember@CGame@@@std@@@std@@YAXPAPAUguildMember@CGame@@0AAV?$allocator@PAUguildMember@CGame@@@0@U_Scalar_ptr_iterator_tag@0@@Z 0045c290 f i Game.obj
 0001:0005b2a0       ??$_Move@PAHPAH@std@@YAPAHPAH00U_Scalar_ptr_iterator_tag@0@@Z 0045c2a0 f i Game.obj
 0001:0005b2e0       ??$forward@AAV?$_Tree_const_iterator@V?$_Tree_val@V?$_Tset_traits@V?$basic_string@DU?$char_traits@D@std@@V?$allocator@D@2@@std@@U?$less@V?$basic_string@DU?$char_traits@D@std@@V?$allocator@D@2@@std@@@2@V?$allocator@V?$basic_string@DU?$char_traits@D@std@@V?$allocator@D@2@@std@@@2@$0A@@std@@@std@@@std@@@std@@YAAAV?$_Tree_const_iterator@V?$_Tree_val@V?$_Tset_traits@V?$basic_string@DU?$char_traits@D@std@@V?$allocator@D@2@@std@@U?$less@V?$basic_string@DU?$char_traits@D@std@@V?$allocator@D@2@@std@@@2@V?$allocator@V?$basic_string@DU?$char_traits@D@std@@V?$allocator@D@2@@std@@@2@$0A@@std@@@std@@@0@AAV10@@Z 0045c2e0 f i Game.obj
 0001:0005b2f0       ??$?0AAV?$_Tree_const_iterator@V?$_Tree_val@V?$_Tset_traits@V?$basic_string@DU?$char_traits@D@std@@V?$allocator@D@2@@std@@U?$less@V?$basic_string@DU?$char_traits@D@std@@V?$allocator@D@2@@std@@@2@V?$allocator@V?$basic_string@DU?$char_traits@D@std@@V?$allocator@D@2@@std@@@2@$0A@@std@@@std@@@std@@AAV01@@?$_Pair_base@V?$_Tree_const_iterator@V?$_Tree_val@V?$_Tset_traits@V?$basic_string@DU?$char_traits@D@std@@V?$allocator@D@2@@std@@U?$less@V?$basic_string@DU?$char_traits@D@std@@V?$allocator@D@2@@std@@@2@V?$allocator@V?$basic_string@DU?$char_traits@D@std@@V?$allocator@D@2@@std@@@2@$0A@@std@@@std@@@std@@V12@@std@@QAE@AAV?$_Tree_const_iterator@V?$_Tree_val@V?$_Tset_traits@V?$basic_string@DU?$char_traits@D@std@@V?$allocator@D@2@@std@@U?$less@V?$basic_string@DU?$char_traits@D@std@@V?$allocator@D@2@@std@@@2@V?$allocator@V?$basic_string@DU?$char_traits@D@std@@V?$allocator@D@2@@std@@@2@$0A@@std@@@std@@@1@0@Z 0045c2f0 f i Game.obj
 0001:0005b310       ??$_Ptr_cat@V?$_List_iterator@V?$_List_val@U?$pair@$$CBEPBD@std@@V?$allocator@U?$pair@$$CBEPBD@std@@@2@@std@@@std@@V12@@std@@YA?AU_Nonscalar_ptr_iterator_tag@0@PAV?$_List_iterator@V?$_List_val@U?$pair@$$CBEPBD@std@@V?$allocator@U?$pair@$$CBEPBD@std@@@2@@std@@@0@0@Z 0045c310 f i Game.obj
 0001:0005b320       ??$_Unchecked@PAV?$_List_iterator@V?$_List_val@U?$pair@$$CBEPBD@std@@V?$allocator@U?$pair@$$CBEPBD@std@@@2@@std@@@std@@@std@@YAPAV?$_List_iterator@V?$_List_val@U?$pair@$$CBEPBD@std@@V?$allocator@U?$pair@$$CBEPBD@std@@@2@@std@@@0@PAV10@@Z 0045c320 f i Game.obj
 0001:0005b330       ??$_Fill@PAV?$_List_iterator@V?$_List_val@U?$pair@$$CBEPBD@std@@V?$allocator@U?$pair@$$CBEPBD@std@@@2@@std@@@std@@V12@@std@@YAXPAV?$_List_iterator@V?$_List_val@U?$pair@$$CBEPBD@std@@V?$allocator@U?$pair@$$CBEPBD@std@@@2@@std@@@0@0ABV10@@Z 0045c330 f i Game.obj
 0001:0005b360       ??$_Copy_backward@PAV?$_List_iterator@V?$_List_val@U?$pair@$$CBEPBD@std@@V?$allocator@U?$pair@$$CBEPBD@std@@@2@@std@@@std@@PAV12@@std@@YAPAV?$_List_iterator@V?$_List_val@U?$pair@$$CBEPBD@std@@V?$allocator@U?$pair@$$CBEPBD@std@@@2@@std@@@0@PAV10@00U_Nonscalar_ptr_iterator_tag@0@@Z 0045c360 f i Game.obj
 0001:0005b390       ??$_Val_type@PAV?$_List_iterator@V?$_List_val@U?$pair@$$CBEPBD@std@@V?$allocator@U?$pair@$$CBEPBD@std@@@2@@std@@@std@@@std@@YAPAV?$_List_iterator@V?$_List_val@U?$pair@$$CBEPBD@std@@V?$allocator@U?$pair@$$CBEPBD@std@@@2@@std@@@0@PAV10@@Z 0045c390 f i Game.obj
 0001:0005b3a0       ??$_Destroy@U?$pair@QAVCItem@@K@std@@@std@@YAXPAU?$pair@QAVCItem@@K@0@@Z 0045c3a0 f i Game.obj
 0001:0005b3b0       ??$_Construct@PAVCMsg@@ABQAV1@@std@@YAXPAPAVCMsg@@ABQAV1@@Z 0045c3b0 f i Game.obj
 0001:0005b3d0       ??$_Destroy@U_Node@?$_List_nod@U?$pair@$$CBEPBD@std@@V?$allocator@U?$pair@$$CBEPBD@std@@@2@@std@@@std@@YAXPAU_Node@?$_List_nod@U?$pair@$$CBEPBD@std@@V?$allocator@U?$pair@$$CBEPBD@std@@@2@@0@@Z 0045c3d0 f i Game.obj
 0001:0005b3e0       ??$move@AAV?$_Tree_const_iterator@V?$_Tree_val@V?$_Tset_traits@V?$basic_string@DU?$char_traits@D@std@@V?$allocator@D@2@@std@@U?$less@V?$basic_string@DU?$char_traits@D@std@@V?$allocator@D@2@@std@@@2@V?$allocator@V?$basic_string@DU?$char_traits@D@std@@V?$allocator@D@2@@std@@@2@$0A@@std@@@std@@@std@@@std@@YA$$QAV?$_Tree_const_iterator@V?$_Tree_val@V?$_Tset_traits@V?$basic_string@DU?$char_traits@D@std@@V?$allocator@D@2@@std@@U?$less@V?$basic_string@DU?$char_traits@D@std@@V?$allocator@D@2@@std@@@2@V?$allocator@V?$basic_string@DU?$char_traits@D@std@@V?$allocator@D@2@@std@@@2@$0A@@std@@@std@@@0@AAV10@@Z 0045c3e0 f i Game.obj
 0001:0005b3f0       ??$move@AA_N@std@@YA$$QA_NAA_N@Z 0045c3f0 f i Game.obj
 0001:0005b400       ?_Unchecked@?$_String_iterator@DU?$char_traits@D@std@@V?$allocator@D@2@@std@@QBEPADXZ 0045c400 f i Game.obj
 0001:0005b410       ?_Rechecked@?$_Vector_iterator@V?$_Vector_val@PAVCMsg@@V?$allocator@PAVCMsg@@@std@@@std@@@std@@QAEAAV12@PAPAVCMsg@@@Z 0045c410 f i Game.obj
 0001:0005b430       ?_Unchecked@?$_Vector_iterator@V?$_Vector_val@PAVCMsg@@V?$allocator@PAVCMsg@@@std@@@std@@@std@@QBEPAPAVCMsg@@XZ 0045c430 f i Game.obj
 0001:0005b440       ?base@?$_Revranit@V?$_Vector_iterator@V?$_Vector_val@PAVCMsg@@V?$allocator@PAVCMsg@@@std@@@std@@@std@@U?$iterator@Urandom_access_iterator_tag@std@@PAVCMsg@@HPAPAV3@AAPAV3@@2@@std@@QBE?AV?$_Vector_iterator@V?$_Vector_val@PAVCMsg@@V?$allocator@PAVCMsg@@@std@@@std@@@2@XZ 0045c440 f i Game.obj
 0001:0005b460       ??0?$allocator@V?$_Function_impl0@X@tr1@std@@@std@@QAE@XZ 0045c460 f i Game.obj
 0001:0005b470       ??D?$_String_const_iterator@DU?$char_traits@D@std@@V?$allocator@D@2@@std@@QBEABDXZ 0045c470 f i Game.obj
 0001:0005b480       ??E?$_String_const_iterator@DU?$char_traits@D@std@@V?$allocator@D@2@@std@@QAEAAV01@XZ 0045c480 f i Game.obj
 0001:0005b490       ?max_size@?$allocator@U?$pair@QAVCItem@@K@std@@@std@@QBEIXZ 0045c490 f i Game.obj
 0001:0005b4a0       ??$_Move@AAPAVCMsg@@@std@@YA$$QAPAVCMsg@@AAPAV1@@Z 0045c4a0 f i Game.obj
 0001:0005b4b0       ??$_Find_if@PAPAVCMsg@@P6A_NPBV1@@Z@std@@YAPAPAVCMsg@@PAPAV1@0P6A_NPBV1@@Z@Z 0045c4b0 f i Game.obj
 0001:0005b4f0       ??$_Fill_n@PAPAVCMsg@@IPAV1@@std@@YAXPAPAVCMsg@@IABQAV1@@Z 0045c4f0 f i Game.obj
 0001:0005b520       ??$move@AAV?$basic_string@DU?$char_traits@D@std@@V?$allocator@D@2@@std@@@std@@YA$$QAV?$basic_string@DU?$char_traits@D@std@@V?$allocator@D@2@@0@AAV10@@Z 0045c520 f i Game.obj
 0001:0005b530       ??$_Uninit_move@PAVCMsg@@PAV1@PAV1@@std@@YAPAPAVCMsg@@PAPAV1@00AAV?$allocator@PAVCMsg@@@0@0U_Scalar_ptr_iterator_tag@0@@Z 0045c530 f i Game.obj
 0001:0005b570       ??$_Val_type@PAV?$basic_string@DU?$char_traits@D@std@@V?$allocator@D@2@@std@@@std@@YAPAV?$basic_string@DU?$char_traits@D@std@@V?$allocator@D@2@@0@PAV10@@Z 0045c570 f i Game.obj
 0001:0005b580       ??$_Val_type@PAPAUpartyMember@CGame@@@std@@YAPAPAUpartyMember@CGame@@PAPAU12@@Z 0045c580 f i Game.obj
 0001:0005b590       ??$_Uninit_move@PAUpartyMember@CGame@@PAU12@PAU12@@std@@YAPAPAUpartyMember@CGame@@PAPAU12@00AAV?$allocator@PAUpartyMember@CGame@@@0@0U_Scalar_ptr_iterator_tag@0@@Z 0045c590 f i Game.obj
 0001:0005b5d0       ??$_Val_type@PAPAUguildMember@CGame@@@std@@YAPAPAUguildMember@CGame@@PAPAU12@@Z 0045c5d0 f i Game.obj
 0001:0005b5e0       ??$_Uninit_move@PAUguildMember@CGame@@PAU12@PAU12@@std@@YAPAPAUguildMember@CGame@@PAPAU12@00AAV?$allocator@PAUguildMember@CGame@@@0@0U_Scalar_ptr_iterator_tag@0@@Z 0045c5e0 f i Game.obj
 0001:0005b620       ??$move@AAV?$_List_iterator@V?$_List_val@U?$pair@$$CBEPBD@std@@V?$allocator@U?$pair@$$CBEPBD@std@@@2@@std@@@std@@@std@@YA$$QAV?$_List_iterator@V?$_List_val@U?$pair@$$CBEPBD@std@@V?$allocator@U?$pair@$$CBEPBD@std@@@2@@std@@@0@AAV10@@Z 0045c620 f i Game.obj
 0001:0005b630       ??$?0AAV?$_Tree_const_iterator@V?$_Tree_val@V?$_Tset_traits@V?$basic_string@DU?$char_traits@D@std@@V?$allocator@D@2@@std@@U?$less@V?$basic_string@DU?$char_traits@D@std@@V?$allocator@D@2@@std@@@2@V?$allocator@V?$basic_string@DU?$char_traits@D@std@@V?$allocator@D@2@@std@@@2@$0A@@std@@@std@@@std@@_N@?$_Pair_base@V?$_Tree_const_iterator@V?$_Tree_val@V?$_Tset_traits@V?$basic_string@DU?$char_traits@D@std@@V?$allocator@D@2@@std@@U?$less@V?$basic_string@DU?$char_traits@D@std@@V?$allocator@D@2@@std@@@2@V?$allocator@V?$basic_string@DU?$char_traits@D@std@@V?$allocator@D@2@@std@@@2@$0A@@std@@@std@@@std@@_N@std@@QAE@AAV?$_Tree_const_iterator@V?$_Tree_val@V?$_Tset_traits@V?$basic_string@DU?$char_traits@D@std@@V?$allocator@D@2@@std@@U?$less@V?$basic_string@DU?$char_traits@D@std@@V?$allocator@D@2@@std@@@2@V?$allocator@V?$basic_string@DU?$char_traits@D@std@@V?$allocator@D@2@@std@@@2@$0A@@std@@@std@@@1@$$QA_N@Z 0045c630 f i Game.obj
 0001:0005b650       ??$forward@AAV?$_List_iterator@V?$_List_val@U?$pair@$$CBEPBD@std@@V?$allocator@U?$pair@$$CBEPBD@std@@@2@@std@@@std@@@std@@YAAAV?$_List_iterator@V?$_List_val@U?$pair@$$CBEPBD@std@@V?$allocator@U?$pair@$$CBEPBD@std@@@2@@std@@@0@AAV10@@Z 0045c650 f i Game.obj
 0001:0005b660       ??$?0AAV?$_List_iterator@V?$_List_val@U?$pair@$$CBEPBD@std@@V?$allocator@U?$pair@$$CBEPBD@std@@@2@@std@@@std@@_N@?$_Pair_base@V?$_List_iterator@V?$_List_val@U?$pair@$$CBEPBD@std@@V?$allocator@U?$pair@$$CBEPBD@std@@@2@@std@@@std@@_N@std@@QAE@AAV?$_List_iterator@V?$_List_val@U?$pair@$$CBEPBD@std@@V?$allocator@U?$pair@$$CBEPBD@std@@@2@@std@@@1@$$QA_N@Z 0045c660 f i Game.obj
 0001:0005b680       ??$_Kfn@QAVCItem@@K@?$_Tmap_traits@PAVCItem@@KUItemMapComp@@V?$allocator@U?$pair@QAVCItem@@K@std@@@std@@$00@std@@SAABQAVCItem@@ABU?$pair@QAVCItem@@K@1@@Z 0045c680 f i Game.obj
 0001:0005b690       ??$move@AAV?$_Tree_iterator@V?$_Tree_val@V?$_Tmap_traits@PAVCItem@@KUItemMapComp@@V?$allocator@U?$pair@QAVCItem@@K@std@@@std@@$00@std@@@std@@@std@@@std@@YA$$QAV?$_Tree_iterator@V?$_Tree_val@V?$_Tmap_traits@PAVCItem@@KUItemMapComp@@V?$allocator@U?$pair@QAVCItem@@K@std@@@std@@$00@std@@@std@@@0@AAV10@@Z 0045c690 f i Game.obj
 0001:0005b6a0       ??0?$allocator@V?$_Impl_no_alloc0@U?$_Callable_obj@V?$_Bind_fty@V?$mem_fun_t@XVCGame@@@std@@U_Notforced@tr1@2@V?$_Bind1@U?$_Callable_obj@V?$mem_fun_t@XVCGame@@@std@@$0A@@tr1@std@@PAVCGame@@@42@@tr1@std@@$0A@@tr1@std@@X@tr1@std@@@std@@QAE@XZ 0045c6a0 f i Game.obj
 0001:0005b6b0       ??0?$allocator@V?$_Impl_no_alloc0@U?$_Callable_obj@V?$_Bind_fty@V?$mem_fun_t@XVCGame@@@std@@U_Notforced@tr1@2@V?$_Bind1@U?$_Callable_obj@V?$mem_fun_t@XVCGame@@@std@@$0A@@tr1@std@@PAVCGame@@@42@@tr1@std@@$0A@@tr1@std@@X@tr1@std@@@std@@QAE@ABV01@@Z 0045c6b0 f i Game.obj
 0001:0005b6c0       ??0?$_Impl_base0@X@tr1@std@@QAE@XZ 0045c6c0 f i Game.obj
 0001:0005b6d0       ??0?$_Callable_base@V?$_Bind_fty@V?$mem_fun_t@XVCGame@@@std@@U_Notforced@tr1@2@V?$_Bind1@U?$_Callable_obj@V?$mem_fun_t@XVCGame@@@std@@$0A@@tr1@std@@PAVCGame@@@42@@tr1@std@@$0A@@tr1@std@@QAE@AAV?$_Bind_fty@V?$mem_fun_t@XVCGame@@@std@@U_Notforced@tr1@2@V?$_Bind1@U?$_Callable_obj@V?$mem_fun_t@XVCGame@@@std@@$0A@@tr1@std@@PAVCGame@@@42@@12@@Z 0045c6d0 f i Game.obj
 0001:0005b6f0       ??$?0V?$_Function_impl0@X@tr1@std@@@?$allocator@V?$_Impl_no_alloc0@U?$_Callable_obj@V?$_Bind_fty@V?$mem_fun_t@XVCGame@@@std@@U_Notforced@tr1@2@V?$_Bind1@U?$_Callable_obj@V?$mem_fun_t@XVCGame@@@std@@$0A@@tr1@std@@PAVCGame@@@42@@tr1@std@@$0A@@tr1@std@@X@tr1@std@@@std@@QAE@ABV?$allocator@V?$_Function_impl0@X@tr1@std@@@1@@Z 0045c6f0 f i Game.obj
 0001:0005b700       ??$_Ptr_cat@PAPAVCMsg@@V?$_Vector_iterator@V?$_Vector_val@PAVCMsg@@V?$allocator@PAVCMsg@@@std@@@std@@@std@@@std@@YA?AU_Nonscalar_ptr_iterator_tag@0@AAPAPAVCMsg@@AAV?$_Vector_iterator@V?$_Vector_val@PAVCMsg@@V?$allocator@PAVCMsg@@@std@@@std@@@0@@Z 0045c700 f i Game.obj
 0001:0005b710       ??$forward@ABV?$_List_iterator@V?$_List_val@U?$pair@$$CBEPBD@std@@V?$allocator@U?$pair@$$CBEPBD@std@@@2@@std@@@std@@@std@@YAABV?$_List_iterator@V?$_List_val@U?$pair@$$CBEPBD@std@@V?$allocator@U?$pair@$$CBEPBD@std@@@2@@std@@@0@ABV10@@Z 0045c710 f i Game.obj
 0001:0005b720       ??$forward@AAV?$_Tree_iterator@V?$_Tree_val@V?$_Tmap_traits@PAVCItem@@KUItemMapComp@@V?$allocator@U?$pair@QAVCItem@@K@std@@@std@@$00@std@@@std@@@std@@@std@@YAAAV?$_Tree_iterator@V?$_Tree_val@V?$_Tmap_traits@PAVCItem@@KUItemMapComp@@V?$allocator@U?$pair@QAVCItem@@K@std@@@std@@$00@std@@@std@@@0@AAV10@@Z 0045c720 f i Game.obj
 0001:0005b730       ??$?0AAV?$_Tree_iterator@V?$_Tree_val@V?$_Tmap_traits@PAVCItem@@KUItemMapComp@@V?$allocator@U?$pair@QAVCItem@@K@std@@@std@@$00@std@@@std@@@std@@_N@?$_Pair_base@V?$_Tree_iterator@V?$_Tree_val@V?$_Tmap_traits@PAVCItem@@KUItemMapComp@@V?$allocator@U?$pair@QAVCItem@@K@std@@@std@@$00@std@@@std@@@std@@_N@std@@QAE@AAV?$_Tree_iterator@V?$_Tree_val@V?$_Tmap_traits@PAVCItem@@KUItemMapComp@@V?$allocator@U?$pair@QAVCItem@@K@std@@@std@@$00@std@@@std@@@1@$$QA_N@Z 0045c730 f i Game.obj
 0001:0005b750       ??$_Construct@V?$_List_iterator@V?$_List_val@U?$pair@$$CBEPBD@std@@V?$allocator@U?$pair@$$CBEPBD@std@@@2@@std@@@std@@ABV12@@std@@YAXPAV?$_List_iterator@V?$_List_val@U?$pair@$$CBEPBD@std@@V?$allocator@U?$pair@$$CBEPBD@std@@@2@@std@@@0@ABV10@@Z 0045c750 f i Game.obj
 0001:0005b770       ??$_Destroy@V?$_List_iterator@V?$_List_val@U?$pair@$$CBEPBD@std@@V?$allocator@U?$pair@$$CBEPBD@std@@@2@@std@@@std@@@std@@YAXPAV?$_List_iterator@V?$_List_val@U?$pair@$$CBEPBD@std@@V?$allocator@U?$pair@$$CBEPBD@std@@@2@@std@@@0@@Z 0045c770 f i Game.obj
 0001:0005b780       ??$_Allocate@V?$_Impl_no_alloc0@U?$_Callable_obj@V?$_Bind_fty@V?$mem_fun_t@XVCGame@@@std@@U_Notforced@tr1@2@V?$_Bind1@U?$_Callable_obj@V?$mem_fun_t@XVCGame@@@std@@$0A@@tr1@std@@PAVCGame@@@42@@tr1@std@@$0A@@tr1@std@@X@tr1@std@@@std@@YAPAV?$_Impl_no_alloc0@U?$_Callable_obj@V?$_Bind_fty@V?$mem_fun_t@XVCGame@@@std@@U_Notforced@tr1@2@V?$_Bind1@U?$_Callable_obj@V?$mem_fun_t@XVCGame@@@std@@$0A@@tr1@std@@PAVCGame@@@42@@tr1@std@@$0A@@tr1@std@@X@tr1@0@IPAV120@@Z 0045c780 f i Game.obj
 0001:0005b7f0       ??$move@AAPAVCMsg@@@std@@YA$$QAPAVCMsg@@AAPAV1@@Z 0045c7f0 f i Game.obj
 0001:0005b800       ??$addressof@U?$pair@$$CBEPBD@std@@@std@@YAPAU?$pair@$$CBEPBD@0@AAU10@@Z 0045c800 f i Game.obj
 0001:0005b810       ??$forward@V?$_List_iterator@V?$_List_val@U?$pair@$$CBEPBD@std@@V?$allocator@U?$pair@$$CBEPBD@std@@@2@@std@@@std@@@std@@YA$$QAV?$_List_iterator@V?$_List_val@U?$pair@$$CBEPBD@std@@V?$allocator@U?$pair@$$CBEPBD@std@@@2@@std@@@0@AAV10@@Z 0045c810 f i Game.obj
 0001:0005b820       ??$forward@PAVCItem@@@std@@YA$$QAPAVCItem@@AAPAV1@@Z 0045c820 f i Game.obj
 0001:0005b830       ??$forward@K@std@@YA$$QAKAAK@Z 0045c830 f i Game.obj
 0001:0005b840       ??$?0PAVCItem@@K@?$_Pair_base@QAVCItem@@K@std@@QAE@$$QAPAVCItem@@$$QAK@Z 0045c840 f i Game.obj
 0001:0005b860       ??$forward@$$CBE@std@@YA$$QBEABE@Z 0045c860 f i Game.obj
 0001:0005b870       ??$forward@PBD@std@@YA$$QAPBDAAPBD@Z 0045c870 f i Game.obj
 0001:0005b880       ??$move@ABE@std@@YA$$QBEABE@Z 0045c880 f i Game.obj
 0001:0005b890       ?pow@@YAMMH@Z              0045c890 f i Game.obj
 0001:0005b8b0       ??_Eruntime_error@std@@UAEPAXI@Z 0045c8b0 f i Game.obj
 0001:0005b8b0       ??_Gruntime_error@std@@UAEPAXI@Z 0045c8b0 f i Game.obj
 0001:0005b8e0       ?c_str@locale@std@@QBEPBDXZ 0045c8e0 f i Game.obj
 0001:0005b8f0       ??0?$ctype@D@std@@QAE@ABV_Locinfo@1@I@Z 0045c8f0 f i Game.obj
 0001:0005b950       ?_Tidy@?$ctype@D@std@@IAEXXZ 0045c950 f i Game.obj
 0001:0005b980       ?do_tolower@?$ctype@D@std@@MBEDD@Z 0045c980 f i Game.obj
 0001:0005b9a0       ?do_tolower@?$ctype@D@std@@MBEPBDPADPBD@Z 0045c9a0 f i Game.obj
 0001:0005b9e0       ?do_toupper@?$ctype@D@std@@MBEDD@Z 0045c9e0 f i Game.obj
 0001:0005ba00       ?do_toupper@?$ctype@D@std@@MBEPBDPADPBD@Z 0045ca00 f i Game.obj
 0001:0005ba40       ?do_widen@?$ctype@D@std@@MBEDD@Z 0045ca40 f i Game.obj
 0001:0005ba50       ?do_widen@?$ctype@D@std@@MBEPBDPBD0PAD@Z 0045ca50 f i Game.obj
 0001:0005ba80       ?do_narrow@?$ctype@D@std@@MBEDDD@Z 0045ca80 f i Game.obj
 0001:0005ba90       ?do_narrow@?$ctype@D@std@@MBEPBDPBD0DPAD@Z 0045ca90 f i Game.obj
 0001:0005bac0       ??1?$ctype@D@std@@MAE@XZ   0045cac0 f i Game.obj
 0001:0005bb10       ??_G?$ctype@D@std@@MAEPAXI@Z 0045cb10 f i Game.obj
 0001:0005bb10       ??_E?$ctype@D@std@@MAEPAXI@Z 0045cb10 f i Game.obj
 0001:0005bb70       ??0system_error@std@@QAE@Verror_code@1@PBD@Z 0045cb70 f i Game.obj
 0001:0005bbb0       ??_Esystem_error@std@@UAEPAXI@Z 0045cbb0 f i Game.obj
 0001:0005bbb0       ??_Gsystem_error@std@@UAEPAXI@Z 0045cbb0 f i Game.obj
 0001:0005bbe0       ??0failure@ios_base@std@@QAE@PBDABVerror_code@2@@Z 0045cbe0 f i Game.obj
 0001:0005bc30       ??1failure@ios_base@std@@UAE@XZ 0045cc30 f i Game.obj
 0001:0005bc40       ?clear@ios_base@std@@QAEXH_N@Z 0045cc40 f i Game.obj
 0001:0005bd60       ??0runtime_error@std@@QAE@ABV01@@Z 0045cd60 f i Game.obj
 0001:0005bd90       ??0system_error@std@@QAE@ABV01@@Z 0045cd90 f i Game.obj
 0001:0005bdd0       ?clear@ios_base@std@@QAEXH@Z 0045cdd0 f i Game.obj
 0001:0005bdf0       ?_Init@ios_base@std@@IAEXXZ 0045cdf0 f i Game.obj
 0001:0005bea0       ??_Gfailure@ios_base@std@@UAEPAXI@Z 0045cea0 f i Game.obj
 0001:0005bea0       ??_Efailure@ios_base@std@@UAEPAXI@Z 0045cea0 f i Game.obj
 0001:0005bed0       ??0failure@ios_base@std@@QAE@ABV012@@Z 0045ced0 f i Game.obj
 0001:0005bf10       ?WritePlayerSettings@CGame@@QAEXPAD@Z 0045cf10 f   Game.obj
 0001:0005d430       ?cGetNextMoveDir@CGame@@QAEDFFFFHH@Z 0045e430 f   Game.obj
 0001:0005d660       ?SendLoginCommand@CGame@@QAEHK@Z 0045e660 f   Game.obj
 0001:0005dbd0       ?ConnectionEstablishHandler@CGame@@QAEXD@Z 0045ebd0 f   Game.obj
 0001:0005dcf0       ?UpdateScreen_OnMainMenu@CGame@@QAEXXZ 0045ecf0 f   Game.obj
 0001:0005e390       ?UpdateScreen_OnLoading_Progress@CGame@@QAEXXZ 0045f390 f   Game.obj
 0001:0005e430       ?bAddNewEffect@CGame@@QAEXFHHHHDH@Z 0045f430 f   Game.obj
 0001:00061e50       ?DrawEffects@CGame@@QAEXXZ 00462e50 f   Game.obj
 0001:00065690       ?_LoadShopMenuContents@CGame@@QAEXD@Z 00466690 f   Game.obj
 0001:00065920       ?bInitMagicCfgList@CGame@@QAEHXZ 00466920 f   Game.obj
 0001:000662c0       ?bInitSkillCfgList@CGame@@QAEHXZ 004672c0 f   Game.obj
 0001:00066840       ?RequestFullObjectData@CGame@@QAEXG@Z 00467840 f   Game.obj
 0001:000669b0       ?LogEventHandler@CGame@@QAEXPAD@Z 004679b0 f   Game.obj
 0001:00066c20       ?LogResponseHandler@CGame@@QAEXPAD@Z 00467c20 f   Game.obj
 0001:00067e40       ?LogRecvMsgHandler@CGame@@QAEXPAD@Z 00468e40 f   Game.obj
 0001:00067e50       ?UpdateScreen_OnMsg@CGame@@QAEXXZ 00468e50 f   Game.obj
 0001:00067f70       ?DrawBackground@CGame@@QAEXFFFF@Z 00468f70 f   Game.obj
 0001:00068330       ?bEffectFrameCounter@CGame@@QAEHXZ 00469330 f   Game.obj
 0001:0006cca0       ?GetPlayerTurn@CGame@@QAEXXZ 0046dca0 f   Game.obj
 0001:0006ce80       ?GetText@CGame@@QAE_NPAUHWND__@@IIJ@Z 0046de80 f   Game.obj
 0001:0006cfc0       ?MeteorStrikeComing@CGame@@QAEXH@Z 0046dfc0 f   Game.obj
 0001:0006d040       ?DrawObjectFOE@CGame@@QAEXHHH@Z 0046e040 f   Game.obj
 0001:0006d0d0       ?DrawDialogBox_ItemDrop@CGame@@QAEXXZ 0046e0d0 f   Game.obj
 0001:0006d590       ?DlgBoxClick_Slates@CGame@@QAEXXZ 0046e590 f   Game.obj
 0001:0006d610       ?DrawChatMsgBox@CGame@@QAEXFFHH@Z 0046e610 f   Game.obj
 0001:0006e250       ?DrawDialogBox_GuildContribute@CGame@@QAEXXZ 0046f250 f   Game.obj
 0001:0006e600       ?SetWhetherStatus@CGame@@QAEXHD@Z 0046f600 f   Game.obj
 0001:0006e760       ?DlgBoxPress_SkillDlg@CGame@@QAEHXZ 0046f760 f   Game.obj
 0001:0006f1c0       ?NotifyMsg_WhetherChange@CGame@@QAEXPAD@Z 004701c0 f   Game.obj
 0001:0006f200       ?CreateScreenShot@CGame@@QAEXXZ 00470200 f   Game.obj
 0001:0006f460       ?UpdateScreen_OnWaitInitData@CGame@@QAEXXZ 00470460 f   Game.obj
 0001:0006f790       ?UpdateScreen_OnConnectionLost@CGame@@QAEXXZ 00470790 f   Game.obj
 0001:0006f990       ?UpdateScreen_OnAgreement@CGame@@QAEXXZ 00470990 f   Game.obj
 0001:00070010       ?UpdateScreen_OnCreateNewAccount@CGame@@QAEXXZ 00471010 f   Game.obj
 0001:000717f0       ?UpdateScreen_OnLogin@CGame@@QAEXXZ 004727f0 f   Game.obj
 0001:000723a0       ?UpdateScreen_OnSelectServer@CGame@@QAEXXZ 004733a0 f   Game.obj
 0001:00072b60       ?UpdateScreen_OnQuit@CGame@@QAEXXZ 00473b60 f   Game.obj
 0001:00072ec0       ?DrawNpcName@CGame@@QAEXFFFHHH@Z 00473ec0 f   Game.obj
 0001:00073470       ?UpdateScreen_OnVersionNotMatch@CGame@@QAEXXZ 00474470 f   Game.obj
 0001:00073870       ?DrawDialogBox_Magic@CGame@@QAEXXZ 00474870 f   Game.obj
 0001:00074b60       ?CalcTotalItemEffect@CGame@@QAEXXZ 00475b60 f   Game.obj
 0001:000762c0       ?c_str@?$basic_string@DU?$char_traits@D@std@@V?$allocator@D@2@@std@@QBEPBDXZ 004772c0 f i Game.obj
 0001:000762d0       ??1?$_Yarn@D@std@@QAE@XZ   004772d0 f i Game.obj
 0001:000762f0       ??1?$basic_streambuf@DU?$char_traits@D@std@@@std@@UAE@XZ 004772f0 f i Game.obj
 0001:00076390       ?to_char_type@?$char_traits@D@std@@SADABH@Z 00477390 f i Game.obj
 0001:000763a0       ?_Lock@?$basic_streambuf@DU?$char_traits@D@std@@@std@@UAEXXZ 004773a0 f i Game.obj
 0001:000763b0       ?_Unlock@?$basic_streambuf@DU?$char_traits@D@std@@@std@@UAEXXZ 004773b0 f i Game.obj
 0001:000763c0       ?overflow@?$basic_streambuf@DU?$char_traits@D@std@@@std@@MAEHH@Z 004773c0 f i Game.obj
 0001:000763d0       ?pbackfail@?$basic_streambuf@DU?$char_traits@D@std@@@std@@MAEHH@Z 004773d0 f i Game.obj
 0001:000763e0       ?showmanyc@?$basic_streambuf@DU?$char_traits@D@std@@@std@@MAE_JXZ 004773e0 f i Game.obj
 0001:000763f0       ?underflow@?$basic_streambuf@DU?$char_traits@D@std@@@std@@MAEHXZ 004773f0 f i Game.obj
 0001:00076400       ?setbuf@?$basic_streambuf@DU?$char_traits@D@std@@@std@@MAEPAV12@PAD_J@Z 00477400 f i Game.obj
 0001:00076410       ?sync@?$basic_streambuf@DU?$char_traits@D@std@@@std@@MAEHXZ 00477410 f i Game.obj
 0001:00076420       ?imbue@?$basic_streambuf@DU?$char_traits@D@std@@@std@@MAEXABVlocale@2@@Z 00477420 f i Game.obj
 0001:00076430       ?gbump@?$basic_streambuf@DU?$char_traits@D@std@@@std@@IAEXH@Z 00477430 f i Game.obj
 0001:00076450       ?_Gninc@?$basic_streambuf@DU?$char_traits@D@std@@@std@@IAEPADXZ 00477450 f i Game.obj
 0001:00076470       ?_Gnavail@?$basic_streambuf@DU?$char_traits@D@std@@@std@@IBE_JXZ 00477470 f i Game.obj
 0001:00076490       ?pbump@?$basic_streambuf@DU?$char_traits@D@std@@@std@@IAEXH@Z 00477490 f i Game.obj
 0001:000764b0       ??0?$fpos@H@std@@QAE@_J@Z  004774b0 f i Game.obj
 0001:000764e0       ?uflow@?$basic_streambuf@DU?$char_traits@D@std@@@std@@MAEHXZ 004774e0 f i Game.obj
 0001:00076510       ?xsgetn@?$basic_streambuf@DU?$char_traits@D@std@@@std@@MAE_JPAD_J@Z 00477510 f i Game.obj
 0001:00076610       ?xsputn@?$basic_streambuf@DU?$char_traits@D@std@@@std@@MAE_JPBD_J@Z 00477610 f i Game.obj
 0001:00076720       ?seekoff@?$basic_streambuf@DU?$char_traits@D@std@@@std@@MAE?AV?$fpos@H@2@_JHH@Z 00477720 f i Game.obj
 0001:00076750       ?seekpos@?$basic_streambuf@DU?$char_traits@D@std@@@std@@MAE?AV?$fpos@H@2@V32@H@Z 00477750 f i Game.obj
 0001:00076780       ??B?$function@$$A6AXXZ@tr1@std@@QBEPQ_Bool_struct@2@HXZ 00477780 f i Game.obj
 0001:00076790       ??D?$_Tree_iterator@V?$_Tree_val@V?$_Tmap_traits@PAVCItem@@KUItemMapComp@@V?$allocator@U?$pair@QAVCItem@@K@std@@@std@@$00@std@@@std@@@std@@QBEAAU?$pair@QAVCItem@@K@1@XZ 00477790 f i Game.obj
 0001:000767a0       ??D?$_Vector_iterator@V?$_Vector_val@PAVCMsg@@V?$allocator@PAVCMsg@@@std@@@std@@@std@@QBEAAPAVCMsg@@XZ 004777a0 f i Game.obj
 0001:000767b0       ??E?$_Vector_iterator@V?$_Vector_val@PAVCMsg@@V?$allocator@PAVCMsg@@@std@@@std@@@std@@QAEAAV01@XZ 004777b0 f i Game.obj
 0001:000767c0       ??0?$_List_const_iterator@V?$_List_val@U?$pair@$$CBV?$basic_string@DU?$char_traits@D@std@@V?$allocator@D@2@@std@@UGuildMember@@@std@@V?$allocator@U?$pair@$$CBV?$basic_string@DU?$char_traits@D@std@@V?$allocator@D@2@@std@@UGuildMember@@@std@@@2@@std@@@std@@QAE@XZ 004777c0 f i Game.obj
 0001:000767d0       ??D?$_Tree_const_iterator@V?$_Tree_val@V?$_Tset_traits@V?$basic_string@DU?$char_traits@D@std@@V?$allocator@D@2@@std@@U?$less@V?$basic_string@DU?$char_traits@D@std@@V?$allocator@D@2@@std@@@2@V?$allocator@V?$basic_string@DU?$char_traits@D@std@@V?$allocator@D@2@@std@@@2@$0A@@std@@@std@@@std@@QBEABV?$basic_string@DU?$char_traits@D@std@@V?$allocator@D@2@@1@XZ 004777d0 f i Game.obj
 0001:000767e0       ??C?$_Tree_unchecked_const_iterator@V?$_Tree_val@V?$_Tset_traits@V?$basic_string@DU?$char_traits@D@std@@V?$allocator@D@2@@std@@U?$less@V?$basic_string@DU?$char_traits@D@std@@V?$allocator@D@2@@std@@@2@V?$allocator@V?$basic_string@DU?$char_traits@D@std@@V?$allocator@D@2@@std@@@2@$0A@@std@@@std@@U_Iterator_base0@2@@std@@QBEPBV?$basic_string@DU?$char_traits@D@std@@V?$allocator@D@2@@1@XZ 004777e0 f i Game.obj
 0001:000767f0       ??D?$_Vector_iterator@V?$_Vector_val@PAUpartyMember@CGame@@V?$allocator@PAUpartyMember@CGame@@@std@@@std@@@std@@QBEAAPAUpartyMember@CGame@@XZ 004777f0 f i Game.obj
 0001:00076800       ??E?$_Vector_iterator@V?$_Vector_val@PAUpartyMember@CGame@@V?$allocator@PAUpartyMember@CGame@@@std@@@std@@@std@@QAEAAV01@XZ 00477800 f i Game.obj
 0001:00076810       ??M?$_Vector_const_iterator@V?$_Vector_val@PAUpartyMember@CGame@@V?$allocator@PAUpartyMember@CGame@@@std@@@std@@@std@@QBE_NABV01@@Z 00477810 f i Game.obj
 0001:00076830       ??E?$_Vector_iterator@V?$_Vector_val@V?$basic_string@DU?$char_traits@D@std@@V?$allocator@D@2@@std@@V?$allocator@V?$basic_string@DU?$char_traits@D@std@@V?$allocator@D@2@@std@@@2@@std@@@std@@QAEAAV01@XZ 00477830 f i Game.obj
 0001:00076840       ??1?$basic_stringbuf@DU?$char_traits@D@std@@V?$allocator@D@2@@std@@UAE@XZ 00477840 f i Game.obj
 0001:00076860       ?eq@?$char_traits@D@std@@SA_NABD0@Z 00477860 f i Game.obj
 0001:00076880       ??B?$fpos@H@std@@QBE_JXZ   00477880 f i Game.obj
 0001:00076890       ?not_eof@?$char_traits@D@std@@SAHABH@Z 00477890 f i Game.obj
 0001:000768b0       ?pbackfail@?$basic_stringbuf@DU?$char_traits@D@std@@V?$allocator@D@2@@std@@MAEHH@Z 004778b0 f i Game.obj
 0001:00076920       ?underflow@?$basic_stringbuf@DU?$char_traits@D@std@@V?$allocator@D@2@@std@@MAEHXZ 00477920 f i Game.obj
 0001:000769a0       ?seekoff@?$basic_stringbuf@DU?$char_traits@D@std@@V?$allocator@D@2@@std@@MAE?AV?$fpos@H@2@_JHH@Z 004779a0 f i Game.obj
 0001:00076bd0       ?seekpos@?$basic_stringbuf@DU?$char_traits@D@std@@V?$allocator@D@2@@std@@MAE?AV?$fpos@H@2@V32@H@Z 00477bd0 f i Game.obj
 0001:00076d30       ??D?$_Vector_iterator@V?$_Vector_val@PAUguildMember@CGame@@V?$allocator@PAUguildMember@CGame@@@std@@@std@@@std@@QBEAAPAUguildMember@CGame@@XZ 00477d30 f i Game.obj
 0001:00076d40       ??E?$_Vector_iterator@V?$_Vector_val@PAUguildMember@CGame@@V?$allocator@PAUguildMember@CGame@@@std@@@std@@@std@@QAEAAV01@XZ 00477d40 f i Game.obj
 0001:00076d50       ??M?$_Vector_const_iterator@V?$_Vector_val@PAUguildMember@CGame@@V?$allocator@PAUguildMember@CGame@@@std@@@std@@@std@@QBE_NABV01@@Z 00477d50 f i Game.obj
 0001:00076d70       ??_G?$basic_ostream@DU?$char_traits@D@std@@@std@@UAEPAXI@Z 00477d70 f i Game.obj
 0001:00076d70       ??_E?$basic_ostream@DU?$char_traits@D@std@@@std@@UAEPAXI@Z 00477d70 f i Game.obj
 0001:00076dc0       ??_G?$basic_istream@DU?$char_traits@D@std@@@std@@UAEPAXI@Z 00477dc0 f i Game.obj
 0001:00076dc0       ??_E?$basic_istream@DU?$char_traits@D@std@@@std@@UAEPAXI@Z 00477dc0 f i Game.obj
 0001:00076e10       ??_G?$basic_streambuf@DU?$char_traits@D@std@@@std@@UAEPAXI@Z 00477e10 f i Game.obj
 0001:00076e10       ??_E?$basic_streambuf@DU?$char_traits@D@std@@@std@@UAEPAXI@Z 00477e10 f i Game.obj
 0001:00076e40       ??_E?$basic_iostream@DU?$char_traits@D@std@@@std@@UAEPAXI@Z 00477e40 f i Game.obj
 0001:00076e40       ??_G?$basic_iostream@DU?$char_traits@D@std@@@std@@UAEPAXI@Z 00477e40 f i Game.obj
 0001:00076eb0       ??_E?$basic_stringbuf@DU?$char_traits@D@std@@V?$allocator@D@2@@std@@UAEPAXI@Z 00477eb0 f i Game.obj
 0001:00076eb0       ??_G?$basic_stringbuf@DU?$char_traits@D@std@@V?$allocator@D@2@@std@@UAEPAXI@Z 00477eb0 f i Game.obj
 0001:00076ef0       ?find@?$basic_string@DU?$char_traits@D@std@@V?$allocator@D@2@@std@@QBEIPBDII@Z 00477ef0 f i Game.obj
 0001:00076fd0       ?get_allocator@?$basic_string@DU?$char_traits@D@std@@V?$allocator@D@2@@std@@QBE?AV?$allocator@D@2@XZ 00477fd0 f i Game.obj
 0001:00076fe0       ?clear@?$basic_ios@DU?$char_traits@D@std@@@std@@QAEXH_N@Z 00477fe0 f i Game.obj
 0001:00077010       ?sputc@?$basic_streambuf@DU?$char_traits@D@std@@@std@@QAEHD@Z 00478010 f i Game.obj
 0001:00077060       ?_Lmost@?$_Tree@V?$_Tmap_traits@PAVCItem@@KUItemMapComp@@V?$allocator@U?$pair@QAVCItem@@K@std@@@std@@$00@std@@@std@@IBEAAPAU_Node@?$_Tree_nod@V?$_Tmap_traits@PAVCItem@@KUItemMapComp@@V?$allocator@U?$pair@QAVCItem@@K@std@@@std@@$00@std@@@2@XZ 00478060 f i Game.obj
 0001:00077070       ?_Rmost@?$_Tree@V?$_Tmap_traits@PAVCItem@@KUItemMapComp@@V?$allocator@U?$pair@QAVCItem@@K@std@@@std@@$00@std@@@std@@IBEAAPAU_Node@?$_Tree_nod@V?$_Tmap_traits@PAVCItem@@KUItemMapComp@@V?$allocator@U?$pair@QAVCItem@@K@std@@@std@@$00@std@@@2@XZ 00478070 f i Game.obj
 0001:00077080       ?_Root@?$_Tree@V?$_Tmap_traits@PAVCItem@@KUItemMapComp@@V?$allocator@U?$pair@QAVCItem@@K@std@@@std@@$00@std@@@std@@IBEAAPAU_Node@?$_Tree_nod@V?$_Tmap_traits@PAVCItem@@KUItemMapComp@@V?$allocator@U?$pair@QAVCItem@@K@std@@@std@@$00@std@@@2@XZ 00478080 f i Game.obj
 0001:00077090       ?_Rrotate@?$_Tree@V?$_Tmap_traits@PAVCItem@@KUItemMapComp@@V?$allocator@U?$pair@QAVCItem@@K@std@@@std@@$00@std@@@std@@IAEXPAU_Node@?$_Tree_nod@V?$_Tmap_traits@PAVCItem@@KUItemMapComp@@V?$allocator@U?$pair@QAVCItem@@K@std@@@std@@$00@std@@@2@@Z 00478090 f i Game.obj
 0001:00077100       ??1?$_Tree_val@V?$_Tmap_traits@PAVCItem@@KUItemMapComp@@V?$allocator@U?$pair@QAVCItem@@K@std@@@std@@$00@std@@@std@@QAE@XZ 00478100 f i Game.obj
 0001:00077110       ??0?$_Vector_val@PAVCMsg@@V?$allocator@PAVCMsg@@@std@@@std@@QAE@V?$allocator@PAVCMsg@@@1@@Z 00478110 f i Game.obj
 0001:00077130       ??0?$_Vector_val@V?$basic_string@DU?$char_traits@D@std@@V?$allocator@D@2@@std@@V?$allocator@V?$basic_string@DU?$char_traits@D@std@@V?$allocator@D@2@@std@@@2@@std@@QAE@V?$allocator@V?$basic_string@DU?$char_traits@D@std@@V?$allocator@D@2@@std@@@1@@Z 00478130 f i Game.obj
 0001:00077150       ??0?$_Tree_const_iterator@V?$_Tree_val@V?$_Tmap_traits@PAVCItem@@KUItemMapComp@@V?$allocator@U?$pair@QAVCItem@@K@std@@@std@@$00@std@@@std@@@std@@QAE@XZ 00478150 f i Game.obj
 0001:00077160       ??E?$_Tree_const_iterator@V?$_Tree_val@V?$_Tmap_traits@PAVCItem@@KUItemMapComp@@V?$allocator@U?$pair@QAVCItem@@K@std@@@std@@$00@std@@@std@@@std@@QAEAAV01@XZ 00478160 f i Game.obj
 0001:00077170       ??F?$_Tree_const_iterator@V?$_Tree_val@V?$_Tmap_traits@PAVCItem@@KUItemMapComp@@V?$allocator@U?$pair@QAVCItem@@K@std@@@std@@$00@std@@@std@@@std@@QAEAAV01@XZ 00478170 f i Game.obj
 0001:00077180       ??0?$_Vector_val@PAUpartyMember@CGame@@V?$allocator@PAUpartyMember@CGame@@@std@@@std@@QAE@V?$allocator@PAUpartyMember@CGame@@@1@@Z 00478180 f i Game.obj
 0001:000771a0       ??0?$_Vector_val@PAUguildMember@CGame@@V?$allocator@PAUguildMember@CGame@@@std@@@std@@QAE@V?$allocator@PAUguildMember@CGame@@@1@@Z 004781a0 f i Game.obj
 0001:000771c0       ?_Lmost@?$_Tree@V?$_Tset_traits@V?$basic_string@DU?$char_traits@D@std@@V?$allocator@D@2@@std@@U?$less@V?$basic_string@DU?$char_traits@D@std@@V?$allocator@D@2@@std@@@2@V?$allocator@V?$basic_string@DU?$char_traits@D@std@@V?$allocator@D@2@@std@@@2@$0A@@std@@@std@@IBEAAPAU_Node@?$_Tree_nod@V?$_Tset_traits@V?$basic_string@DU?$char_traits@D@std@@V?$allocator@D@2@@std@@U?$less@V?$basic_string@DU?$char_traits@D@std@@V?$allocator@D@2@@std@@@2@V?$allocator@V?$basic_string@DU?$char_traits@D@std@@V?$allocator@D@2@@std@@@2@$0A@@std@@@2@XZ 004781c0 f i Game.obj
 0001:000771d0       ?_Rmost@?$_Tree@V?$_Tset_traits@V?$basic_string@DU?$char_traits@D@std@@V?$allocator@D@2@@std@@U?$less@V?$basic_string@DU?$char_traits@D@std@@V?$allocator@D@2@@std@@@2@V?$allocator@V?$basic_string@DU?$char_traits@D@std@@V?$allocator@D@2@@std@@@2@$0A@@std@@@std@@IBEAAPAU_Node@?$_Tree_nod@V?$_Tset_traits@V?$basic_string@DU?$char_traits@D@std@@V?$allocator@D@2@@std@@U?$less@V?$basic_string@DU?$char_traits@D@std@@V?$allocator@D@2@@std@@@2@V?$allocator@V?$basic_string@DU?$char_traits@D@std@@V?$allocator@D@2@@std@@@2@$0A@@std@@@2@XZ 004781d0 f i Game.obj
 0001:000771e0       ?_Root@?$_Tree@V?$_Tset_traits@V?$basic_string@DU?$char_traits@D@std@@V?$allocator@D@2@@std@@U?$less@V?$basic_string@DU?$char_traits@D@std@@V?$allocator@D@2@@std@@@2@V?$allocator@V?$basic_string@DU?$char_traits@D@std@@V?$allocator@D@2@@std@@@2@$0A@@std@@@std@@IBEAAPAU_Node@?$_Tree_nod@V?$_Tset_traits@V?$basic_string@DU?$char_traits@D@std@@V?$allocator@D@2@@std@@U?$less@V?$basic_string@DU?$char_traits@D@std@@V?$allocator@D@2@@std@@@2@V?$allocator@V?$basic_string@DU?$char_traits@D@std@@V?$allocator@D@2@@std@@@2@$0A@@std@@@2@XZ 004781e0 f i Game.obj
 0001:000771f0       ??1?$_Tree_val@V?$_Tset_traits@V?$basic_string@DU?$char_traits@D@std@@V?$allocator@D@2@@std@@U?$less@V?$basic_string@DU?$char_traits@D@std@@V?$allocator@D@2@@std@@@2@V?$allocator@V?$basic_string@DU?$char_traits@D@std@@V?$allocator@D@2@@std@@@2@$0A@@std@@@std@@QAE@XZ 004781f0 f i Game.obj
 0001:00077200       ?_Key@?$_Tree_val@V?$_Tset_traits@V?$basic_string@DU?$char_traits@D@std@@V?$allocator@D@2@@std@@U?$less@V?$basic_string@DU?$char_traits@D@std@@V?$allocator@D@2@@std@@@2@V?$allocator@V?$basic_string@DU?$char_traits@D@std@@V?$allocator@D@2@@std@@@2@$0A@@std@@@std@@SAAAV?$basic_string@DU?$char_traits@D@std@@V?$allocator@D@2@@2@PAU_Node@?$_Tree_nod@V?$_Tset_traits@V?$basic_string@DU?$char_traits@D@std@@V?$allocator@D@2@@std@@U?$less@V?$basic_string@DU?$char_traits@D@std@@V?$allocator@D@2@@std@@@2@V?$allocator@V?$basic_string@DU?$char_traits@D@std@@V?$allocator@D@2@@std@@@2@$0A@@std@@@2@@Z 00478200 f i Game.obj
 0001:00077210       ??0?$_String_iterator@DU?$char_traits@D@std@@V?$allocator@D@2@@std@@QAE@PADPBU_Container_base0@1@@Z 00478210 f i Game.obj
 0001:00077230       ??0?$_Vector_iterator@V?$_Vector_val@PAVCMsg@@V?$allocator@PAVCMsg@@@std@@@std@@@std@@QAE@PAPAVCMsg@@PBU_Container_base0@1@@Z 00478230 f i Game.obj
 0001:00077250       ??F?$_Vector_iterator@V?$_Vector_val@PAVCMsg@@V?$allocator@PAVCMsg@@@std@@@std@@@std@@QAEAAV01@XZ 00478250 f i Game.obj
 0001:00077260       ??Y?$_Vector_iterator@V?$_Vector_val@PAVCMsg@@V?$allocator@PAVCMsg@@@std@@@std@@@std@@QAEAAV01@H@Z 00478260 f i Game.obj
 0001:00077280       ??8?$_Vector_const_iterator@V?$_Vector_val@PAVCMsg@@V?$allocator@PAVCMsg@@@std@@@std@@@std@@QBE_NABV01@@Z 00478280 f i Game.obj
 0001:000772a0       ??0?$_Vector_val@HV?$allocator@H@std@@@std@@QAE@V?$allocator@H@1@@Z 004782a0 f i Game.obj
 0001:000772c0       ??0?$_Tree_const_iterator@V?$_Tree_val@V?$_Tset_traits@V?$basic_string@DU?$char_traits@D@std@@V?$allocator@D@2@@std@@U?$less@V?$basic_string@DU?$char_traits@D@std@@V?$allocator@D@2@@std@@@2@V?$allocator@V?$basic_string@DU?$char_traits@D@std@@V?$allocator@D@2@@std@@@2@$0A@@std@@@std@@@std@@QAE@PAU_Node@?$_Tree_nod@V?$_Tset_traits@V?$basic_string@DU?$char_traits@D@std@@V?$allocator@D@2@@std@@U?$less@V?$basic_string@DU?$char_traits@D@std@@V?$allocator@D@2@@std@@@2@V?$allocator@V?$basic_string@DU?$char_traits@D@std@@V?$allocator@D@2@@std@@@2@$0A@@std@@@1@PBV?$_Tree_val@V?$_Tset_traits@V?$basic_string@DU?$char_traits@D@std@@V?$allocator@D@2@@std@@U?$less@V?$basic_string@DU?$char_traits@D@std@@V?$allocator@D@2@@std@@@2@V?$allocator@V?$basic_string@DU?$char_traits@D@std@@V?$allocator@D@2@@std@@@2@$0A@@std@@@1@@Z 004782c0 f i Game.obj
 0001:000772e0       ??E?$_Tree_unchecked_const_iterator@V?$_Tree_val@V?$_Tset_traits@V?$basic_string@DU?$char_traits@D@std@@V?$allocator@D@2@@std@@U?$less@V?$basic_string@DU?$char_traits@D@std@@V?$allocator@D@2@@std@@@2@V?$allocator@V?$basic_string@DU?$char_traits@D@std@@V?$allocator@D@2@@std@@@2@$0A@@std@@@std@@U_Iterator_base0@2@@std@@QAEAAV01@XZ 004782e0 f i Game.obj
 0001:00077340       ??0?$reverse_iterator@V?$_Vector_iterator@V?$_Vector_val@PAVCMsg@@V?$allocator@PAVCMsg@@@std@@@std@@@std@@@std@@QAE@V?$_Vector_iterator@V?$_Vector_val@PAVCMsg@@V?$allocator@PAVCMsg@@@std@@@std@@@1@@Z 00478340 f i Game.obj
 0001:00077360       ??E?$_Revranit@V?$_Vector_iterator@V?$_Vector_val@PAVCMsg@@V?$allocator@PAVCMsg@@@std@@@std@@@std@@U?$iterator@Urandom_access_iterator_tag@std@@PAVCMsg@@HPAPAV3@AAPAV3@@2@@std@@QAEAAV01@XZ 00478360 f i Game.obj
 0001:00077370       ??0?$_Vector_iterator@V?$_Vector_val@PAUpartyMember@CGame@@V?$allocator@PAUpartyMember@CGame@@@std@@@std@@@std@@QAE@PAPAUpartyMember@CGame@@PBU_Container_base0@1@@Z 00478370 f i Game.obj
 0001:00077390       ??0?$_Vector_iterator@V?$_Vector_val@V?$basic_string@DU?$char_traits@D@std@@V?$allocator@D@2@@std@@V?$allocator@V?$basic_string@DU?$char_traits@D@std@@V?$allocator@D@2@@std@@@2@@std@@@std@@QAE@PAV?$basic_string@DU?$char_traits@D@std@@V?$allocator@D@2@@1@PBU_Container_base0@1@@Z 00478390 f i Game.obj
 0001:000773b0       ??D?$_Vector_iterator@V?$_Vector_val@V?$basic_string@DU?$char_traits@D@std@@V?$allocator@D@2@@std@@V?$allocator@V?$basic_string@DU?$char_traits@D@std@@V?$allocator@D@2@@std@@@2@@std@@@std@@QBEAAV?$basic_string@DU?$char_traits@D@std@@V?$allocator@D@2@@1@XZ 004783b0 f i Game.obj
 0001:000773c0       ??8?$_Vector_const_iterator@V?$_Vector_val@V?$basic_string@DU?$char_traits@D@std@@V?$allocator@D@2@@std@@V?$allocator@V?$basic_string@DU?$char_traits@D@std@@V?$allocator@D@2@@std@@@2@@std@@@std@@QBE_NABV01@@Z 004783c0 f i Game.obj
 0001:000773e0       ??0?$_Vector_iterator@V?$_Vector_val@PAUguildMember@CGame@@V?$allocator@PAUguildMember@CGame@@@std@@@std@@@std@@QAE@PAPAUguildMember@CGame@@PBU_Container_base0@1@@Z 004783e0 f i Game.obj
 0001:00077400       ??0?$basic_streambuf@DU?$char_traits@D@std@@@std@@IAE@XZ 00478400 f i Game.obj
 0001:00077530       ?max_size@?$vector@PAVCMsg@@V?$allocator@PAVCMsg@@@std@@@std@@QBEIXZ 00478530 f i Game.obj
 0001:00077540       ?_Grow_to@?$vector@PAVCMsg@@V?$allocator@PAVCMsg@@@std@@@std@@IBEII@Z 00478540 f i Game.obj
 0001:00077580       ?_Make_iter@?$vector@V?$basic_string@DU?$char_traits@D@std@@V?$allocator@D@2@@std@@V?$allocator@V?$basic_string@DU?$char_traits@D@std@@V?$allocator@D@2@@std@@@2@@std@@QBE?AV?$_Vector_iterator@V?$_Vector_val@V?$basic_string@DU?$char_traits@D@std@@V?$allocator@D@2@@std@@V?$allocator@V?$basic_string@DU?$char_traits@D@std@@V?$allocator@D@2@@std@@@2@@std@@@2@V?$_Vector_const_iterator@V?$_Vector_val@V?$basic_string@DU?$char_traits@D@std@@V?$allocator@D@2@@std@@V?$allocator@V?$basic_string@DU?$char_traits@D@std@@V?$allocator@D@2@@std@@@2@@std@@@2@@Z 00478580 f i Game.obj
 0001:000775a0       ?max_size@?$vector@V?$basic_string@DU?$char_traits@D@std@@V?$allocator@D@2@@std@@V?$allocator@V?$basic_string@DU?$char_traits@D@std@@V?$allocator@D@2@@std@@@2@@std@@QBEIXZ 004785a0 f i Game.obj
 0001:000775b0       ?_Grow_to@?$vector@V?$basic_string@DU?$char_traits@D@std@@V?$allocator@D@2@@std@@V?$allocator@V?$basic_string@DU?$char_traits@D@std@@V?$allocator@D@2@@std@@@2@@std@@IBEII@Z 004785b0 f i Game.obj
 0001:00077600       ??0?$_Tree_const_iterator@V?$_Tree_val@V?$_Tmap_traits@PAVCItem@@KUItemMapComp@@V?$allocator@U?$pair@QAVCItem@@K@std@@@std@@$00@std@@@std@@@std@@QAE@PAU_Node@?$_Tree_nod@V?$_Tmap_traits@PAVCItem@@KUItemMapComp@@V?$allocator@U?$pair@QAVCItem@@K@std@@@std@@$00@std@@@1@PBV?$_Tree_val@V?$_Tmap_traits@PAVCItem@@KUItemMapComp@@V?$allocator@U?$pair@QAVCItem@@K@std@@@std@@$00@std@@@1@@Z 00478600 f i Game.obj
 0001:00077620       ?max_size@?$vector@PAUpartyMember@CGame@@V?$allocator@PAUpartyMember@CGame@@@std@@@std@@QBEIXZ 00478620 f i Game.obj
 0001:00077630       ?_Grow_to@?$vector@PAUpartyMember@CGame@@V?$allocator@PAUpartyMember@CGame@@@std@@@std@@IBEII@Z 00478630 f i Game.obj
 0001:00077670       ?max_size@?$vector@PAUguildMember@CGame@@V?$allocator@PAUguildMember@CGame@@@std@@@std@@QBEIXZ 00478670 f i Game.obj
 0001:00077680       ?_Grow_to@?$vector@PAUguildMember@CGame@@V?$allocator@PAUguildMember@CGame@@@std@@@std@@IBEII@Z 00478680 f i Game.obj
 0001:000776c0       ??R?$_Hash_compare@EV?$hash@E@std@@U?$equal_to@E@2@@std@@QBE_NABE0@Z 004786c0 f i Game.obj
 0001:000776e0       ??1?$_List_val@U?$pair@$$CBEPBD@std@@V?$allocator@U?$pair@$$CBEPBD@std@@@2@@std@@QAE@XZ 004786e0 f i Game.obj
 0001:000776f0       ??9?$_Vector_const_iterator@V?$_Vector_val@PAUpartyMember@CGame@@V?$allocator@PAUpartyMember@CGame@@@std@@@std@@@std@@QBE_NABV01@@Z 004786f0 f i Game.obj
 0001:00077710       ??D?$_List_const_iterator@V?$_List_val@U?$pair@$$CBEPBD@std@@V?$allocator@U?$pair@$$CBEPBD@std@@@2@@std@@@std@@QBEABU?$pair@$$CBEPBD@1@XZ 00478710 f i Game.obj
 0001:00077720       ??0?$_Pair_base@$$CBEPBD@std@@QAE@ABE$$QAPBD@Z 00478720 f i Game.obj
 0001:00077740       ?_Init@?$basic_stringbuf@DU?$char_traits@D@std@@V?$allocator@D@2@@std@@IAEXPBDIH@Z 00478740 f i Game.obj
 0001:00077810       ??0?$_Vector_iterator@V?$_Vector_val@HV?$allocator@H@std@@@std@@@std@@QAE@PAHPBU_Container_base0@1@@Z 00478810 f i Game.obj
 0001:00077830       ??0?$_Tree_nod@V?$_Tmap_traits@PAVCItem@@KUItemMapComp@@V?$allocator@U?$pair@QAVCItem@@K@std@@@std@@$00@std@@@std@@QAE@ABUItemMapComp@@V?$allocator@U?$pair@QAVCItem@@K@std@@@1@@Z 00478830 f i Game.obj
 0001:00077840       ?allocate@?$allocator@U_Node@?$_Tree_nod@V?$_Tmap_traits@PAVCItem@@KUItemMapComp@@V?$allocator@U?$pair@QAVCItem@@K@std@@@std@@$00@std@@@std@@@std@@QAEPAU_Node@?$_Tree_nod@V?$_Tmap_traits@PAVCItem@@KUItemMapComp@@V?$allocator@U?$pair@QAVCItem@@K@std@@@std@@$00@std@@@2@I@Z 00478840 f i Game.obj
 0001:000778c0       ?allocate@?$allocator@PAVCMsg@@@std@@QAEPAPAVCMsg@@I@Z 004788c0 f i Game.obj
 0001:00077930       ?allocate@?$allocator@V?$basic_string@DU?$char_traits@D@std@@V?$allocator@D@2@@std@@@std@@QAEPAV?$basic_string@DU?$char_traits@D@std@@V?$allocator@D@2@@2@I@Z 00478930 f i Game.obj
 0001:000779b0       ??E?$_Tree_const_iterator@V?$_Tree_val@V?$_Tmap_traits@PAVCItem@@KUItemMapComp@@V?$allocator@U?$pair@QAVCItem@@K@std@@@std@@$00@std@@@std@@@std@@QAE?AV01@H@Z 004789b0 f i Game.obj
 0001:000779d0       ?allocate@?$allocator@PAUpartyMember@CGame@@@std@@QAEPAPAUpartyMember@CGame@@I@Z 004789d0 f i Game.obj
 0001:00077a40       ?allocate@?$allocator@PAUguildMember@CGame@@@std@@QAEPAPAUguildMember@CGame@@I@Z 00478a40 f i Game.obj
 0001:00077ab0       ?_Lrotate@?$_Tree@V?$_Tset_traits@V?$basic_string@DU?$char_traits@D@std@@V?$allocator@D@2@@std@@U?$less@V?$basic_string@DU?$char_traits@D@std@@V?$allocator@D@2@@std@@@2@V?$allocator@V?$basic_string@DU?$char_traits@D@std@@V?$allocator@D@2@@std@@@2@$0A@@std@@@std@@IAEXPAU_Node@?$_Tree_nod@V?$_Tset_traits@V?$basic_string@DU?$char_traits@D@std@@V?$allocator@D@2@@std@@U?$less@V?$basic_string@DU?$char_traits@D@std@@V?$allocator@D@2@@std@@@2@V?$allocator@V?$basic_string@DU?$char_traits@D@std@@V?$allocator@D@2@@std@@@2@$0A@@std@@@2@@Z 00478ab0 f i Game.obj
 0001:00077b20       ?_Rrotate@?$_Tree@V?$_Tset_traits@V?$basic_string@DU?$char_traits@D@std@@V?$allocator@D@2@@std@@U?$less@V?$basic_string@DU?$char_traits@D@std@@V?$allocator@D@2@@std@@@2@V?$allocator@V?$basic_string@DU?$char_traits@D@std@@V?$allocator@D@2@@std@@@2@$0A@@std@@@std@@IAEXPAU_Node@?$_Tree_nod@V?$_Tset_traits@V?$basic_string@DU?$char_traits@D@std@@V?$allocator@D@2@@std@@U?$less@V?$basic_string@DU?$char_traits@D@std@@V?$allocator@D@2@@std@@@2@V?$allocator@V?$basic_string@DU?$char_traits@D@std@@V?$allocator@D@2@@std@@@2@$0A@@std@@@2@@Z 00478b20 f i Game.obj
 0001:00077b90       ??0?$_Tree_nod@V?$_Tset_traits@V?$basic_string@DU?$char_traits@D@std@@V?$allocator@D@2@@std@@U?$less@V?$basic_string@DU?$char_traits@D@std@@V?$allocator@D@2@@std@@@2@V?$allocator@V?$basic_string@DU?$char_traits@D@std@@V?$allocator@D@2@@std@@@2@$0A@@std@@@std@@QAE@ABU?$less@V?$basic_string@DU?$char_traits@D@std@@V?$allocator@D@2@@std@@@1@V?$allocator@V?$basic_string@DU?$char_traits@D@std@@V?$allocator@D@2@@std@@@1@@Z 00478b90 f i Game.obj
 0001:00077ba0       ?allocate@?$allocator@U_Node@?$_Tree_nod@V?$_Tset_traits@V?$basic_string@DU?$char_traits@D@std@@V?$allocator@D@2@@std@@U?$less@V?$basic_string@DU?$char_traits@D@std@@V?$allocator@D@2@@std@@@2@V?$allocator@V?$basic_string@DU?$char_traits@D@std@@V?$allocator@D@2@@std@@@2@$0A@@std@@@std@@@std@@QAEPAU_Node@?$_Tree_nod@V?$_Tset_traits@V?$basic_string@DU?$char_traits@D@std@@V?$allocator@D@2@@std@@U?$less@V?$basic_string@DU?$char_traits@D@std@@V?$allocator@D@2@@std@@@2@V?$allocator@V?$basic_string@DU?$char_traits@D@std@@V?$allocator@D@2@@std@@@2@$0A@@std@@@2@I@Z 00478ba0 f i Game.obj
 0001:00077c10       ?_Vec_lo@?$_Hash@V?$_Umap_traits@EPBDV?$_Hash_compare@EV?$hash@E@std@@U?$equal_to@E@2@@std@@V?$allocator@U?$pair@$$CBEPBD@std@@@2@$0A@@tr1@std@@@std@@IAEAAV?$_List_iterator@V?$_List_val@U?$pair@$$CBEPBD@std@@V?$allocator@U?$pair@$$CBEPBD@std@@@2@@std@@@2@I@Z 00478c10 f i Game.obj
 0001:00077c30       ?_Vec_hi@?$_Hash@V?$_Umap_traits@EPBDV?$_Hash_compare@EV?$hash@E@std@@U?$equal_to@E@2@@std@@V?$allocator@U?$pair@$$CBEPBD@std@@@2@$0A@@tr1@std@@@std@@IAEAAV?$_List_iterator@V?$_List_val@U?$pair@$$CBEPBD@std@@V?$allocator@U?$pair@$$CBEPBD@std@@@2@@std@@@2@I@Z 00478c30 f i Game.obj
 0001:00077c50       ??R?$_Hash_compare@EV?$hash@E@std@@U?$equal_to@E@2@@std@@QBEIABE@Z 00478c50 f i Game.obj
 0001:00077c90       ??0?$_Vector_val@V?$_List_iterator@V?$_List_val@U?$pair@$$CBEPBD@std@@V?$allocator@U?$pair@$$CBEPBD@std@@@2@@std@@@std@@V?$allocator@V?$_List_iterator@V?$_List_val@U?$pair@$$CBEPBD@std@@V?$allocator@U?$pair@$$CBEPBD@std@@@2@@std@@@std@@@2@@std@@QAE@V?$allocator@V?$_List_iterator@V?$_List_val@U?$pair@$$CBEPBD@std@@V?$allocator@U?$pair@$$CBEPBD@std@@@2@@std@@@std@@@1@@Z 00478c90 f i Game.obj
 0001:00077cb0       ??Z?$_Vector_iterator@V?$_Vector_val@PAVCMsg@@V?$allocator@PAVCMsg@@@std@@@std@@@std@@QAEAAV01@H@Z 00478cb0 f i Game.obj
 0001:00077cd0       ??0?$_List_const_iterator@V?$_List_val@U?$pair@$$CBEPBD@std@@V?$allocator@U?$pair@$$CBEPBD@std@@@2@@std@@@std@@QAE@PAU_Node@?$_List_nod@U?$pair@$$CBEPBD@std@@V?$allocator@U?$pair@$$CBEPBD@std@@@2@@1@PBV?$_List_val@U?$pair@$$CBEPBD@std@@V?$allocator@U?$pair@$$CBEPBD@std@@@2@@1@@Z 00478cd0 f i Game.obj
 0001:00077cf0       ??E?$_List_const_iterator@V?$_List_val@U?$pair@$$CBEPBD@std@@V?$allocator@U?$pair@$$CBEPBD@std@@@2@@std@@@std@@QAEAAV01@XZ 00478cf0 f i Game.obj
 0001:00077d00       ??8?$_Vector_const_iterator@V?$_Vector_val@HV?$allocator@H@std@@@std@@@std@@QBE_NABV01@@Z 00478d00 f i Game.obj
 0001:00077d20       ??0?$_List_nod@U?$pair@$$CBEPBD@std@@V?$allocator@U?$pair@$$CBEPBD@std@@@2@@std@@QAE@V?$allocator@U?$pair@$$CBEPBD@std@@@1@@Z 00478d20 f i Game.obj
 0001:00077d30       ?allocate@?$allocator@U_Node@?$_List_nod@U?$pair@$$CBEPBD@std@@V?$allocator@U?$pair@$$CBEPBD@std@@@2@@std@@@std@@QAEPAU_Node@?$_List_nod@U?$pair@$$CBEPBD@std@@V?$allocator@U?$pair@$$CBEPBD@std@@@2@@2@I@Z 00478d30 f i Game.obj
 0001:00077da0       ??0?$_Vector_iterator@V?$_Vector_val@V?$_List_iterator@V?$_List_val@U?$pair@$$CBEPBD@std@@V?$allocator@U?$pair@$$CBEPBD@std@@@2@@std@@@std@@V?$allocator@V?$_List_iterator@V?$_List_val@U?$pair@$$CBEPBD@std@@V?$allocator@U?$pair@$$CBEPBD@std@@@2@@std@@@std@@@2@@std@@@std@@QAE@PAV?$_List_iterator@V?$_List_val@U?$pair@$$CBEPBD@std@@V?$allocator@U?$pair@$$CBEPBD@std@@@2@@std@@@1@PBU_Container_base0@1@@Z 00478da0 f i Game.obj
 0001:00077dc0       ?max_size@?$vector@V?$_List_iterator@V?$_List_val@U?$pair@$$CBEPBD@std@@V?$allocator@U?$pair@$$CBEPBD@std@@@2@@std@@@std@@V?$allocator@V?$_List_iterator@V?$_List_val@U?$pair@$$CBEPBD@std@@V?$allocator@U?$pair@$$CBEPBD@std@@@2@@std@@@std@@@2@@std@@QBEIXZ 00478dc0 f i Game.obj
 0001:00077dd0       ?_Grow_to@?$vector@V?$_List_iterator@V?$_List_val@U?$pair@$$CBEPBD@std@@V?$allocator@U?$pair@$$CBEPBD@std@@@2@@std@@@std@@V?$allocator@V?$_List_iterator@V?$_List_val@U?$pair@$$CBEPBD@std@@V?$allocator@U?$pair@$$CBEPBD@std@@@2@@std@@@std@@@2@@std@@IBEII@Z 00478dd0 f i Game.obj
 0001:00077e10       ?allocate@?$allocator@V?$_List_iterator@V?$_List_val@U?$pair@$$CBEPBD@std@@V?$allocator@U?$pair@$$CBEPBD@std@@@2@@std@@@std@@@std@@QAEPAV?$_List_iterator@V?$_List_val@U?$pair@$$CBEPBD@std@@V?$allocator@U?$pair@$$CBEPBD@std@@@2@@std@@@2@I@Z 00478e10 f i Game.obj
 0001:00077e80       ??8?$_Vector_const_iterator@V?$_Vector_val@V?$_List_iterator@V?$_List_val@U?$pair@$$CBEPBD@std@@V?$allocator@U?$pair@$$CBEPBD@std@@@2@@std@@@std@@V?$allocator@V?$_List_iterator@V?$_List_val@U?$pair@$$CBEPBD@std@@V?$allocator@U?$pair@$$CBEPBD@std@@@2@@std@@@std@@@2@@std@@@std@@QBE_NABV01@@Z 00478e80 f i Game.obj
 0001:00077ea0       ??$mem_fun@XVCGame@@@std@@YA?AV?$mem_fun_t@XVCGame@@@0@P8CGame@@AEXXZ@Z 00478ea0 f i Game.obj
 0001:00077eb0       ??$?0AAPAVCItem@@AAK@?$pair@PAVCItem@@K@std@@QAE@AAPAVCItem@@AAK@Z 00478eb0 f i Game.obj
 0001:00077ed0       ??$swap@D@std@@YAXAAD0@Z   00478ed0 f i Game.obj
 0001:00077ef0       ??$_Cons_val@V?$allocator@PAVCMsg@@@std@@PAVCMsg@@AAPAV3@@std@@YAXAAV?$allocator@PAVCMsg@@@0@PAPAVCMsg@@AAPAV2@@Z 00478ef0 f i Game.obj
 0001:00077f10       ??$_Move@PAPAVCMsg@@PAPAV1@@std@@YAPAPAVCMsg@@PAPAV1@00@Z 00478f10 f i Game.obj
 0001:00077f50       ??$_Cons_val@V?$allocator@PAUpartyMember@CGame@@@std@@PAUpartyMember@CGame@@PAU34@@std@@YAXAAV?$allocator@PAUpartyMember@CGame@@@0@PAPAUpartyMember@CGame@@$$QAPAU23@@Z 00478f50 f i Game.obj
 0001:00077f70       ??$_Move@PAPAUpartyMember@CGame@@PAPAU12@@std@@YAPAPAUpartyMember@CGame@@PAPAU12@00@Z 00478f70 f i Game.obj
 0001:00077fb0       ??$_Cons_val@V?$allocator@PAUguildMember@CGame@@@std@@PAUguildMember@CGame@@PAU34@@std@@YAXAAV?$allocator@PAUguildMember@CGame@@@0@PAPAUguildMember@CGame@@$$QAPAU23@@Z 00478fb0 f i Game.obj
 0001:00077fd0       ??$_Move@PAPAUguildMember@CGame@@PAPAU12@@std@@YAPAPAUguildMember@CGame@@PAPAU12@00@Z 00478fd0 f i Game.obj
 0001:00078010       ??$?9DD@std@@YA_NABV?$allocator@D@0@0@Z 00479010 f i Game.obj
 0001:00078020       ??$_Destroy_range@V?$allocator@PAVCMsg@@@std@@@std@@YAXPAPAVCMsg@@0AAV?$allocator@PAVCMsg@@@0@@Z 00479020 f i Game.obj
 0001:00078030       ??$_Destroy_range@V?$allocator@PAUpartyMember@CGame@@@std@@@std@@YAXPAPAUpartyMember@CGame@@0AAV?$allocator@PAUpartyMember@CGame@@@0@@Z 00479030 f i Game.obj
 0001:00078040       ??$_Destroy_range@V?$allocator@PAUguildMember@CGame@@@std@@@std@@YAXPAPAUguildMember@CGame@@0AAV?$allocator@PAUguildMember@CGame@@@0@@Z 00479040 f i Game.obj
 0001:00078050       ??$_Move@PAHPAH@std@@YAPAHPAH00@Z 00479050 f i Game.obj
 0001:00078090       ??$?0AAV?$_Tree_const_iterator@V?$_Tree_val@V?$_Tset_traits@V?$basic_string@DU?$char_traits@D@std@@V?$allocator@D@2@@std@@U?$less@V?$basic_string@DU?$char_traits@D@std@@V?$allocator@D@2@@std@@@2@V?$allocator@V?$basic_string@DU?$char_traits@D@std@@V?$allocator@D@2@@std@@@2@$0A@@std@@@std@@@std@@AAV01@@?$pair@V?$_Tree_const_iterator@V?$_Tree_val@V?$_Tset_traits@V?$basic_string@DU?$char_traits@D@std@@V?$allocator@D@2@@std@@U?$less@V?$basic_string@DU?$char_traits@D@std@@V?$allocator@D@2@@std@@@2@V?$allocator@V?$basic_string@DU?$char_traits@D@std@@V?$allocator@D@2@@std@@@2@$0A@@std@@@std@@@std@@V12@@std@@QAE@AAV?$_Tree_const_iterator@V?$_Tree_val@V?$_Tset_traits@V?$basic_string@DU?$char_traits@D@std@@V?$allocator@D@2@@std@@U?$less@V?$basic_string@DU?$char_traits@D@std@@V?$allocator@D@2@@std@@@2@V?$allocator@V?$basic_string@DU?$char_traits@D@std@@V?$allocator@D@2@@std@@@2@$0A@@std@@@std@@@1@0@Z 00479090 f i Game.obj
 0001:000780b0       ??$fill@PAV?$_List_iterator@V?$_List_val@U?$pair@$$CBEPBD@std@@V?$allocator@U?$pair@$$CBEPBD@std@@@2@@std@@@std@@V12@@std@@YAXPAV?$_List_iterator@V?$_List_val@U?$pair@$$CBEPBD@std@@V?$allocator@U?$pair@$$CBEPBD@std@@@2@@std@@@0@0ABV10@@Z 004790b0 f i Game.obj
 0001:000780e0       ??$_Copy_backward@PAV?$_List_iterator@V?$_List_val@U?$pair@$$CBEPBD@std@@V?$allocator@U?$pair@$$CBEPBD@std@@@2@@std@@@std@@PAV12@@std@@YAPAV?$_List_iterator@V?$_List_val@U?$pair@$$CBEPBD@std@@V?$allocator@U?$pair@$$CBEPBD@std@@@2@@std@@@0@PAV10@00@Z 004790e0 f i Game.obj
 0001:00078110       ?destroy@?$allocator@U?$pair@QAVCItem@@K@std@@@std@@QAEXPAU?$pair@QAVCItem@@K@2@@Z 00479110 f i Game.obj
 0001:00078120       ?construct@?$allocator@PAVCMsg@@@std@@QAEXPAPAVCMsg@@ABQAV3@@Z 00479120 f i Game.obj
 0001:00078140       ?destroy@?$allocator@U_Node@?$_List_nod@U?$pair@$$CBEPBD@std@@V?$allocator@U?$pair@$$CBEPBD@std@@@2@@std@@@std@@QAEXPAU_Node@?$_List_nod@U?$pair@$$CBEPBD@std@@V?$allocator@U?$pair@$$CBEPBD@std@@@2@@2@@Z 00479140 f i Game.obj
 0001:00078150       ??0?$_Bind_fty@V?$mem_fun_t@XVCGame@@@std@@U_Notforced@tr1@2@V?$_Bind1@U?$_Callable_obj@V?$mem_fun_t@XVCGame@@@std@@$0A@@tr1@std@@PAVCGame@@@42@@tr1@std@@QAE@V?$_Bind1@U?$_Callable_obj@V?$mem_fun_t@XVCGame@@@std@@$0A@@tr1@std@@PAVCGame@@@12@@Z 00479150 f i Game.obj
 0001:00078170       ??9?$_String_const_iterator@DU?$char_traits@D@std@@V?$allocator@D@2@@std@@QBE_NABV01@@Z 00479170 f i Game.obj
 0001:00078190       ??F?$_Tree_const_iterator@V?$_Tree_val@V?$_Tset_traits@V?$basic_string@DU?$char_traits@D@std@@V?$allocator@D@2@@std@@U?$less@V?$basic_string@DU?$char_traits@D@std@@V?$allocator@D@2@@std@@@2@V?$allocator@V?$basic_string@DU?$char_traits@D@std@@V?$allocator@D@2@@std@@@2@$0A@@std@@@std@@@std@@QAEAAV01@XZ 00479190 f i Game.obj
 0001:000781a0       ??F?$_List_iterator@V?$_List_val@U?$pair@$$CBEPBD@std@@V?$allocator@U?$pair@$$CBEPBD@std@@@2@@std@@@std@@QAEAAV01@XZ 004791a0 f i Game.obj
 0001:000781b0       ??0?$_Callable_obj@V?$mem_fun_t@XVCGame@@@std@@$0A@@tr1@std@@QAE@AAV?$mem_fun_t@XVCGame@@@2@@Z 004791b0 f i Game.obj
 0001:000781d0       ??0?$_Pair_base@V?$_Tree_const_iterator@V?$_Tree_val@V?$_Tset_traits@V?$basic_string@DU?$char_traits@D@std@@V?$allocator@D@2@@std@@U?$less@V?$basic_string@DU?$char_traits@D@std@@V?$allocator@D@2@@std@@@2@V?$allocator@V?$basic_string@DU?$char_traits@D@std@@V?$allocator@D@2@@std@@@2@$0A@@std@@@std@@@std@@_N@std@@QAE@$$QAV?$_Tree_const_iterator@V?$_Tree_val@V?$_Tset_traits@V?$basic_string@DU?$char_traits@D@std@@V?$allocator@D@2@@std@@U?$less@V?$basic_string@DU?$char_traits@D@std@@V?$allocator@D@2@@std@@@2@V?$allocator@V?$basic_string@DU?$char_traits@D@std@@V?$allocator@D@2@@std@@@2@$0A@@std@@@std@@@1@$$QA_N@Z 004791d0 f i Game.obj
 0001:000781f0       ??E?$_List_const_iterator@V?$_List_val@U?$pair@$$CBEPBD@std@@V?$allocator@U?$pair@$$CBEPBD@std@@@2@@std@@@std@@QAE?AV01@H@Z 004791f0 f i Game.obj
 0001:00078210       ?size@?$_Hash@V?$_Umap_traits@EPBDV?$_Hash_compare@EV?$hash@E@std@@U?$equal_to@E@2@@std@@V?$allocator@U?$pair@$$CBEPBD@std@@@2@$0A@@tr1@std@@@std@@QBEIXZ 00479210 f i Game.obj
 0001:00078220       ?max_size@?$list@U?$pair@$$CBEPBD@std@@V?$allocator@U?$pair@$$CBEPBD@std@@@2@@std@@QBEIXZ 00479220 f i Game.obj
 0001:00078230       ??$_Unchecked@DU?$char_traits@D@std@@V?$allocator@D@2@@std@@YAPADV?$_String_iterator@DU?$char_traits@D@std@@V?$allocator@D@2@@0@@Z 00479230 f i Game.obj
 0001:00078240       ??$_Equal@V?$_Vector_iterator@V?$_Vector_val@PAVCMsg@@V?$allocator@PAVCMsg@@@std@@@std@@@std@@U?$iterator@Urandom_access_iterator_tag@std@@PAVCMsg@@HPAPAV3@AAPAV3@@2@@?$_Revranit@V?$_Vector_iterator@V?$_Vector_val@PAVCMsg@@V?$allocator@PAVCMsg@@@std@@@std@@@std@@U?$iterator@Urandom_access_iterator_tag@std@@PAVCMsg@@HPAPAV3@AAPAV3@@2@@std@@QBE_NABV01@@Z 00479240 f i Game.obj
 0001:00078260       ??$_Unchecked@V?$_Vector_val@PAVCMsg@@V?$allocator@PAVCMsg@@@std@@@std@@@std@@YAPAPAVCMsg@@V?$_Vector_iterator@V?$_Vector_val@PAVCMsg@@V?$allocator@PAVCMsg@@@std@@@std@@@0@@Z 00479260 f i Game.obj
 0001:00078270       ??$_Remove_if@PAPAVCMsg@@P6A_NPBV1@@Z@std@@YAPAPAVCMsg@@PAPAV1@0P6A_NPBV1@@Z@Z 00479270 f i Game.obj
 0001:000782c0       ??$_Rechecked@V?$_Vector_val@PAVCMsg@@V?$allocator@PAVCMsg@@@std@@@std@@@std@@YAAAV?$_Vector_iterator@V?$_Vector_val@PAVCMsg@@V?$allocator@PAVCMsg@@@std@@@std@@@0@AAV10@PAPAVCMsg@@@Z 004792c0 f i Game.obj
 0001:000782d0       ??$_Uninit_def_fill_n@PAVCMsg@@IPAV1@PAV1@@std@@YAXPAPAVCMsg@@IPBQAV1@AAV?$allocator@PAVCMsg@@@0@0U_Scalar_ptr_iterator_tag@0@@Z 004792d0 f i Game.obj
 0001:000782f0       ??$_Uninitialized_move@PAPAVCMsg@@PAPAV1@V?$allocator@PAVCMsg@@@std@@@std@@YAPAPAVCMsg@@PAPAV1@00AAV?$allocator@PAVCMsg@@@0@@Z 004792f0 f i Game.obj
 0001:00078330       ??$_Uninitialized_move@PAPAUpartyMember@CGame@@PAPAU12@V?$allocator@PAUpartyMember@CGame@@@std@@@std@@YAPAPAUpartyMember@CGame@@PAPAU12@00AAV?$allocator@PAUpartyMember@CGame@@@0@@Z 00479330 f i Game.obj
 0001:00078370       ??$_Uninitialized_move@PAPAUguildMember@CGame@@PAPAU12@V?$allocator@PAUguildMember@CGame@@@std@@@std@@YAPAPAUguildMember@CGame@@PAPAU12@00AAV?$allocator@PAUguildMember@CGame@@@0@@Z 00479370 f i Game.obj
 0001:000783b0       ??$_Move@PAV?$_List_iterator@V?$_List_val@U?$pair@$$CBEPBD@std@@V?$allocator@U?$pair@$$CBEPBD@std@@@2@@std@@@std@@PAV12@@std@@YAPAV?$_List_iterator@V?$_List_val@U?$pair@$$CBEPBD@std@@V?$allocator@U?$pair@$$CBEPBD@std@@@2@@std@@@0@PAV10@00U_Nonscalar_ptr_iterator_tag@0@@Z 004793b0 f i Game.obj
 0001:000783e0       ??$?0AAV?$_Tree_const_iterator@V?$_Tree_val@V?$_Tset_traits@V?$basic_string@DU?$char_traits@D@std@@V?$allocator@D@2@@std@@U?$less@V?$basic_string@DU?$char_traits@D@std@@V?$allocator@D@2@@std@@@2@V?$allocator@V?$basic_string@DU?$char_traits@D@std@@V?$allocator@D@2@@std@@@2@$0A@@std@@@std@@@std@@_N@?$pair@V?$_Tree_const_iterator@V?$_Tree_val@V?$_Tset_traits@V?$basic_string@DU?$char_traits@D@std@@V?$allocator@D@2@@std@@U?$less@V?$basic_string@DU?$char_traits@D@std@@V?$allocator@D@2@@std@@@2@V?$allocator@V?$basic_string@DU?$char_traits@D@std@@V?$allocator@D@2@@std@@@2@$0A@@std@@@std@@@std@@_N@std@@QAE@AAV?$_Tree_const_iterator@V?$_Tree_val@V?$_Tset_traits@V?$basic_string@DU?$char_traits@D@std@@V?$allocator@D@2@@std@@U?$less@V?$basic_string@DU?$char_traits@D@std@@V?$allocator@D@2@@std@@@2@V?$allocator@V?$basic_string@DU?$char_traits@D@std@@V?$allocator@D@2@@std@@@2@$0A@@std@@@std@@@1@$$QA_N@Z 004793e0 f i Game.obj
 0001:00078400       ??$?0AAV?$_List_iterator@V?$_List_val@U?$pair@$$CBEPBD@std@@V?$allocator@U?$pair@$$CBEPBD@std@@@2@@std@@@std@@_N@?$pair@V?$_List_iterator@V?$_List_val@U?$pair@$$CBEPBD@std@@V?$allocator@U?$pair@$$CBEPBD@std@@@2@@std@@@std@@_N@std@@QAE@AAV?$_List_iterator@V?$_List_val@U?$pair@$$CBEPBD@std@@V?$allocator@U?$pair@$$CBEPBD@std@@@2@@std@@@1@$$QA_N@Z 00479400 f i Game.obj
 0001:00078420       ?_Buynode@?$_Tree_val@V?$_Tset_traits@V?$basic_string@DU?$char_traits@D@std@@V?$allocator@D@2@@std@@U?$less@V?$basic_string@DU?$char_traits@D@std@@V?$allocator@D@2@@std@@@2@V?$allocator@V?$basic_string@DU?$char_traits@D@std@@V?$allocator@D@2@@std@@@2@$0A@@std@@@std@@QAEPAU_Node@?$_Tree_nod@V?$_Tset_traits@V?$basic_string@DU?$char_traits@D@std@@V?$allocator@D@2@@std@@U?$less@V?$basic_string@DU?$char_traits@D@std@@V?$allocator@D@2@@std@@@2@V?$allocator@V?$basic_string@DU?$char_traits@D@std@@V?$allocator@D@2@@std@@@2@$0A@@std@@@2@XZ 00479420 f i Game.obj
 0001:00078490       ??D?$_String_iterator@DU?$char_traits@D@std@@V?$allocator@D@2@@std@@QBEAADXZ 00479490 f i Game.obj
 0001:000784a0       ??E?$_String_iterator@DU?$char_traits@D@std@@V?$allocator@D@2@@std@@QAEAAV01@XZ 004794a0 f i Game.obj
 0001:000784b0       ?_Key@?$_Tree_val@V?$_Tmap_traits@PAVCItem@@KUItemMapComp@@V?$allocator@U?$pair@QAVCItem@@K@std@@@std@@$00@std@@@std@@SAAAPAVCItem@@PAU_Node@?$_Tree_nod@V?$_Tmap_traits@PAVCItem@@KUItemMapComp@@V?$allocator@U?$pair@QAVCItem@@K@std@@@std@@$00@std@@@2@@Z 004794b0 f i Game.obj
 0001:000784c0       ?max_size@?$_Tree@V?$_Tmap_traits@PAVCItem@@KUItemMapComp@@V?$allocator@U?$pair@QAVCItem@@K@std@@@std@@$00@std@@@std@@QBEIXZ 004794c0 f i Game.obj
 0001:000784d0       ??0?$_Pair_base@V?$_Tree_iterator@V?$_Tree_val@V?$_Tmap_traits@PAVCItem@@KUItemMapComp@@V?$allocator@U?$pair@QAVCItem@@K@std@@@std@@$00@std@@@std@@@std@@_N@std@@QAE@$$QAV?$_Tree_iterator@V?$_Tree_val@V?$_Tmap_traits@PAVCItem@@KUItemMapComp@@V?$allocator@U?$pair@QAVCItem@@K@std@@@std@@$00@std@@@std@@@1@$$QA_N@Z 004794d0 f i Game.obj
 0001:000784f0       ??$?0AAV?$_Tree_iterator@V?$_Tree_val@V?$_Tmap_traits@PAVCItem@@KUItemMapComp@@V?$allocator@U?$pair@QAVCItem@@K@std@@@std@@$00@std@@@std@@@std@@_N@?$pair@V?$_Tree_iterator@V?$_Tree_val@V?$_Tmap_traits@PAVCItem@@KUItemMapComp@@V?$allocator@U?$pair@QAVCItem@@K@std@@@std@@$00@std@@@std@@@std@@_N@std@@QAE@AAV?$_Tree_iterator@V?$_Tree_val@V?$_Tmap_traits@PAVCItem@@KUItemMapComp@@V?$allocator@U?$pair@QAVCItem@@K@std@@@std@@$00@std@@@std@@@1@$$QA_N@Z 004794f0 f i Game.obj
 0001:00078510       ?_Buynode@?$_Tree_val@V?$_Tmap_traits@PAVCItem@@KUItemMapComp@@V?$allocator@U?$pair@QAVCItem@@K@std@@@std@@$00@std@@@std@@QAEPAU_Node@?$_Tree_nod@V?$_Tmap_traits@PAVCItem@@KUItemMapComp@@V?$allocator@U?$pair@QAVCItem@@K@std@@@std@@$00@std@@@2@XZ 00479510 f i Game.obj
 0001:00078580       ?construct@?$allocator@V?$_List_iterator@V?$_List_val@U?$pair@$$CBEPBD@std@@V?$allocator@U?$pair@$$CBEPBD@std@@@2@@std@@@std@@@std@@QAEXPAV?$_List_iterator@V?$_List_val@U?$pair@$$CBEPBD@std@@V?$allocator@U?$pair@$$CBEPBD@std@@@2@@std@@@2@ABV32@@Z 00479580 f i Game.obj
 0001:000785a0       ?destroy@?$allocator@V?$_List_iterator@V?$_List_val@U?$pair@$$CBEPBD@std@@V?$allocator@U?$pair@$$CBEPBD@std@@@2@@std@@@std@@@std@@QAEXPAV?$_List_iterator@V?$_List_val@U?$pair@$$CBEPBD@std@@V?$allocator@U?$pair@$$CBEPBD@std@@@2@@std@@@2@@Z 004795a0 f i Game.obj
 0001:000785b0       ?allocate@?$allocator@V?$_Impl_no_alloc0@U?$_Callable_obj@V?$_Bind_fty@V?$mem_fun_t@XVCGame@@@std@@U_Notforced@tr1@2@V?$_Bind1@U?$_Callable_obj@V?$mem_fun_t@XVCGame@@@std@@$0A@@tr1@std@@PAVCGame@@@42@@tr1@std@@$0A@@tr1@std@@X@tr1@std@@@std@@QAEPAV?$_Impl_no_alloc0@U?$_Callable_obj@V?$_Bind_fty@V?$mem_fun_t@XVCGame@@@std@@U_Notforced@tr1@2@V?$_Bind1@U?$_Callable_obj@V?$mem_fun_t@XVCGame@@@std@@$0A@@tr1@std@@PAVCGame@@@42@@tr1@std@@$0A@@tr1@std@@X@tr1@2@I@Z 004795b0 f i Game.obj
 0001:00078620       ??0?$_Callable_obj@V?$_Bind_fty@V?$mem_fun_t@XVCGame@@@std@@U_Notforced@tr1@2@V?$_Bind1@U?$_Callable_obj@V?$mem_fun_t@XVCGame@@@std@@$0A@@tr1@std@@PAVCGame@@@42@@tr1@std@@$0A@@tr1@std@@QAE@AAV?$_Bind_fty@V?$mem_fun_t@XVCGame@@@std@@U_Notforced@tr1@2@V?$_Bind1@U?$_Callable_obj@V?$mem_fun_t@XVCGame@@@std@@$0A@@tr1@std@@PAVCGame@@@42@@12@@Z 00479620 f i Game.obj
 0001:00078640       ??$_Move@PAPAVCMsg@@V?$_Vector_iterator@V?$_Vector_val@PAVCMsg@@V?$allocator@PAVCMsg@@@std@@@std@@@std@@@std@@YA?AV?$_Vector_iterator@V?$_Vector_val@PAVCMsg@@V?$allocator@PAVCMsg@@@std@@@std@@@0@PAPAVCMsg@@0V10@U_Nonscalar_ptr_iterator_tag@0@@Z 00479640 f i Game.obj
 0001:00078690       ?construct@?$allocator@V?$_List_iterator@V?$_List_val@U?$pair@$$CBEPBD@std@@V?$allocator@U?$pair@$$CBEPBD@std@@@2@@std@@@std@@@std@@QAEXPAV?$_List_iterator@V?$_List_val@U?$pair@$$CBEPBD@std@@V?$allocator@U?$pair@$$CBEPBD@std@@@2@@std@@@2@$$QAV32@@Z 00479690 f i Game.obj
 0001:000786b0       ??$?0PAVCItem@@K@?$pair@QAVCItem@@K@std@@QAE@$$QAU?$pair@PAVCItem@@K@1@@Z 004796b0 f i Game.obj
 0001:000786d0       ??0?$_Pair_base@$$CBEPBD@std@@QAE@$$QBE$$QAPBD@Z 004796d0 f i Game.obj
 0001:000786f0       ??0_Locinfo@std@@QAE@PBD@Z 004796f0 f i Game.obj
 0001:000787c0       ??1_Locinfo@std@@QAE@XZ    004797c0 f i Game.obj
 0001:00078890       ?_Getcat@?$ctype@D@std@@SAIPAPBVfacet@locale@2@PBV42@@Z 00479890 f i Game.obj
 0001:000789a0       ?GetOnlineCnt@CGuild@@QBEKXZ 004799a0 f i Game.obj
 0001:000789b0       ?Draw@CDialogBox@@QBEXXZ   004799b0 f i Game.obj
 0001:000789d0       ?OnClick@CDialogBox@@QBEXXZ 004799d0 f i Game.obj
 0001:000789f0       ?OnDblClick@CDialogBox@@QBEXXZ 004799f0 f i Game.obj
 0001:00078a10       ?OnDropItem@CDialogBox@@QBEXXZ 00479a10 f i Game.obj
 0001:00078a30       ?CommonEventHandler@CGame@@QAEXPAD@Z 00479a30 f   Game.obj
 0001:00078b80       ?DrawObject_OnMove_ForMenu@CGame@@QAIHHHHHHKHH@Z 00479b80 f   Game.obj
 0001:0007aa40       ?OnLogSocketEvent@CGame@@QAEXIJ@Z 0047ba40 f   Game.obj
 0001:0007ab90       ?InitItemList@CGame@@QAEXPAD@Z 0047bb90 f   Game.obj
 0001:0007b260       ?DrawDialogBox_GuideMap@CGame@@QAEXXZ 0047c260 f   Game.obj
 0001:0007cf60       ?DrawDialogBoxes@CGame@@QAEXXZ 0047df60 f   Game.obj
 0001:0007d210       ?DrawChatMsgs@CGame@@QAEXFFFF@Z 0047e210 f   Game.obj
 0001:0007d3b0       ?_bDraw_OnCreateNewCharacter@CGame@@QAEHPADFFH@Z 0047e3b0 f   Game.obj
 0001:0007df60       ?UpdateScreen_OnCreateNewCharacter@CGame@@QAEXXZ 0047ef60 f   Game.obj
 0001:0007f860       ?UpdateScreen_OnSelectCharacter@CGame@@QAEXFFFFH@Z 00480860 f   Game.obj
 0001:00080bc0       ?UpdateScreen_OnWaitingResponse@CGame@@QAEXXZ 00481bc0 f   Game.obj
 0001:00081050       ?UpdateScreen_OnQueryDeleteCharacter@CGame@@QAEXXZ 00482050 f   Game.obj
 0001:00081730       ?UpdateScreen_OnLogResMsg@CGame@@QAEXXZ 00482730 f   Game.obj
 0001:00082760       ?EraseItem@CGame@@QAEXD@Z  00483760 f   Game.obj
 0001:00082990       ?UpdateScreen_OnChangePassword@CGame@@QAEXXZ 00483990 f   Game.obj
 0001:00083c60       ?DrawDialogBox_Party@CGame@@QAEXXZ 00484c60 f   Game.obj
 0001:00084d50       ?NotifyMsg_DropItemFin_EraseItem@CGame@@QAEXPAD@Z 00485d50 f   Game.obj
 0001:00084ee0       ?NotifyMsg_GiveItemFin_EraseItem@CGame@@QAEXPAD@Z 00485ee0 f   Game.obj
 0001:000852a0       ?NotifyMsg_ItemDepleted_EraseItem@CGame@@QAEXPAD@Z 004862a0 f   Game.obj
 0001:000855a0       ?NotifyMsg_ItemLifeSpanEnd@CGame@@QAEXPAD@Z 004865a0 f   Game.obj
 0001:000856a0       ?NotifyMsg_ItemReleased@CGame@@QAEXPAD@Z 004866a0 f   Game.obj
 0001:00085870       ?ReleaseEquipHandler@CGame@@QAEXD@Z 00486870 f   Game.obj
 0001:00085ae0       ?clear@?$basic_string@DU?$char_traits@D@std@@V?$allocator@D@2@@std@@QAEXXZ 00486ae0 f i Game.obj
 0001:00085b00       ?begin@?$basic_string@DU?$char_traits@D@std@@V?$allocator@D@2@@std@@QAE?AV?$_String_iterator@DU?$char_traits@D@std@@V?$allocator@D@2@@2@XZ 00486b00 f i Game.obj
 0001:00085b20       ?end@?$basic_string@DU?$char_traits@D@std@@V?$allocator@D@2@@std@@QAE?AV?$_String_iterator@DU?$char_traits@D@std@@V?$allocator@D@2@@2@XZ 00486b20 f i Game.obj
 0001:00085b60       ?find@?$basic_string@DU?$char_traits@D@std@@V?$allocator@D@2@@std@@QBEIPBDI@Z 00486b60 f i Game.obj
 0001:00085ba0       ?compare@?$basic_string@DU?$char_traits@D@std@@V?$allocator@D@2@@std@@QBEHPBD@Z 00486ba0 f i Game.obj
 0001:00085be0       ?setstate@?$basic_ios@DU?$char_traits@D@std@@@std@@QAEXH_N@Z 00486be0 f i Game.obj
 0001:00085c10       ??0?$function@$$A6AXXZ@tr1@std@@QAE@H@Z 00486c10 f i Game.obj
 0001:00085c20       ??0?$vector@PAVCMsg@@V?$allocator@PAVCMsg@@@std@@@std@@QAE@XZ 00486c20 f i Game.obj
 0001:00085c30       ?begin@?$vector@PAVCMsg@@V?$allocator@PAVCMsg@@@std@@@std@@QAE?AV?$_Vector_iterator@V?$_Vector_val@PAVCMsg@@V?$allocator@PAVCMsg@@@std@@@std@@@2@XZ 00486c30 f i Game.obj
 0001:00085c50       ?end@?$vector@PAVCMsg@@V?$allocator@PAVCMsg@@@std@@@std@@QAE?AV?$_Vector_iterator@V?$_Vector_val@PAVCMsg@@V?$allocator@PAVCMsg@@@std@@@std@@@2@XZ 00486c50 f i Game.obj
 0001:00085c70       ?rbegin@?$vector@PAVCMsg@@V?$allocator@PAVCMsg@@@std@@@std@@QAE?AV?$reverse_iterator@V?$_Vector_iterator@V?$_Vector_val@PAVCMsg@@V?$allocator@PAVCMsg@@@std@@@std@@@std@@@2@XZ 00486c70 f i Game.obj
 0001:00085c90       ?rend@?$vector@PAVCMsg@@V?$allocator@PAVCMsg@@@std@@@std@@QAE?AV?$reverse_iterator@V?$_Vector_iterator@V?$_Vector_val@PAVCMsg@@V?$allocator@PAVCMsg@@@std@@@std@@@std@@@2@XZ 00486c90 f i Game.obj
 0001:00085cb0       ??0?$vector@V?$basic_string@DU?$char_traits@D@std@@V?$allocator@D@2@@std@@V?$allocator@V?$basic_string@DU?$char_traits@D@std@@V?$allocator@D@2@@std@@@2@@std@@QAE@XZ 00486cb0 f i Game.obj
 0001:00085cc0       ?begin@?$vector@V?$basic_string@DU?$char_traits@D@std@@V?$allocator@D@2@@std@@V?$allocator@V?$basic_string@DU?$char_traits@D@std@@V?$allocator@D@2@@std@@@2@@std@@QAE?AV?$_Vector_iterator@V?$_Vector_val@V?$basic_string@DU?$char_traits@D@std@@V?$allocator@D@2@@std@@V?$allocator@V?$basic_string@DU?$char_traits@D@std@@V?$allocator@D@2@@std@@@2@@std@@@2@XZ 00486cc0 f i Game.obj
 0001:00085ce0       ?end@?$vector@V?$basic_string@DU?$char_traits@D@std@@V?$allocator@D@2@@std@@V?$allocator@V?$basic_string@DU?$char_traits@D@std@@V?$allocator@D@2@@std@@@2@@std@@QAE?AV?$_Vector_iterator@V?$_Vector_val@V?$basic_string@DU?$char_traits@D@std@@V?$allocator@D@2@@std@@V?$allocator@V?$basic_string@DU?$char_traits@D@std@@V?$allocator@D@2@@std@@@2@@std@@@2@XZ 00486ce0 f i Game.obj
 0001:00085d00       ??0?$_Tree_iterator@V?$_Tree_val@V?$_Tmap_traits@PAVCItem@@KUItemMapComp@@V?$allocator@U?$pair@QAVCItem@@K@std@@@std@@$00@std@@@std@@@std@@QAE@XZ 00486d00 f i Game.obj
 0001:00085d10       ??E?$_Tree_iterator@V?$_Tree_val@V?$_Tmap_traits@PAVCItem@@KUItemMapComp@@V?$allocator@U?$pair@QAVCItem@@K@std@@@std@@$00@std@@@std@@@std@@QAEAAV01@XZ 00486d10 f i Game.obj
 0001:00085d20       ??F?$_Tree_iterator@V?$_Tree_val@V?$_Tmap_traits@PAVCItem@@KUItemMapComp@@V?$allocator@U?$pair@QAVCItem@@K@std@@@std@@$00@std@@@std@@@std@@QAEAAV01@XZ 00486d20 f i Game.obj
 0001:00085d30       ??0?$vector@PAUpartyMember@CGame@@V?$allocator@PAUpartyMember@CGame@@@std@@@std@@QAE@XZ 00486d30 f i Game.obj
 0001:00085d40       ?begin@?$vector@PAUpartyMember@CGame@@V?$allocator@PAUpartyMember@CGame@@@std@@@std@@QAE?AV?$_Vector_iterator@V?$_Vector_val@PAUpartyMember@CGame@@V?$allocator@PAUpartyMember@CGame@@@std@@@std@@@2@XZ 00486d40 f i Game.obj
 0001:00085d60       ?end@?$vector@PAUpartyMember@CGame@@V?$allocator@PAUpartyMember@CGame@@@std@@@std@@QAE?AV?$_Vector_iterator@V?$_Vector_val@PAUpartyMember@CGame@@V?$allocator@PAUpartyMember@CGame@@@std@@@std@@@2@XZ 00486d60 f i Game.obj
 0001:00085d80       ??0?$vector@PAUguildMember@CGame@@V?$allocator@PAUguildMember@CGame@@@std@@@std@@QAE@XZ 00486d80 f i Game.obj
 0001:00085d90       ?begin@?$vector@PAUguildMember@CGame@@V?$allocator@PAUguildMember@CGame@@@std@@@std@@QAE?AV?$_Vector_iterator@V?$_Vector_val@PAUguildMember@CGame@@V?$allocator@PAUguildMember@CGame@@@std@@@std@@@2@XZ 00486d90 f i Game.obj
 0001:00085db0       ?end@?$vector@PAUguildMember@CGame@@V?$allocator@PAUguildMember@CGame@@@std@@@std@@QAE?AV?$_Vector_iterator@V?$_Vector_val@PAUguildMember@CGame@@V?$allocator@PAUguildMember@CGame@@@std@@@std@@@2@XZ 00486db0 f i Game.obj
 0001:00085dd0       ?begin@?$_Tree@V?$_Tset_traits@V?$basic_string@DU?$char_traits@D@std@@V?$allocator@D@2@@std@@U?$less@V?$basic_string@DU?$char_traits@D@std@@V?$allocator@D@2@@std@@@2@V?$allocator@V?$basic_string@DU?$char_traits@D@std@@V?$allocator@D@2@@std@@@2@$0A@@std@@@std@@QAE?AV?$_Tree_const_iterator@V?$_Tree_val@V?$_Tset_traits@V?$basic_string@DU?$char_traits@D@std@@V?$allocator@D@2@@std@@U?$less@V?$basic_string@DU?$char_traits@D@std@@V?$allocator@D@2@@std@@@2@V?$allocator@V?$basic_string@DU?$char_traits@D@std@@V?$allocator@D@2@@std@@@2@$0A@@std@@@std@@@2@XZ 00486dd0 f i Game.obj
 0001:00085df0       ?end@?$_Tree@V?$_Tset_traits@V?$basic_string@DU?$char_traits@D@std@@V?$allocator@D@2@@std@@U?$less@V?$basic_string@DU?$char_traits@D@std@@V?$allocator@D@2@@std@@@2@V?$allocator@V?$basic_string@DU?$char_traits@D@std@@V?$allocator@D@2@@std@@@2@$0A@@std@@@std@@QAE?AV?$_Tree_const_iterator@V?$_Tree_val@V?$_Tset_traits@V?$basic_string@DU?$char_traits@D@std@@V?$allocator@D@2@@std@@U?$less@V?$basic_string@DU?$char_traits@D@std@@V?$allocator@D@2@@std@@@2@V?$allocator@V?$basic_string@DU?$char_traits@D@std@@V?$allocator@D@2@@std@@@2@$0A@@std@@@std@@@2@XZ 00486df0 f i Game.obj
 0001:00085e10       ??H?$_Vector_iterator@V?$_Vector_val@PAVCMsg@@V?$allocator@PAVCMsg@@@std@@@std@@@std@@QBE?AV01@H@Z 00486e10 f i Game.obj
 0001:00085e30       ??9?$_Vector_const_iterator@V?$_Vector_val@PAVCMsg@@V?$allocator@PAVCMsg@@@std@@@std@@@std@@QBE_NABV01@@Z 00486e30 f i Game.obj
 0001:00085e50       ??0?$vector@HV?$allocator@H@std@@@std@@QAE@XZ 00486e50 f i Game.obj
 0001:00085e60       ??0?$_List_iterator@V?$_List_val@U?$pair@$$CBV?$basic_string@DU?$char_traits@D@std@@V?$allocator@D@2@@std@@UGuildMember@@@std@@V?$allocator@U?$pair@$$CBV?$basic_string@DU?$char_traits@D@std@@V?$allocator@D@2@@std@@UGuildMember@@@std@@@2@@std@@@std@@QAE@XZ 00486e60 f i Game.obj
 0001:00085e70       ??E?$_Tree_const_iterator@V?$_Tree_val@V?$_Tset_traits@V?$basic_string@DU?$char_traits@D@std@@V?$allocator@D@2@@std@@U?$less@V?$basic_string@DU?$char_traits@D@std@@V?$allocator@D@2@@std@@@2@V?$allocator@V?$basic_string@DU?$char_traits@D@std@@V?$allocator@D@2@@std@@@2@$0A@@std@@@std@@@std@@QAEAAV01@XZ 00486e70 f i Game.obj
 0001:00085e80       ??E?$reverse_iterator@V?$_Vector_iterator@V?$_Vector_val@PAVCMsg@@V?$allocator@PAVCMsg@@@std@@@std@@@std@@@std@@QAEAAV01@XZ 00486e80 f i Game.obj
 0001:00085e90       ??D?$_Revranit@V?$_Vector_iterator@V?$_Vector_val@PAVCMsg@@V?$allocator@PAVCMsg@@@std@@@std@@@std@@U?$iterator@Urandom_access_iterator_tag@std@@PAVCMsg@@HPAPAV3@AAPAV3@@2@@std@@QBEAAPAVCMsg@@XZ 00486e90 f i Game.obj
 0001:00085ea0       ??C?$_Vector_iterator@V?$_Vector_val@V?$basic_string@DU?$char_traits@D@std@@V?$allocator@D@2@@std@@V?$allocator@V?$basic_string@DU?$char_traits@D@std@@V?$allocator@D@2@@std@@@2@@std@@@std@@QBEPAV?$basic_string@DU?$char_traits@D@std@@V?$allocator@D@2@@1@XZ 00486ea0 f i Game.obj
 0001:00085eb0       ??9?$_Vector_const_iterator@V?$_Vector_val@V?$basic_string@DU?$char_traits@D@std@@V?$allocator@D@2@@std@@V?$allocator@V?$basic_string@DU?$char_traits@D@std@@V?$allocator@D@2@@std@@@2@@std@@@std@@QBE_NABV01@@Z 00486eb0 f i Game.obj
 0001:00085ed0       ??1?$basic_stringstream@DU?$char_traits@D@std@@V?$allocator@D@2@@std@@UAE@XZ 00486ed0 f i Game.obj
 0001:00085f80       ?overflow@?$basic_stringbuf@DU?$char_traits@D@std@@V?$allocator@D@2@@std@@MAEHH@Z 00486f80 f i Game.obj
 0001:00086190       ?_Lrotate@?$_Tree@V?$_Tmap_traits@PAVCItem@@KUItemMapComp@@V?$allocator@U?$pair@QAVCItem@@K@std@@@std@@$00@std@@@std@@IAEXPAU_Node@?$_Tree_nod@V?$_Tmap_traits@PAVCItem@@KUItemMapComp@@V?$allocator@U?$pair@QAVCItem@@K@std@@@std@@$00@std@@@2@@Z 00487190 f i Game.obj
 0001:00086200       ?_Make_iter@?$vector@PAVCMsg@@V?$allocator@PAVCMsg@@@std@@@std@@QBE?AV?$_Vector_iterator@V?$_Vector_val@PAVCMsg@@V?$allocator@PAVCMsg@@@std@@@std@@@2@V?$_Vector_const_iterator@V?$_Vector_val@PAVCMsg@@V?$allocator@PAVCMsg@@@std@@@std@@@2@@Z 00487200 f i Game.obj
 0001:00086220       ?_Destroy@?$vector@PAVCMsg@@V?$allocator@PAVCMsg@@@std@@@std@@IAEXPAPAVCMsg@@0@Z 00487220 f i Game.obj
 0001:00086230       ?_Tidy@?$vector@PAVCMsg@@V?$allocator@PAVCMsg@@@std@@@std@@IAEXXZ 00487230 f i Game.obj
 0001:00086270       ??0?$_Tree_iterator@V?$_Tree_val@V?$_Tmap_traits@PAVCItem@@KUItemMapComp@@V?$allocator@U?$pair@QAVCItem@@K@std@@@std@@$00@std@@@std@@@std@@QAE@PAU_Node@?$_Tree_nod@V?$_Tmap_traits@PAVCItem@@KUItemMapComp@@V?$allocator@U?$pair@QAVCItem@@K@std@@@std@@$00@std@@@1@PBV?$_Tree_val@V?$_Tmap_traits@PAVCItem@@KUItemMapComp@@V?$allocator@U?$pair@QAVCItem@@K@std@@@std@@$00@std@@@1@@Z 00487270 f i Game.obj
 0001:00086290       ?_Make_iter@?$vector@PAUpartyMember@CGame@@V?$allocator@PAUpartyMember@CGame@@@std@@@std@@QBE?AV?$_Vector_iterator@V?$_Vector_val@PAUpartyMember@CGame@@V?$allocator@PAUpartyMember@CGame@@@std@@@std@@@2@V?$_Vector_const_iterator@V?$_Vector_val@PAUpartyMember@CGame@@V?$allocator@PAUpartyMember@CGame@@@std@@@std@@@2@@Z 00487290 f i Game.obj
 0001:000862b0       ?_Destroy@?$vector@PAUpartyMember@CGame@@V?$allocator@PAUpartyMember@CGame@@@std@@@std@@IAEXPAPAUpartyMember@CGame@@0@Z 004872b0 f i Game.obj
 0001:000862c0       ?_Tidy@?$vector@PAUpartyMember@CGame@@V?$allocator@PAUpartyMember@CGame@@@std@@@std@@IAEXXZ 004872c0 f i Game.obj
 0001:00086300       ?_Make_iter@?$vector@PAUguildMember@CGame@@V?$allocator@PAUguildMember@CGame@@@std@@@std@@QBE?AV?$_Vector_iterator@V?$_Vector_val@PAUguildMember@CGame@@V?$allocator@PAUguildMember@CGame@@@std@@@std@@@2@V?$_Vector_const_iterator@V?$_Vector_val@PAUguildMember@CGame@@V?$allocator@PAUguildMember@CGame@@@std@@@std@@@2@@Z 00487300 f i Game.obj
 0001:00086320       ?_Destroy@?$vector@PAUguildMember@CGame@@V?$allocator@PAUguildMember@CGame@@@std@@@std@@IAEXPAPAUguildMember@CGame@@0@Z 00487320 f i Game.obj
 0001:00086330       ?_Tidy@?$vector@PAUguildMember@CGame@@V?$allocator@PAUguildMember@CGame@@@std@@@std@@IAEXXZ 00487330 f i Game.obj
 0001:00086370       ?begin@?$vector@HV?$allocator@H@std@@@std@@QAE?AV?$_Vector_iterator@V?$_Vector_val@HV?$allocator@H@std@@@std@@@2@XZ 00487370 f i Game.obj
 0001:00086390       ?end@?$vector@HV?$allocator@H@std@@@std@@QAE?AV?$_Vector_iterator@V?$_Vector_val@HV?$allocator@H@std@@@std@@@2@XZ 00487390 f i Game.obj
 0001:000863b0       ??D?$_List_iterator@V?$_List_val@U?$pair@$$CBEPBD@std@@V?$allocator@U?$pair@$$CBEPBD@std@@@2@@std@@@std@@QBEAAU?$pair@$$CBEPBD@1@XZ 004873b0 f i Game.obj
 0001:000863c0       ??0?$pair@$$CBEPBD@std@@QAE@ABE$$QAPBD@Z 004873c0 f i Game.obj
 0001:000863e0       ??0?$basic_stringbuf@DU?$char_traits@D@std@@V?$allocator@D@2@@std@@QAE@H@Z 004873e0 f i Game.obj
 0001:00086480       ??0?$_Tree_val@V?$_Tmap_traits@PAVCItem@@KUItemMapComp@@V?$allocator@U?$pair@QAVCItem@@K@std@@@std@@$00@std@@@std@@QAE@ABUItemMapComp@@V?$allocator@U?$pair@QAVCItem@@K@std@@@1@@Z 00487480 f i Game.obj
 0001:00086510       ??0?$_Tree_val@V?$_Tset_traits@V?$basic_string@DU?$char_traits@D@std@@V?$allocator@D@2@@std@@U?$less@V?$basic_string@DU?$char_traits@D@std@@V?$allocator@D@2@@std@@@2@V?$allocator@V?$basic_string@DU?$char_traits@D@std@@V?$allocator@D@2@@std@@@2@$0A@@std@@@std@@QAE@ABU?$less@V?$basic_string@DU?$char_traits@D@std@@V?$allocator@D@2@@std@@@1@V?$allocator@V?$basic_string@DU?$char_traits@D@std@@V?$allocator@D@2@@std@@@1@@Z 00487510 f i Game.obj
 0001:000865a0       ?_Begin@?$_Hash@V?$_Umap_traits@EPBDV?$_Hash_compare@EV?$hash@E@std@@U?$equal_to@E@2@@std@@V?$allocator@U?$pair@$$CBEPBD@std@@@2@$0A@@tr1@std@@@std@@IAE?AV?$_List_iterator@V?$_List_val@U?$pair@$$CBEPBD@std@@V?$allocator@U?$pair@$$CBEPBD@std@@@2@@std@@@2@I@Z 004875a0 f i Game.obj
 0001:000865c0       ?_Hashval@?$_Hash@V?$_Umap_traits@EPBDV?$_Hash_compare@EV?$hash@E@std@@U?$equal_to@E@2@@std@@V?$allocator@U?$pair@$$CBEPBD@std@@@2@$0A@@tr1@std@@@std@@IBEIABE@Z 004875c0 f i Game.obj
 0001:00086620       ??0?$vector@V?$_List_iterator@V?$_List_val@U?$pair@$$CBEPBD@std@@V?$allocator@U?$pair@$$CBEPBD@std@@@2@@std@@@std@@V?$allocator@V?$_List_iterator@V?$_List_val@U?$pair@$$CBEPBD@std@@V?$allocator@U?$pair@$$CBEPBD@std@@@2@@std@@@std@@@2@@std@@QAE@ABV?$allocator@V?$_List_iterator@V?$_List_val@U?$pair@$$CBEPBD@std@@V?$allocator@U?$pair@$$CBEPBD@std@@@2@@std@@@std@@@1@@Z 00487620 f i Game.obj
 0001:00086640       ?_Make_iter@?$vector@HV?$allocator@H@std@@@std@@QBE?AV?$_Vector_iterator@V?$_Vector_val@HV?$allocator@H@std@@@std@@@2@V?$_Vector_const_iterator@V?$_Vector_val@HV?$allocator@H@std@@@std@@@2@@Z 00487640 f i Game.obj
 0001:00086660       ??E?$_Tree_const_iterator@V?$_Tree_val@V?$_Tset_traits@V?$basic_string@DU?$char_traits@D@std@@V?$allocator@D@2@@std@@U?$less@V?$basic_string@DU?$char_traits@D@std@@V?$allocator@D@2@@std@@@2@V?$allocator@V?$basic_string@DU?$char_traits@D@std@@V?$allocator@D@2@@std@@@2@$0A@@std@@@std@@@std@@QAE?AV01@H@Z 00487660 f i Game.obj
 0001:00086680       ??Y?$_Revranit@V?$_Vector_iterator@V?$_Vector_val@PAVCMsg@@V?$allocator@PAVCMsg@@@std@@@std@@@std@@U?$iterator@Urandom_access_iterator_tag@std@@PAVCMsg@@HPAPAV3@AAPAV3@@2@@std@@QAEAAV01@H@Z 00487680 f i Game.obj
 0001:000866a0       ??0?$_List_iterator@V?$_List_val@U?$pair@$$CBEPBD@std@@V?$allocator@U?$pair@$$CBEPBD@std@@@2@@std@@@std@@QAE@PAU_Node@?$_List_nod@U?$pair@$$CBEPBD@std@@V?$allocator@U?$pair@$$CBEPBD@std@@@2@@1@PBV?$_List_val@U?$pair@$$CBEPBD@std@@V?$allocator@U?$pair@$$CBEPBD@std@@@2@@1@@Z 004876a0 f i Game.obj
 0001:000866c0       ??E?$_List_iterator@V?$_List_val@U?$pair@$$CBEPBD@std@@V?$allocator@U?$pair@$$CBEPBD@std@@@2@@std@@@std@@QAEAAV01@XZ 004876c0 f i Game.obj
 0001:000866d0       ??9?$_Vector_const_iterator@V?$_Vector_val@HV?$allocator@H@std@@@std@@@std@@QBE_NABV01@@Z 004876d0 f i Game.obj
 0001:000866f0       ??0?$_List_val@U?$pair@$$CBEPBD@std@@V?$allocator@U?$pair@$$CBEPBD@std@@@2@@std@@QAE@V?$allocator@U?$pair@$$CBEPBD@std@@@1@@Z 004876f0 f i Game.obj
 0001:00086760       ?begin@?$vector@V?$_List_iterator@V?$_List_val@U?$pair@$$CBEPBD@std@@V?$allocator@U?$pair@$$CBEPBD@std@@@2@@std@@@std@@V?$allocator@V?$_List_iterator@V?$_List_val@U?$pair@$$CBEPBD@std@@V?$allocator@U?$pair@$$CBEPBD@std@@@2@@std@@@std@@@2@@std@@QAE?AV?$_Vector_iterator@V?$_Vector_val@V?$_List_iterator@V?$_List_val@U?$pair@$$CBEPBD@std@@V?$allocator@U?$pair@$$CBEPBD@std@@@2@@std@@@std@@V?$allocator@V?$_List_iterator@V?$_List_val@U?$pair@$$CBEPBD@std@@V?$allocator@U?$pair@$$CBEPBD@std@@@2@@std@@@std@@@2@@std@@@2@XZ 00487760 f i Game.obj
 0001:00086780       ?end@?$vector@V?$_List_iterator@V?$_List_val@U?$pair@$$CBEPBD@std@@V?$allocator@U?$pair@$$CBEPBD@std@@@2@@std@@@std@@V?$allocator@V?$_List_iterator@V?$_List_val@U?$pair@$$CBEPBD@std@@V?$allocator@U?$pair@$$CBEPBD@std@@@2@@std@@@std@@@2@@std@@QAE?AV?$_Vector_iterator@V?$_Vector_val@V?$_List_iterator@V?$_List_val@U?$pair@$$CBEPBD@std@@V?$allocator@U?$pair@$$CBEPBD@std@@@2@@std@@@std@@V?$allocator@V?$_List_iterator@V?$_List_val@U?$pair@$$CBEPBD@std@@V?$allocator@U?$pair@$$CBEPBD@std@@@2@@std@@@std@@@2@@std@@@2@XZ 00487780 f i Game.obj
 0001:000867a0       ?_Make_iter@?$vector@V?$_List_iterator@V?$_List_val@U?$pair@$$CBEPBD@std@@V?$allocator@U?$pair@$$CBEPBD@std@@@2@@std@@@std@@V?$allocator@V?$_List_iterator@V?$_List_val@U?$pair@$$CBEPBD@std@@V?$allocator@U?$pair@$$CBEPBD@std@@@2@@std@@@std@@@2@@std@@QBE?AV?$_Vector_iterator@V?$_Vector_val@V?$_List_iterator@V?$_List_val@U?$pair@$$CBEPBD@std@@V?$allocator@U?$pair@$$CBEPBD@std@@@2@@std@@@std@@V?$allocator@V?$_List_iterator@V?$_List_val@U?$pair@$$CBEPBD@std@@V?$allocator@U?$pair@$$CBEPBD@std@@@2@@std@@@std@@@2@@std@@@2@V?$_Vector_const_iterator@V?$_Vector_val@V?$_List_iterator@V?$_List_val@U?$pair@$$CBEPBD@std@@V?$allocator@U?$pair@$$CBEPBD@std@@@2@@std@@@std@@V?$allocator@V?$_List_iterator@V?$_List_val@U?$pair@$$CBEPBD@std@@V?$allocator@U?$pair@$$CBEPBD@std@@@2@@std@@@std@@@2@@std@@@2@@Z 004877a0 f i Game.obj
 0001:000867c0       ??9?$_Vector_const_iterator@V?$_Vector_val@V?$_List_iterator@V?$_List_val@U?$pair@$$CBEPBD@std@@V?$allocator@U?$pair@$$CBEPBD@std@@@2@@std@@@std@@V?$allocator@V?$_List_iterator@V?$_List_val@U?$pair@$$CBEPBD@std@@V?$allocator@U?$pair@$$CBEPBD@std@@@2@@std@@@std@@@2@@std@@@std@@QBE_NABV01@@Z 004877c0 f i Game.obj
 0001:000867e0       ??$use_facet@V?$ctype@D@std@@@std@@YAABV?$ctype@D@0@ABVlocale@0@@Z 004877e0 f i Game.obj
 0001:00086970       ??$?8V?$_Vector_iterator@V?$_Vector_val@PAVCMsg@@V?$allocator@PAVCMsg@@@std@@@std@@@std@@V01@@std@@YA_NABV?$reverse_iterator@V?$_Vector_iterator@V?$_Vector_val@PAVCMsg@@V?$allocator@PAVCMsg@@@std@@@std@@@std@@@0@0@Z 00487970 f i Game.obj
 0001:00086990       ??$_Dest_val@V?$allocator@U?$pair@QAVCItem@@K@std@@@std@@U?$pair@QAVCItem@@K@2@@std@@YAXAAV?$allocator@U?$pair@QAVCItem@@K@std@@@0@PAU?$pair@QAVCItem@@K@0@@Z 00487990 f i Game.obj
 0001:000869a0       ??$_Cons_val@V?$allocator@PAVCMsg@@@std@@PAVCMsg@@ABQAV3@@std@@YAXAAV?$allocator@PAVCMsg@@@0@PAPAVCMsg@@ABQAV2@@Z 004879a0 f i Game.obj
 0001:000869c0       ??$_Uninitialized_default_fill_n@PAPAVCMsg@@IPAV1@V?$allocator@PAVCMsg@@@std@@@std@@YAXPAPAVCMsg@@IPBQAV1@AAV?$allocator@PAVCMsg@@@0@@Z 004879c0 f i Game.obj
 0001:000869e0       ??$?MDU?$char_traits@D@std@@V?$allocator@D@1@@std@@YA_NABV?$basic_string@DU?$char_traits@D@std@@V?$allocator@D@2@@0@0@Z 004879e0 f i Game.obj
 0001:00086a20       ??$_Umove@PAPAVCMsg@@@?$vector@PAVCMsg@@V?$allocator@PAVCMsg@@@std@@@std@@IAEPAPAVCMsg@@PAPAV2@00@Z 00487a20 f i Game.obj
 0001:00086a60       ??$_Umove@PAPAUpartyMember@CGame@@@?$vector@PAUpartyMember@CGame@@V?$allocator@PAUpartyMember@CGame@@@std@@@std@@IAEPAPAUpartyMember@CGame@@PAPAU23@00@Z 00487a60 f i Game.obj
 0001:00086aa0       ??$_Umove@PAPAUguildMember@CGame@@@?$vector@PAUguildMember@CGame@@V?$allocator@PAUguildMember@CGame@@@std@@@std@@IAEPAPAUguildMember@CGame@@PAPAU23@00@Z 00487aa0 f i Game.obj
 0001:00086ae0       ??$_Dest_val@V?$allocator@U_Node@?$_List_nod@U?$pair@$$CBEPBD@std@@V?$allocator@U?$pair@$$CBEPBD@std@@@2@@std@@@std@@U_Node@?$_List_nod@U?$pair@$$CBEPBD@std@@V?$allocator@U?$pair@$$CBEPBD@std@@@2@@2@@std@@YAXAAV?$allocator@U_Node@?$_List_nod@U?$pair@$$CBEPBD@std@@V?$allocator@U?$pair@$$CBEPBD@std@@@2@@std@@@0@PAU_Node@?$_List_nod@U?$pair@$$CBEPBD@std@@V?$allocator@U?$pair@$$CBEPBD@std@@@2@@0@@Z 00487ae0 f i Game.obj
 0001:00086af0       ??$_Move@PAV?$_List_iterator@V?$_List_val@U?$pair@$$CBEPBD@std@@V?$allocator@U?$pair@$$CBEPBD@std@@@2@@std@@@std@@PAV12@@std@@YAPAV?$_List_iterator@V?$_List_val@U?$pair@$$CBEPBD@std@@V?$allocator@U?$pair@$$CBEPBD@std@@@2@@std@@@0@PAV10@00@Z 00487af0 f i Game.obj
 0001:00086b20       ?begin@?$list@U?$pair@$$CBEPBD@std@@V?$allocator@U?$pair@$$CBEPBD@std@@@2@@std@@QAE?AV?$_List_iterator@V?$_List_val@U?$pair@$$CBEPBD@std@@V?$allocator@U?$pair@$$CBEPBD@std@@@2@@std@@@2@XZ 00487b20 f i Game.obj
 0001:00086b40       ??0?$_Bind0@U?$_Callable_obj@V?$mem_fun_t@XVCGame@@@std@@$0A@@tr1@std@@@tr1@std@@QAE@AAV?$mem_fun_t@XVCGame@@@2@@Z 00487b40 f i Game.obj
 0001:00086b60       ??0?$pair@V?$_Tree_const_iterator@V?$_Tree_val@V?$_Tset_traits@V?$basic_string@DU?$char_traits@D@std@@V?$allocator@D@2@@std@@U?$less@V?$basic_string@DU?$char_traits@D@std@@V?$allocator@D@2@@std@@@2@V?$allocator@V?$basic_string@DU?$char_traits@D@std@@V?$allocator@D@2@@std@@@2@$0A@@std@@@std@@@std@@_N@std@@QAE@$$QAV?$_Tree_const_iterator@V?$_Tree_val@V?$_Tset_traits@V?$basic_string@DU?$char_traits@D@std@@V?$allocator@D@2@@std@@U?$less@V?$basic_string@DU?$char_traits@D@std@@V?$allocator@D@2@@std@@@2@V?$allocator@V?$basic_string@DU?$char_traits@D@std@@V?$allocator@D@2@@std@@@2@$0A@@std@@@std@@@1@$$QA_N@Z 00487b60 f i Game.obj
 0001:00086b80       ?load_factor@?$_Hash@V?$_Umap_traits@EPBDV?$_Hash_compare@EV?$hash@E@std@@U?$equal_to@E@2@@std@@V?$allocator@U?$pair@$$CBEPBD@std@@@2@$0A@@tr1@std@@@std@@QBEMXZ 00487b80 f i Game.obj
 0001:00086bc0       ?_Make_iter@?$list@U?$pair@$$CBEPBD@std@@V?$allocator@U?$pair@$$CBEPBD@std@@@2@@std@@QBE?AV?$_List_iterator@V?$_List_val@U?$pair@$$CBEPBD@std@@V?$allocator@U?$pair@$$CBEPBD@std@@@2@@std@@@2@V?$_List_const_iterator@V?$_List_val@U?$pair@$$CBEPBD@std@@V?$allocator@U?$pair@$$CBEPBD@std@@@2@@std@@@2@@Z 00487bc0 f i Game.obj
 0001:00086be0       ?_Incsize@?$list@U?$pair@$$CBEPBD@std@@V?$allocator@U?$pair@$$CBEPBD@std@@@2@@std@@QAEXI@Z 00487be0 f i Game.obj
 0001:00086c20       ??$_Transform@PADV?$_String_iterator@DU?$char_traits@D@std@@V?$allocator@D@2@@std@@P6AHH@Z@std@@YA?AV?$_String_iterator@DU?$char_traits@D@std@@V?$allocator@D@2@@0@PAD0V10@P6AHH@Z@Z 00487c20 f i Game.obj
 0001:00086c70       ??$find_if@V?$_Vector_iterator@V?$_Vector_val@PAVCMsg@@V?$allocator@PAVCMsg@@@std@@@std@@@std@@P6A_NPBVCMsg@@@Z@std@@YA?AV?$_Vector_iterator@V?$_Vector_val@PAVCMsg@@V?$allocator@PAVCMsg@@@std@@@std@@@0@V10@0P6A_NPBVCMsg@@@Z@Z 00487c70 f i Game.obj
 0001:00086cc0       ??$_Distance2@V?$_Tree_const_iterator@V?$_Tree_val@V?$_Tset_traits@V?$basic_string@DU?$char_traits@D@std@@V?$allocator@D@2@@std@@U?$less@V?$basic_string@DU?$char_traits@D@std@@V?$allocator@D@2@@std@@@2@V?$allocator@V?$basic_string@DU?$char_traits@D@std@@V?$allocator@D@2@@std@@@2@$0A@@std@@@std@@@std@@I@std@@YAXV?$_Tree_const_iterator@V?$_Tree_val@V?$_Tset_traits@V?$basic_string@DU?$char_traits@D@std@@V?$allocator@D@2@@std@@U?$less@V?$basic_string@DU?$char_traits@D@std@@V?$allocator@D@2@@std@@@2@V?$allocator@V?$basic_string@DU?$char_traits@D@std@@V?$allocator@D@2@@std@@@2@$0A@@std@@@std@@@0@0AAIUbidirectional_iterator_tag@0@@Z 00487cc0 f i Game.obj
 0001:00086d40       ??_G?$basic_string@DU?$char_traits@D@std@@V?$allocator@D@2@@std@@QAEPAXI@Z 00487d40 f i Game.obj
 0001:00086d90       ?_Insert@?$_Tree@V?$_Tmap_traits@PAVCItem@@KUItemMapComp@@V?$allocator@U?$pair@QAVCItem@@K@std@@@std@@$00@std@@@std@@IAE?AV?$_Tree_iterator@V?$_Tree_val@V?$_Tmap_traits@PAVCItem@@KUItemMapComp@@V?$allocator@U?$pair@QAVCItem@@K@std@@@std@@$00@std@@@std@@@2@_NPAU_Node@?$_Tree_nod@V?$_Tmap_traits@PAVCItem@@KUItemMapComp@@V?$allocator@U?$pair@QAVCItem@@K@std@@@std@@$00@std@@@2@1@Z 00487d90 f i Game.obj
 0001:00087040       ??0?$pair@V?$_Tree_iterator@V?$_Tree_val@V?$_Tmap_traits@PAVCItem@@KUItemMapComp@@V?$allocator@U?$pair@QAVCItem@@K@std@@@std@@$00@std@@@std@@@std@@_N@std@@QAE@$$QAV?$_Tree_iterator@V?$_Tree_val@V?$_Tmap_traits@PAVCItem@@KUItemMapComp@@V?$allocator@U?$pair@QAVCItem@@K@std@@@std@@$00@std@@@std@@@1@$$QA_N@Z 00488040 f i Game.obj
 0001:00087060       ??$_Move@PAPAVCMsg@@V?$_Vector_iterator@V?$_Vector_val@PAVCMsg@@V?$allocator@PAVCMsg@@@std@@@std@@@std@@@std@@YA?AV?$_Vector_iterator@V?$_Vector_val@PAVCMsg@@V?$allocator@PAVCMsg@@@std@@@std@@@0@PAPAVCMsg@@0V10@@Z 00488060 f i Game.obj
 0001:00087090       ??$_Dest_val@V?$allocator@V?$_List_iterator@V?$_List_val@U?$pair@$$CBEPBD@std@@V?$allocator@U?$pair@$$CBEPBD@std@@@2@@std@@@std@@@std@@V?$_List_iterator@V?$_List_val@U?$pair@$$CBEPBD@std@@V?$allocator@U?$pair@$$CBEPBD@std@@@2@@std@@@2@@std@@YAXAAV?$allocator@V?$_List_iterator@V?$_List_val@U?$pair@$$CBEPBD@std@@V?$allocator@U?$pair@$$CBEPBD@std@@@2@@std@@@std@@@0@PAV?$_List_iterator@V?$_List_val@U?$pair@$$CBEPBD@std@@V?$allocator@U?$pair@$$CBEPBD@std@@@2@@std@@@0@@Z 00488090 f i Game.obj
 0001:000870a0       ??$_Cons_val@V?$allocator@V?$_List_iterator@V?$_List_val@U?$pair@$$CBEPBD@std@@V?$allocator@U?$pair@$$CBEPBD@std@@@2@@std@@@std@@@std@@V?$_List_iterator@V?$_List_val@U?$pair@$$CBEPBD@std@@V?$allocator@U?$pair@$$CBEPBD@std@@@2@@std@@@2@ABV32@@std@@YAXAAV?$allocator@V?$_List_iterator@V?$_List_val@U?$pair@$$CBEPBD@std@@V?$allocator@U?$pair@$$CBEPBD@std@@@2@@std@@@std@@@0@PAV?$_List_iterator@V?$_List_val@U?$pair@$$CBEPBD@std@@V?$allocator@U?$pair@$$CBEPBD@std@@@2@@std@@@0@ABV20@@Z 004880a0 f i Game.obj
 0001:000870c0       ??0?$_Impl_no_alloc0@U?$_Callable_obj@V?$_Bind_fty@V?$mem_fun_t@XVCGame@@@std@@U_Notforced@tr1@2@V?$_Bind1@U?$_Callable_obj@V?$mem_fun_t@XVCGame@@@std@@$0A@@tr1@std@@PAVCGame@@@42@@tr1@std@@$0A@@tr1@std@@X@tr1@std@@QAE@AAV?$_Bind_fty@V?$mem_fun_t@XVCGame@@@std@@U_Notforced@tr1@2@V?$_Bind1@U?$_Callable_obj@V?$mem_fun_t@XVCGame@@@std@@$0A@@tr1@std@@PAVCGame@@@42@@12@V?$allocator@V?$_Impl_no_alloc0@U?$_Callable_obj@V?$_Bind_fty@V?$mem_fun_t@XVCGame@@@std@@U_Notforced@tr1@2@V?$_Bind1@U?$_Callable_obj@V?$mem_fun_t@XVCGame@@@std@@$0A@@tr1@std@@PAVCGame@@@42@@tr1@std@@$0A@@tr1@std@@X@tr1@std@@@2@@Z 004880c0 f i Game.obj
 0001:000870f0       ??1?$_Impl_no_alloc0@U?$_Callable_obj@V?$_Bind_fty@V?$mem_fun_t@XVCGame@@@std@@U_Notforced@tr1@2@V?$_Bind1@U?$_Callable_obj@V?$mem_fun_t@XVCGame@@@std@@$0A@@tr1@std@@PAVCGame@@@42@@tr1@std@@$0A@@tr1@std@@X@tr1@std@@UAE@XZ 004880f0 f i Game.obj
 0001:00087100       ?_Target_type@?$_Impl_no_alloc0@U?$_Callable_obj@V?$_Bind_fty@V?$mem_fun_t@XVCGame@@@std@@U_Notforced@tr1@2@V?$_Bind1@U?$_Callable_obj@V?$mem_fun_t@XVCGame@@@std@@$0A@@tr1@std@@PAVCGame@@@42@@tr1@std@@$0A@@tr1@std@@X@tr1@std@@UBEABVtype_info@@XZ 00488100 f i Game.obj
 0001:00087110       ??_E?$_Impl_no_alloc0@U?$_Callable_obj@V?$_Bind_fty@V?$mem_fun_t@XVCGame@@@std@@U_Notforced@tr1@2@V?$_Bind1@U?$_Callable_obj@V?$mem_fun_t@XVCGame@@@std@@$0A@@tr1@std@@PAVCGame@@@42@@tr1@std@@$0A@@tr1@std@@X@tr1@std@@UAEPAXI@Z 00488110 f i Game.obj
 0001:00087110       ??_G?$_Impl_no_alloc0@U?$_Callable_obj@V?$_Bind_fty@V?$mem_fun_t@XVCGame@@@std@@U_Notforced@tr1@2@V?$_Bind1@U?$_Callable_obj@V?$mem_fun_t@XVCGame@@@std@@$0A@@tr1@std@@PAVCGame@@@42@@tr1@std@@$0A@@tr1@std@@X@tr1@std@@UAEPAXI@Z 00488110 f i Game.obj
 0001:00087140       ??0?$_Impl_base0@X@tr1@std@@QAE@ABV012@@Z 00488140 f i Game.obj
 0001:00087150       ?_Get@?$_Callable_base@V?$_Bind_fty@V?$mem_fun_t@XVCGame@@@std@@U_Notforced@tr1@2@V?$_Bind1@U?$_Callable_obj@V?$mem_fun_t@XVCGame@@@std@@$0A@@tr1@std@@PAVCGame@@@42@@tr1@std@@$0A@@tr1@std@@QBEABV?$_Bind_fty@V?$mem_fun_t@XVCGame@@@std@@U_Notforced@tr1@2@V?$_Bind1@U?$_Callable_obj@V?$mem_fun_t@XVCGame@@@std@@$0A@@tr1@std@@PAVCGame@@@42@@23@XZ 00488150 f i Game.obj
 0001:00087160       ?deallocate@?$allocator@V?$_Impl_no_alloc0@U?$_Callable_obj@V?$_Bind_fty@V?$mem_fun_t@XVCGame@@@std@@U_Notforced@tr1@2@V?$_Bind1@U?$_Callable_obj@V?$mem_fun_t@XVCGame@@@std@@$0A@@tr1@std@@PAVCGame@@@42@@tr1@std@@$0A@@tr1@std@@X@tr1@std@@@std@@QAEXPAV?$_Impl_no_alloc0@U?$_Callable_obj@V?$_Bind_fty@V?$mem_fun_t@XVCGame@@@std@@U_Notforced@tr1@2@V?$_Bind1@U?$_Callable_obj@V?$mem_fun_t@XVCGame@@@std@@$0A@@tr1@std@@PAVCGame@@@42@@tr1@std@@$0A@@tr1@std@@X@tr1@2@I@Z 00488160 f i Game.obj
 0001:00087180       ?_Get@?$_Callable_base@V?$_Bind_fty@V?$mem_fun_t@XVCGame@@@std@@U_Notforced@tr1@2@V?$_Bind1@U?$_Callable_obj@V?$mem_fun_t@XVCGame@@@std@@$0A@@tr1@std@@PAVCGame@@@42@@tr1@std@@$0A@@tr1@std@@QAEAAV?$_Bind_fty@V?$mem_fun_t@XVCGame@@@std@@U_Notforced@tr1@2@V?$_Bind1@U?$_Callable_obj@V?$mem_fun_t@XVCGame@@@std@@$0A@@tr1@std@@PAVCGame@@@42@@23@XZ 00488180 f i Game.obj
 0001:00087190       ??$_Destroy@V?$_Impl_no_alloc0@U?$_Callable_obj@V?$_Bind_fty@V?$mem_fun_t@XVCGame@@@std@@U_Notforced@tr1@2@V?$_Bind1@U?$_Callable_obj@V?$mem_fun_t@XVCGame@@@std@@$0A@@tr1@std@@PAVCGame@@@42@@tr1@std@@$0A@@tr1@std@@X@tr1@std@@@std@@YAXPAV?$_Impl_no_alloc0@U?$_Callable_obj@V?$_Bind_fty@V?$mem_fun_t@XVCGame@@@std@@U_Notforced@tr1@2@V?$_Bind1@U?$_Callable_obj@V?$mem_fun_t@XVCGame@@@std@@$0A@@tr1@std@@PAVCGame@@@42@@tr1@std@@$0A@@tr1@std@@X@tr1@0@@Z 00488190 f i Game.obj
 0001:000871b0       ??$_Get@PAVCGame@@AAU_Nil@tr1@std@@AAU234@AAU234@AAU234@AAU234@AAU234@AAU234@AAU234@AAU234@AAU234@@?$_Binder@$0A@$0A@@tr1@std@@SAAAPAVCGame@@AAPAV3@AAU_Nil@12@111111111@Z 004881b0 f i Game.obj
 0001:000871c0       ??R?$mem_fun_t@XVCGame@@@std@@QBEXPAVCGame@@@Z 004881c0 f i Game.obj
 0001:000871e0       ?_Get@?$_Callable_base@V?$mem_fun_t@XVCGame@@@std@@$0A@@tr1@std@@QAEAAV?$mem_fun_t@XVCGame@@@3@XZ 004881e0 f i Game.obj
 0001:000871f0       ??$forward@AAPAVCGame@@@std@@YAAAPAVCGame@@AAPAV1@@Z 004881f0 f i Game.obj
 0001:00087200       ?_Get@?$_Impl_no_alloc0@U?$_Callable_obj@V?$_Bind_fty@V?$mem_fun_t@XVCGame@@@std@@U_Notforced@tr1@2@V?$_Bind1@U?$_Callable_obj@V?$mem_fun_t@XVCGame@@@std@@$0A@@tr1@std@@PAVCGame@@@42@@tr1@std@@$0A@@tr1@std@@X@tr1@std@@EBEPBXXZ 00488200 f i Game.obj
 0001:00087210       ??0?$_Impl_no_alloc0@U?$_Callable_obj@V?$_Bind_fty@V?$mem_fun_t@XVCGame@@@std@@U_Notforced@tr1@2@V?$_Bind1@U?$_Callable_obj@V?$mem_fun_t@XVCGame@@@std@@$0A@@tr1@std@@PAVCGame@@@42@@tr1@std@@$0A@@tr1@std@@X@tr1@std@@QAE@ABV012@@Z 00488210 f i Game.obj
 0001:00087240       ?destroy@?$allocator@V?$_Impl_no_alloc0@U?$_Callable_obj@V?$_Bind_fty@V?$mem_fun_t@XVCGame@@@std@@U_Notforced@tr1@2@V?$_Bind1@U?$_Callable_obj@V?$mem_fun_t@XVCGame@@@std@@$0A@@tr1@std@@PAVCGame@@@42@@tr1@std@@$0A@@tr1@std@@X@tr1@std@@@std@@QAEXPAV?$_Impl_no_alloc0@U?$_Callable_obj@V?$_Bind_fty@V?$mem_fun_t@XVCGame@@@std@@U_Notforced@tr1@2@V?$_Bind1@U?$_Callable_obj@V?$mem_fun_t@XVCGame@@@std@@$0A@@tr1@std@@PAVCGame@@@42@@tr1@std@@$0A@@tr1@std@@X@tr1@2@@Z 00488240 f i Game.obj
 0001:00087260       ??$_ApplyX@XAAPAVCGame@@@?$_Callable_obj@V?$mem_fun_t@XVCGame@@@std@@$0A@@tr1@std@@QAEXAAPAVCGame@@@Z 00488260 f i Game.obj
 0001:00087280       ?_Copy@?$_Impl_no_alloc0@U?$_Callable_obj@V?$_Bind_fty@V?$mem_fun_t@XVCGame@@@std@@U_Notforced@tr1@2@V?$_Bind1@U?$_Callable_obj@V?$mem_fun_t@XVCGame@@@std@@$0A@@tr1@std@@PAVCGame@@@42@@tr1@std@@$0A@@tr1@std@@X@tr1@std@@UAEPAV?$_Impl_base0@X@23@PAX@Z 00488280 f i Game.obj
 0001:00087300       ??$_Cons_val@V?$allocator@V?$_List_iterator@V?$_List_val@U?$pair@$$CBEPBD@std@@V?$allocator@U?$pair@$$CBEPBD@std@@@2@@std@@@std@@@std@@V?$_List_iterator@V?$_List_val@U?$pair@$$CBEPBD@std@@V?$allocator@U?$pair@$$CBEPBD@std@@@2@@std@@@2@V32@@std@@YAXAAV?$allocator@V?$_List_iterator@V?$_List_val@U?$pair@$$CBEPBD@std@@V?$allocator@U?$pair@$$CBEPBD@std@@@2@@std@@@std@@@0@PAV?$_List_iterator@V?$_List_val@U?$pair@$$CBEPBD@std@@V?$allocator@U?$pair@$$CBEPBD@std@@@2@@std@@@0@$$QAV20@@Z 00488300 f i Game.obj
 0001:00087320       ??$_Dest_val@V?$allocator@V?$_Impl_no_alloc0@U?$_Callable_obj@V?$_Bind_fty@V?$mem_fun_t@XVCGame@@@std@@U_Notforced@tr1@2@V?$_Bind1@U?$_Callable_obj@V?$mem_fun_t@XVCGame@@@std@@$0A@@tr1@std@@PAVCGame@@@42@@tr1@std@@$0A@@tr1@std@@X@tr1@std@@@std@@V?$_Impl_no_alloc0@U?$_Callable_obj@V?$_Bind_fty@V?$mem_fun_t@XVCGame@@@std@@U_Notforced@tr1@2@V?$_Bind1@U?$_Callable_obj@V?$mem_fun_t@XVCGame@@@std@@$0A@@tr1@std@@PAVCGame@@@42@@tr1@std@@$0A@@tr1@std@@X@tr1@2@@std@@YAXAAV?$allocator@V?$_Impl_no_alloc0@U?$_Callable_obj@V?$_Bind_fty@V?$mem_fun_t@XVCGame@@@std@@U_Notforced@tr1@2@V?$_Bind1@U?$_Callable_obj@V?$mem_fun_t@XVCGame@@@std@@$0A@@tr1@std@@PAVCGame@@@42@@tr1@std@@$0A@@tr1@std@@X@tr1@std@@@0@PAV?$_Impl_no_alloc0@U?$_Callable_obj@V?$_Bind_fty@V?$mem_fun_t@XVCGame@@@std@@U_Notforced@tr1@2@V?$_Bind1@U?$_Callable_obj@V?$mem_fun_t@XVCGame@@@std@@$0A@@tr1@std@@PAVCGame@@@42@@tr1@std@@$0A@@tr1@std@@X@tr1@0@@Z 00488320 f i Game.obj
 0001:00087340       ??$construct@U?$pair@PAVCItem@@K@std@@@?$allocator@U?$pair@QAVCItem@@K@std@@@std@@QAEXPAU?$pair@QAVCItem@@K@1@$$QAU?$pair@PAVCItem@@K@1@@Z 00488340 f i Game.obj
 0001:00087370       ??$_ApplyX@XAAU_Nil@tr1@std@@AAU123@AAU123@AAU123@AAU123@AAU123@AAU123@AAU123@AAU123@AAU123@@?$_Bind1@U?$_Callable_obj@V?$mem_fun_t@XVCGame@@@std@@$0A@@tr1@std@@PAVCGame@@@tr1@std@@QAEXAAU_Nil@12@000000000@Z 00488370 f i Game.obj
 0001:00087380       ??$?0$$CBEPBD@?$pair@$$CBEPBD@std@@QAE@$$QAU01@@Z 00488380 f i Game.obj
 0001:000873a0       ?UpdateScreen_OnConnecting@CGame@@QAEXXZ 004883a0 f   Game.obj
 0001:00087870       ?UpdateScreen_OnQueryForceLogin@CGame@@QAEXXZ 00488870 f   Game.obj
 0001:00087ef0       ??1partyMember@CGame@@QAE@XZ 00488ef0 f i Game.obj
 0001:00087f20       ??_D?$basic_stringstream@DU?$char_traits@D@std@@V?$allocator@D@2@@std@@QAEXXZ 00488f20 f i Game.obj
 0001:00087f50       ?SaveMuteList@CGame@@QAEXXZ 00488f50 f   Game.obj
 0001:00088090       ??1guildMember@CGame@@QAE@XZ 00489090 f i Game.obj
 0001:000880c0       ?DrawDialogBox_MuteList@CGame@@QAEXXZ 004890c0 f   Game.obj
 0001:000883d0       ?flush@?$basic_ostream@DU?$char_traits@D@std@@@std@@QAEAAV12@XZ 004893d0 f i Game.obj
 0001:00088440       ?begin@?$_Tree@V?$_Tmap_traits@PAVCItem@@KUItemMapComp@@V?$allocator@U?$pair@QAVCItem@@K@std@@@std@@$00@std@@@std@@QAE?AV?$_Tree_iterator@V?$_Tree_val@V?$_Tmap_traits@PAVCItem@@KUItemMapComp@@V?$allocator@U?$pair@QAVCItem@@K@std@@@std@@$00@std@@@std@@@2@XZ 00489440 f i Game.obj
 0001:00088460       ?end@?$_Tree@V?$_Tmap_traits@PAVCItem@@KUItemMapComp@@V?$allocator@U?$pair@QAVCItem@@K@std@@@std@@$00@std@@@std@@QAE?AV?$_Tree_iterator@V?$_Tree_val@V?$_Tmap_traits@PAVCItem@@KUItemMapComp@@V?$allocator@U?$pair@QAVCItem@@K@std@@@std@@$00@std@@@std@@@2@XZ 00489460 f i Game.obj
 0001:00088480       ?erase@?$_Tree@V?$_Tmap_traits@PAVCItem@@KUItemMapComp@@V?$allocator@U?$pair@QAVCItem@@K@std@@@std@@$00@std@@@std@@QAE?AV?$_Tree_iterator@V?$_Tree_val@V?$_Tmap_traits@PAVCItem@@KUItemMapComp@@V?$allocator@U?$pair@QAVCItem@@K@std@@@std@@$00@std@@@std@@@2@V?$_Tree_const_iterator@V?$_Tree_val@V?$_Tmap_traits@PAVCItem@@KUItemMapComp@@V?$allocator@U?$pair@QAVCItem@@K@std@@@std@@$00@std@@@std@@@2@@Z 00489480 f i Game.obj
 0001:00088760       ??1?$vector@PAVCMsg@@V?$allocator@PAVCMsg@@@std@@@std@@QAE@XZ 00489760 f i Game.obj
 0001:000887a0       ?erase@?$vector@PAVCMsg@@V?$allocator@PAVCMsg@@@std@@@std@@QAE?AV?$_Vector_iterator@V?$_Vector_val@PAVCMsg@@V?$allocator@PAVCMsg@@@std@@@std@@@2@V?$_Vector_const_iterator@V?$_Vector_val@PAVCMsg@@V?$allocator@PAVCMsg@@@std@@@std@@@2@0@Z 004897a0 f i Game.obj
 0001:00088800       ?clear@?$vector@PAVCMsg@@V?$allocator@PAVCMsg@@@std@@@std@@QAEXXZ 00489800 f i Game.obj
 0001:00088840       ??1?$vector@PAUpartyMember@CGame@@V?$allocator@PAUpartyMember@CGame@@@std@@@std@@QAE@XZ 00489840 f i Game.obj
 0001:00088880       ?erase@?$vector@PAUpartyMember@CGame@@V?$allocator@PAUpartyMember@CGame@@@std@@@std@@QAE?AV?$_Vector_iterator@V?$_Vector_val@PAUpartyMember@CGame@@V?$allocator@PAUpartyMember@CGame@@@std@@@std@@@2@V?$_Vector_const_iterator@V?$_Vector_val@PAUpartyMember@CGame@@V?$allocator@PAUpartyMember@CGame@@@std@@@std@@@2@@Z 00489880 f i Game.obj
 0001:000888d0       ??1?$vector@PAUguildMember@CGame@@V?$allocator@PAUguildMember@CGame@@@std@@@std@@QAE@XZ 004898d0 f i Game.obj
 0001:00088910       ?erase@?$vector@PAUguildMember@CGame@@V?$allocator@PAUguildMember@CGame@@@std@@@std@@QAE?AV?$_Vector_iterator@V?$_Vector_val@PAUguildMember@CGame@@V?$allocator@PAUguildMember@CGame@@@std@@@std@@@2@V?$_Vector_const_iterator@V?$_Vector_val@PAUguildMember@CGame@@V?$allocator@PAUguildMember@CGame@@@std@@@std@@@2@@Z 00489910 f i Game.obj
 0001:00088960       ??C?$_List_iterator@V?$_List_val@U?$pair@$$CBEPBD@std@@V?$allocator@U?$pair@$$CBEPBD@std@@@2@@std@@@std@@QBEPAU?$pair@$$CBEPBD@1@XZ 00489960 f i Game.obj
 0001:00088970       ??_G?$basic_stringstream@DU?$char_traits@D@std@@V?$allocator@D@2@@std@@UAEPAXI@Z 00489970 f i Game.obj
 0001:00088970       ??_E?$basic_stringstream@DU?$char_traits@D@std@@V?$allocator@D@2@@std@@UAEPAXI@Z 00489970 f i Game.obj
 0001:000889c0       ??0?$_Tree@V?$_Tmap_traits@PAVCItem@@KUItemMapComp@@V?$allocator@U?$pair@QAVCItem@@K@std@@@std@@$00@std@@@std@@QAE@ABUItemMapComp@@ABV?$allocator@U?$pair@QAVCItem@@K@std@@@1@@Z 004899c0 f i Game.obj
 0001:00088a50       ?_Erase@?$_Tree@V?$_Tmap_traits@PAVCItem@@KUItemMapComp@@V?$allocator@U?$pair@QAVCItem@@K@std@@@std@@$00@std@@@std@@IAEXPAU_Node@?$_Tree_nod@V?$_Tmap_traits@PAVCItem@@KUItemMapComp@@V?$allocator@U?$pair@QAVCItem@@K@std@@@std@@$00@std@@@2@@Z 00489a50 f i Game.obj
 0001:00088aa0       ?erase@?$vector@PAUpartyMember@CGame@@V?$allocator@PAUpartyMember@CGame@@@std@@@std@@QAE?AV?$_Vector_iterator@V?$_Vector_val@PAUpartyMember@CGame@@V?$allocator@PAUpartyMember@CGame@@@std@@@std@@@2@V?$_Vector_const_iterator@V?$_Vector_val@PAUpartyMember@CGame@@V?$allocator@PAUpartyMember@CGame@@@std@@@std@@@2@0@Z 00489aa0 f i Game.obj
 0001:00088b00       ??0?$_Tree@V?$_Tset_traits@V?$basic_string@DU?$char_traits@D@std@@V?$allocator@D@2@@std@@U?$less@V?$basic_string@DU?$char_traits@D@std@@V?$allocator@D@2@@std@@@2@V?$allocator@V?$basic_string@DU?$char_traits@D@std@@V?$allocator@D@2@@std@@@2@$0A@@std@@@std@@QAE@ABU?$less@V?$basic_string@DU?$char_traits@D@std@@V?$allocator@D@2@@std@@@1@ABV?$allocator@V?$basic_string@DU?$char_traits@D@std@@V?$allocator@D@2@@std@@@1@@Z 00489b00 f i Game.obj
 0001:00088b90       ??R?$less@V?$basic_string@DU?$char_traits@D@std@@V?$allocator@D@2@@std@@@std@@QBE_NABV?$basic_string@DU?$char_traits@D@std@@V?$allocator@D@2@@1@0@Z 00489b90 f i Game.obj
 0001:00088bd0       ?end@?$list@U?$pair@$$CBEPBD@std@@V?$allocator@U?$pair@$$CBEPBD@std@@@2@@std@@QAE?AV?$_List_iterator@V?$_List_val@U?$pair@$$CBEPBD@std@@V?$allocator@U?$pair@$$CBEPBD@std@@@2@@std@@@2@XZ 00489bd0 f i Game.obj
 0001:00088bf0       ?erase@?$vector@HV?$allocator@H@std@@@std@@QAE?AV?$_Vector_iterator@V?$_Vector_val@HV?$allocator@H@std@@@std@@@2@V?$_Vector_const_iterator@V?$_Vector_val@HV?$allocator@H@std@@@std@@@2@0@Z 00489bf0 f i Game.obj
 0001:00088c50       ?_Tidy@?$vector@HV?$allocator@H@std@@@std@@IAEXXZ 00489c50 f i Game.obj
 0001:00088c90       ??Y?$reverse_iterator@V?$_Vector_iterator@V?$_Vector_val@PAVCMsg@@V?$allocator@PAVCMsg@@@std@@@std@@@std@@@std@@QAEAAV01@H@Z 00489c90 f i Game.obj
 0001:00088cb0       ??0sentry@?$basic_ostream@DU?$char_traits@D@std@@@std@@QAE@AAV12@@Z 00489cb0 f i Game.obj
 0001:00088d60       ?append@?$basic_string@DU?$char_traits@D@std@@V?$allocator@D@2@@std@@QAEAAV12@ABV12@II@Z 00489d60 f i Game.obj
 0001:00088e90       ?_Osfx@?$basic_ostream@DU?$char_traits@D@std@@@std@@QAEXXZ 00489e90 f i Game.obj
 0001:00088f00       ?reserve@?$vector@PAVCMsg@@V?$allocator@PAVCMsg@@@std@@@std@@QAEXI@Z 00489f00 f i Game.obj
 0001:00088fa0       ?reserve@?$vector@PAUpartyMember@CGame@@V?$allocator@PAUpartyMember@CGame@@@std@@@std@@QAEXI@Z 00489fa0 f i Game.obj
 0001:00089040       ?reserve@?$vector@PAUguildMember@CGame@@V?$allocator@PAUguildMember@CGame@@@std@@@std@@QAEXI@Z 0048a040 f i Game.obj
 0001:000890e0       ?_Eqrange@?$_Tree@V?$_Tset_traits@V?$basic_string@DU?$char_traits@D@std@@V?$allocator@D@2@@std@@U?$less@V?$basic_string@DU?$char_traits@D@std@@V?$allocator@D@2@@std@@@2@V?$allocator@V?$basic_string@DU?$char_traits@D@std@@V?$allocator@D@2@@std@@@2@$0A@@std@@@std@@IAE?AU?$pair@V?$_Tree_const_iterator@V?$_Tree_val@V?$_Tset_traits@V?$basic_string@DU?$char_traits@D@std@@V?$allocator@D@2@@std@@U?$less@V?$basic_string@DU?$char_traits@D@std@@V?$allocator@D@2@@std@@@2@V?$allocator@V?$basic_string@DU?$char_traits@D@std@@V?$allocator@D@2@@std@@@2@$0A@@std@@@std@@@std@@V12@@2@ABV?$basic_string@DU?$char_traits@D@std@@V?$allocator@D@2@@2@@Z 0048a0e0 f i Game.obj
 0001:00089300       ?_Lbound@?$_Tree@V?$_Tset_traits@V?$basic_string@DU?$char_traits@D@std@@V?$allocator@D@2@@std@@U?$less@V?$basic_string@DU?$char_traits@D@std@@V?$allocator@D@2@@std@@@2@V?$allocator@V?$basic_string@DU?$char_traits@D@std@@V?$allocator@D@2@@std@@@2@$0A@@std@@@std@@IAEPAU_Node@?$_Tree_nod@V?$_Tset_traits@V?$basic_string@DU?$char_traits@D@std@@V?$allocator@D@2@@std@@U?$less@V?$basic_string@DU?$char_traits@D@std@@V?$allocator@D@2@@std@@@2@V?$allocator@V?$basic_string@DU?$char_traits@D@std@@V?$allocator@D@2@@std@@@2@$0A@@std@@@2@ABV?$basic_string@DU?$char_traits@D@std@@V?$allocator@D@2@@2@@Z 0048a300 f i Game.obj
 0001:000893b0       ??0?$list@U?$pair@$$CBEPBD@std@@V?$allocator@U?$pair@$$CBEPBD@std@@@2@@std@@QAE@ABV?$allocator@U?$pair@$$CBEPBD@std@@@1@@Z 0048a3b0 f i Game.obj
 0001:00089420       ?assign@?$basic_string@DU?$char_traits@D@std@@V?$allocator@D@2@@std@@QAEAAV12@ABV12@@Z 0048a420 f i Game.obj
 0001:00089440       ?clear@?$list@U?$pair@$$CBEPBD@std@@V?$allocator@U?$pair@$$CBEPBD@std@@@2@@std@@QAEXXZ 0048a440 f i Game.obj
 0001:00089490       ?widen@?$basic_ios@DU?$char_traits@D@std@@@std@@QBEDD@Z 0048a490 f i Game.obj
 0001:00089570       ??$transform@V?$_String_iterator@DU?$char_traits@D@std@@V?$allocator@D@2@@std@@V12@P6AHH@Z@std@@YA?AV?$_String_iterator@DU?$char_traits@D@std@@V?$allocator@D@2@@0@V10@00P6AHH@Z@Z 0048a570 f i Game.obj
 0001:000895b0       ??$remove_if@V?$_Vector_iterator@V?$_Vector_val@PAVCMsg@@V?$allocator@PAVCMsg@@@std@@@std@@@std@@P6A_NPBVCMsg@@@Z@std@@YA?AV?$_Vector_iterator@V?$_Vector_val@PAVCMsg@@V?$allocator@PAVCMsg@@@std@@@std@@@0@V10@0P6A_NPBVCMsg@@@Z@Z 0048a5b0 f i Game.obj
 0001:00089640       ??$_Distance@V?$_Tree_const_iterator@V?$_Tree_val@V?$_Tset_traits@V?$basic_string@DU?$char_traits@D@std@@V?$allocator@D@2@@std@@U?$less@V?$basic_string@DU?$char_traits@D@std@@V?$allocator@D@2@@std@@@2@V?$allocator@V?$basic_string@DU?$char_traits@D@std@@V?$allocator@D@2@@std@@@2@$0A@@std@@@std@@@std@@I@std@@YAXV?$_Tree_const_iterator@V?$_Tree_val@V?$_Tset_traits@V?$basic_string@DU?$char_traits@D@std@@V?$allocator@D@2@@std@@U?$less@V?$basic_string@DU?$char_traits@D@std@@V?$allocator@D@2@@std@@@2@V?$allocator@V?$basic_string@DU?$char_traits@D@std@@V?$allocator@D@2@@std@@@2@$0A@@std@@@std@@@0@0AAI@Z 0048a640 f i Game.obj
 0001:00089670       ?begin@?$_Hash@V?$_Umap_traits@EPBDV?$_Hash_compare@EV?$hash@E@std@@U?$equal_to@E@2@@std@@V?$allocator@U?$pair@$$CBEPBD@std@@@2@$0A@@tr1@std@@@std@@QAE?AV?$_List_iterator@V?$_List_val@U?$pair@$$CBEPBD@std@@V?$allocator@U?$pair@$$CBEPBD@std@@@2@@std@@@2@XZ 0048a670 f i Game.obj
 0001:00089690       ?front@?$list@U?$pair@$$CBEPBD@std@@V?$allocator@U?$pair@$$CBEPBD@std@@@2@@std@@QAEAAU?$pair@$$CBEPBD@2@XZ 0048a690 f i Game.obj
 0001:000896a0       ??0?$_Bind1@U?$_Callable_obj@V?$mem_fun_t@XVCGame@@@std@@$0A@@tr1@std@@PAVCGame@@@tr1@std@@QAE@V?$mem_fun_t@XVCGame@@@2@PAVCGame@@@Z 0048a6a0 f i Game.obj
 0001:000896c0       ?erase@?$list@U?$pair@$$CBEPBD@std@@V?$allocator@U?$pair@$$CBEPBD@std@@@2@@std@@QAE?AV?$_List_iterator@V?$_List_val@U?$pair@$$CBEPBD@std@@V?$allocator@U?$pair@$$CBEPBD@std@@@2@@std@@@2@V?$_List_const_iterator@V?$_List_val@U?$pair@$$CBEPBD@std@@V?$allocator@U?$pair@$$CBEPBD@std@@@2@@std@@@2@@Z 0048a6c0 f i Game.obj
 0001:00089710       ?_Splice_same@?$list@U?$pair@$$CBEPBD@std@@V?$allocator@U?$pair@$$CBEPBD@std@@@2@@std@@QAEXV?$_List_const_iterator@V?$_List_val@U?$pair@$$CBEPBD@std@@V?$allocator@U?$pair@$$CBEPBD@std@@@2@@std@@@2@AAV12@00I@Z 0048a710 f i Game.obj
 0001:000897b0       ??$_Merge@PAPAVCMsg@@PAPAV1@V?$_Vector_iterator@V?$_Vector_val@PAVCMsg@@V?$allocator@PAVCMsg@@@std@@@std@@@std@@P6A_NPBV1@0@Z@std@@YA?AV?$_Vector_iterator@V?$_Vector_val@PAVCMsg@@V?$allocator@PAVCMsg@@@std@@@std@@@0@PAPAVCMsg@@000V10@P6A_NPBV2@2@Z@Z 0048a7b0 f i Game.obj
 0001:00089850       ??$_Destroy_range@V?$allocator@V?$_List_iterator@V?$_List_val@U?$pair@$$CBEPBD@std@@V?$allocator@U?$pair@$$CBEPBD@std@@@2@@std@@@std@@@std@@@std@@YAXPAV?$_List_iterator@V?$_List_val@U?$pair@$$CBEPBD@std@@V?$allocator@U?$pair@$$CBEPBD@std@@@2@@std@@@0@0AAV?$allocator@V?$_List_iterator@V?$_List_val@U?$pair@$$CBEPBD@std@@V?$allocator@U?$pair@$$CBEPBD@std@@@2@@std@@@std@@@0@U_Nonscalar_ptr_iterator_tag@0@@Z 0048a850 f i Game.obj
 0001:00089860       ??$_Uninit_fill_n@PAV?$_List_iterator@V?$_List_val@U?$pair@$$CBEPBD@std@@V?$allocator@U?$pair@$$CBEPBD@std@@@2@@std@@@std@@IV12@V?$allocator@V?$_List_iterator@V?$_List_val@U?$pair@$$CBEPBD@std@@V?$allocator@U?$pair@$$CBEPBD@std@@@2@@std@@@std@@@2@V12@@std@@YAXPAV?$_List_iterator@V?$_List_val@U?$pair@$$CBEPBD@std@@V?$allocator@U?$pair@$$CBEPBD@std@@@2@@std@@@0@IPBV10@AAV?$allocator@V?$_List_iterator@V?$_List_val@U?$pair@$$CBEPBD@std@@V?$allocator@U?$pair@$$CBEPBD@std@@@2@@std@@@std@@@0@0U_Nonscalar_ptr_iterator_tag@0@@Z 0048a860 f i Game.obj
 0001:00089890       ??$_Destroy@V?$basic_string@DU?$char_traits@D@std@@V?$allocator@D@2@@std@@@std@@YAXPAV?$basic_string@DU?$char_traits@D@std@@V?$allocator@D@2@@0@@Z 0048a890 f i Game.obj
 0001:000898d0       ?_Linsert@?$_Tree@V?$_Tmap_traits@PAVCItem@@KUItemMapComp@@V?$allocator@U?$pair@QAVCItem@@K@std@@@std@@$00@std@@@std@@QAE?AU?$pair@V?$_Tree_iterator@V?$_Tree_val@V?$_Tmap_traits@PAVCItem@@KUItemMapComp@@V?$allocator@U?$pair@QAVCItem@@K@std@@@std@@$00@std@@@std@@@std@@_N@2@PAU_Node@?$_Tree_nod@V?$_Tmap_traits@PAVCItem@@KUItemMapComp@@V?$allocator@U?$pair@QAVCItem@@K@std@@@std@@$00@std@@@2@_N@Z 0048a8d0 f i Game.obj
 0001:000899e0       ??$_Reset0o@V?$_Impl_no_alloc0@U?$_Callable_obj@V?$_Bind_fty@V?$mem_fun_t@XVCGame@@@std@@U_Notforced@tr1@2@V?$_Bind1@U?$_Callable_obj@V?$mem_fun_t@XVCGame@@@std@@$0A@@tr1@std@@PAVCGame@@@42@@tr1@std@@$0A@@tr1@std@@X@tr1@std@@V?$_Bind_fty@V?$mem_fun_t@XVCGame@@@std@@U_Notforced@tr1@2@V?$_Bind1@U?$_Callable_obj@V?$mem_fun_t@XVCGame@@@std@@$0A@@tr1@std@@PAVCGame@@@42@@23@V?$allocator@V?$_Function_impl0@X@tr1@std@@@3@@?$_Function_impl0@X@tr1@std@@IAEXV?$_Bind_fty@V?$mem_fun_t@XVCGame@@@std@@U_Notforced@tr1@2@V?$_Bind1@U?$_Callable_obj@V?$mem_fun_t@XVCGame@@@std@@$0A@@tr1@std@@PAVCGame@@@42@@12@V?$allocator@V?$_Function_impl0@X@tr1@std@@@2@@Z 0048a9e0 f i Game.obj
 0001:00089a10       ??$_Uninit_move@PAV?$_List_iterator@V?$_List_val@U?$pair@$$CBEPBD@std@@V?$allocator@U?$pair@$$CBEPBD@std@@@2@@std@@@std@@PAV12@V?$allocator@V?$_List_iterator@V?$_List_val@U?$pair@$$CBEPBD@std@@V?$allocator@U?$pair@$$CBEPBD@std@@@2@@std@@@std@@@2@V12@@std@@YAPAV?$_List_iterator@V?$_List_val@U?$pair@$$CBEPBD@std@@V?$allocator@U?$pair@$$CBEPBD@std@@@2@@std@@@0@PAV10@00AAV?$allocator@V?$_List_iterator@V?$_List_val@U?$pair@$$CBEPBD@std@@V?$allocator@U?$pair@$$CBEPBD@std@@@2@@std@@@std@@@0@0U_Nonscalar_ptr_iterator_tag@0@@Z 0048aa10 f i Game.obj
 0001:00089a40       ?_Delete_this@?$_Impl_no_alloc0@U?$_Callable_obj@V?$_Bind_fty@V?$mem_fun_t@XVCGame@@@std@@U_Notforced@tr1@2@V?$_Bind1@U?$_Callable_obj@V?$mem_fun_t@XVCGame@@@std@@$0A@@tr1@std@@PAVCGame@@@42@@tr1@std@@$0A@@tr1@std@@X@tr1@std@@EAEX_N@Z 0048aa40 f i Game.obj
 0001:00089a70       ??$_Cons_val@V?$allocator@U?$pair@QAVCItem@@K@std@@@std@@U?$pair@QAVCItem@@K@2@U?$pair@PAVCItem@@K@2@@std@@YAXAAV?$allocator@U?$pair@QAVCItem@@K@std@@@0@PAU?$pair@QAVCItem@@K@0@$$QAU?$pair@PAVCItem@@K@0@@Z 0048aa70 f i Game.obj
 0001:00089a90       ??R?$_Bind_base@U_Notforced@tr1@std@@V?$_Bind1@U?$_Callable_obj@V?$mem_fun_t@XVCGame@@@std@@$0A@@tr1@std@@PAVCGame@@@23@@tr1@std@@QAEXXZ 0048aa90 f i Game.obj
 0001:00089aa0       ?construct@?$allocator@U?$pair@$$CBEPBD@std@@@std@@QAEXPAU?$pair@$$CBEPBD@2@$$QAU32@@Z 0048aaa0 f i Game.obj
 0001:00089ad0       ??_G?$vector@PAVCMsg@@V?$allocator@PAVCMsg@@@std@@@std@@QAEPAXI@Z 0048aad0 f i Game.obj
 0001:00089b20       ??_GpartyMember@CGame@@QAEPAXI@Z 0048ab20 f i Game.obj
 0001:00089b70       ??_GguildMember@CGame@@QAEPAXI@Z 0048ab70 f i Game.obj
 0001:00089bc0       ?ClearPartyMembers@CGame@@QAEXXZ 0048abc0 f   Game.obj
 0001:00089c60       ?ClearGuildMembers@CGame@@QAEXXZ 0048ac60 f   Game.obj
 0001:00089d00       ?clear@?$_Tree@V?$_Tmap_traits@PAVCItem@@KUItemMapComp@@V?$allocator@U?$pair@QAVCItem@@K@std@@@std@@$00@std@@@std@@QAEXXZ 0048ad00 f i Game.obj
 0001:00089d60       ?clear@?$vector@PAUpartyMember@CGame@@V?$allocator@PAUpartyMember@CGame@@@std@@@std@@QAEXXZ 0048ad60 f i Game.obj
 0001:00089da0       ?end@?$_Hash@V?$_Umap_traits@EPBDV?$_Hash_compare@EV?$hash@E@std@@U?$equal_to@E@2@@std@@V?$allocator@U?$pair@$$CBEPBD@std@@@2@$0A@@tr1@std@@@std@@QAE?AV?$_List_iterator@V?$_List_val@U?$pair@$$CBEPBD@std@@V?$allocator@U?$pair@$$CBEPBD@std@@@2@@std@@@2@XZ 0048ada0 f i Game.obj
 0001:00089dc0       ??1?$vector@HV?$allocator@H@std@@@std@@QAE@XZ 0048adc0 f i Game.obj
 0001:00089e00       ?clear@?$vector@HV?$allocator@H@std@@@std@@QAEXXZ 0048ae00 f i Game.obj
 0001:00089e40       ??H?$reverse_iterator@V?$_Vector_iterator@V?$_Vector_val@PAVCMsg@@V?$allocator@PAVCMsg@@@std@@@std@@@std@@@std@@QBE?AV01@H@Z 0048ae40 f i Game.obj
 0001:00089e60       ??0?$basic_string@DU?$char_traits@D@std@@V?$allocator@D@2@@std@@QAE@ABV01@IIABV?$allocator@D@1@@Z 0048ae60 f i Game.obj
 0001:00089ea0       ?append@?$basic_string@DU?$char_traits@D@std@@V?$allocator@D@2@@std@@QAEAAV12@PBDI@Z 0048aea0 f i Game.obj
 0001:0008a010       ?_Reserve@?$vector@PAVCMsg@@V?$allocator@PAVCMsg@@@std@@@std@@IAEXI@Z 0048b010 f i Game.obj
 0001:0008a090       ?_Reserve@?$vector@PAUpartyMember@CGame@@V?$allocator@PAUpartyMember@CGame@@@std@@@std@@IAEXI@Z 0048b090 f i Game.obj
 0001:0008a110       ?_Reserve@?$vector@PAUguildMember@CGame@@V?$allocator@PAUguildMember@CGame@@@std@@@std@@IAEXI@Z 0048b110 f i Game.obj
 0001:0008a190       ?lower_bound@?$_Tree@V?$_Tset_traits@V?$basic_string@DU?$char_traits@D@std@@V?$allocator@D@2@@std@@U?$less@V?$basic_string@DU?$char_traits@D@std@@V?$allocator@D@2@@std@@@2@V?$allocator@V?$basic_string@DU?$char_traits@D@std@@V?$allocator@D@2@@std@@@2@$0A@@std@@@std@@QAE?AV?$_Tree_const_iterator@V?$_Tree_val@V?$_Tset_traits@V?$basic_string@DU?$char_traits@D@std@@V?$allocator@D@2@@std@@U?$less@V?$basic_string@DU?$char_traits@D@std@@V?$allocator@D@2@@std@@@2@V?$allocator@V?$basic_string@DU?$char_traits@D@std@@V?$allocator@D@2@@std@@@2@$0A@@std@@@std@@@2@ABV?$basic_string@DU?$char_traits@D@std@@V?$allocator@D@2@@2@@Z 0048b190 f i Game.obj
 0001:0008a1b0       ?equal_range@?$_Tree@V?$_Tset_traits@V?$basic_string@DU?$char_traits@D@std@@V?$allocator@D@2@@std@@U?$less@V?$basic_string@DU?$char_traits@D@std@@V?$allocator@D@2@@std@@@2@V?$allocator@V?$basic_string@DU?$char_traits@D@std@@V?$allocator@D@2@@std@@@2@$0A@@std@@@std@@QAE?AU?$pair@V?$_Tree_const_iterator@V?$_Tree_val@V?$_Tset_traits@V?$basic_string@DU?$char_traits@D@std@@V?$allocator@D@2@@std@@U?$less@V?$basic_string@DU?$char_traits@D@std@@V?$allocator@D@2@@std@@@2@V?$allocator@V?$basic_string@DU?$char_traits@D@std@@V?$allocator@D@2@@std@@@2@$0A@@std@@@std@@@std@@V12@@2@ABV?$basic_string@DU?$char_traits@D@std@@V?$allocator@D@2@@2@@Z 0048b1b0 f i Game.obj
 0001:0008a1d0       ??1sentry@?$basic_ostream@DU?$char_traits@D@std@@@std@@QAE@XZ 0048b1d0 f i Game.obj
 0001:0008a260       ??0?$basic_string@DU?$char_traits@D@std@@V?$allocator@D@2@@std@@QAE@PBDI@Z 0048b260 f i Game.obj
 0001:0008a2a0       ??4?$basic_string@DU?$char_traits@D@std@@V?$allocator@D@2@@std@@QAEAAV01@ABV01@@Z 0048b2a0 f i Game.obj
 0001:0008a2c0       ?erase@?$_Tree@V?$_Tmap_traits@PAVCItem@@KUItemMapComp@@V?$allocator@U?$pair@QAVCItem@@K@std@@@std@@$00@std@@@std@@QAE?AV?$_Tree_iterator@V?$_Tree_val@V?$_Tmap_traits@PAVCItem@@KUItemMapComp@@V?$allocator@U?$pair@QAVCItem@@K@std@@@std@@$00@std@@@std@@@2@V?$_Tree_const_iterator@V?$_Tree_val@V?$_Tmap_traits@PAVCItem@@KUItemMapComp@@V?$allocator@U?$pair@QAVCItem@@K@std@@@std@@$00@std@@@std@@@2@0@Z 0048b2c0 f i Game.obj
 0001:0008a390       ?_End@?$_Hash@V?$_Umap_traits@EPBDV?$_Hash_compare@EV?$hash@E@std@@U?$equal_to@E@2@@std@@V?$allocator@U?$pair@$$CBEPBD@std@@@2@$0A@@tr1@std@@@std@@IAE?AV?$_List_iterator@V?$_List_val@U?$pair@$$CBEPBD@std@@V?$allocator@U?$pair@$$CBEPBD@std@@@2@@std@@@2@I@Z 0048b390 f i Game.obj
 0001:0008a3c0       ?_Tidy@?$list@U?$pair@$$CBEPBD@std@@V?$allocator@U?$pair@$$CBEPBD@std@@@2@@std@@QAEXXZ 0048b3c0 f i Game.obj
 0001:0008a410       ?init@?$basic_ios@DU?$char_traits@D@std@@@std@@IAEXPAV?$basic_streambuf@DU?$char_traits@D@std@@@2@_N@Z 0048b410 f i Game.obj
 0001:0008a480       ??$bind@V?$mem_fun_t@XVCGame@@@std@@PAVCGame@@@tr1@std@@YA?AV?$_Bind_fty@V?$mem_fun_t@XVCGame@@@std@@U_Notforced@tr1@2@V?$_Bind1@U?$_Callable_obj@V?$mem_fun_t@XVCGame@@@std@@$0A@@tr1@std@@PAVCGame@@@42@@01@V?$mem_fun_t@XVCGame@@@1@PAVCGame@@@Z 0048b480 f i Game.obj
 0001:0008a4a0       ??$merge@V?$_Vector_iterator@V?$_Vector_val@PAVCMsg@@V?$allocator@PAVCMsg@@@std@@@std@@@std@@V12@V12@P6A_NPBVCMsg@@0@Z@std@@YA?AV?$_Vector_iterator@V?$_Vector_val@PAVCMsg@@V?$allocator@PAVCMsg@@@std@@@std@@@0@V10@0000P6A_NPBVCMsg@@1@Z@Z 0048b4a0 f i Game.obj
 0001:0008a4e0       ??$?6U?$char_traits@D@std@@@std@@YAAAV?$basic_ostream@DU?$char_traits@D@std@@@0@AAV10@PBD@Z 0048b4e0 f i Game.obj
 0001:0008a850       ??$?6U?$char_traits@D@std@@@std@@YAAAV?$basic_ostream@DU?$char_traits@D@std@@@0@AAV10@D@Z 0048b850 f i Game.obj
 0001:0008aba0       ??$_Destroy_range@V?$allocator@V?$_List_iterator@V?$_List_val@U?$pair@$$CBEPBD@std@@V?$allocator@U?$pair@$$CBEPBD@std@@@2@@std@@@std@@@std@@@std@@YAXPAV?$_List_iterator@V?$_List_val@U?$pair@$$CBEPBD@std@@V?$allocator@U?$pair@$$CBEPBD@std@@@2@@std@@@0@0AAV?$allocator@V?$_List_iterator@V?$_List_val@U?$pair@$$CBEPBD@std@@V?$allocator@U?$pair@$$CBEPBD@std@@@2@@std@@@std@@@0@@Z 0048bba0 f i Game.obj
 0001:0008abb0       ??$_Uninitialized_fill_n@PAV?$_List_iterator@V?$_List_val@U?$pair@$$CBEPBD@std@@V?$allocator@U?$pair@$$CBEPBD@std@@@2@@std@@@std@@IV12@V?$allocator@V?$_List_iterator@V?$_List_val@U?$pair@$$CBEPBD@std@@V?$allocator@U?$pair@$$CBEPBD@std@@@2@@std@@@std@@@2@@std@@YAXPAV?$_List_iterator@V?$_List_val@U?$pair@$$CBEPBD@std@@V?$allocator@U?$pair@$$CBEPBD@std@@@2@@std@@@0@IPBV10@AAV?$allocator@V?$_List_iterator@V?$_List_val@U?$pair@$$CBEPBD@std@@V?$allocator@U?$pair@$$CBEPBD@std@@@2@@std@@@std@@@0@@Z 0048bbb0 f i Game.obj
 0001:0008abe0       ?destroy@?$allocator@V?$basic_string@DU?$char_traits@D@std@@V?$allocator@D@2@@std@@@std@@QAEXPAV?$basic_string@DU?$char_traits@D@std@@V?$allocator@D@2@@2@@Z 0048bbe0 f i Game.obj
 0001:0008ac20       ?_Insert_bucket@?$_Hash@V?$_Umap_traits@EPBDV?$_Hash_compare@EV?$hash@E@std@@U?$equal_to@E@2@@std@@V?$allocator@U?$pair@$$CBEPBD@std@@@2@$0A@@tr1@std@@@std@@IAEXV?$_List_iterator@V?$_List_val@U?$pair@$$CBEPBD@std@@V?$allocator@U?$pair@$$CBEPBD@std@@@2@@std@@@2@0I@Z 0048bc20 f i Game.obj
 0001:0008ac90       ??$_Reset@V?$_Bind_fty@V?$mem_fun_t@XVCGame@@@std@@U_Notforced@tr1@2@V?$_Bind1@U?$_Callable_obj@V?$mem_fun_t@XVCGame@@@std@@$0A@@tr1@std@@PAVCGame@@@42@@tr1@std@@@?$_Function_impl0@X@tr1@std@@IAEXV?$_Bind_fty@V?$mem_fun_t@XVCGame@@@std@@U_Notforced@tr1@2@V?$_Bind1@U?$_Callable_obj@V?$mem_fun_t@XVCGame@@@std@@$0A@@tr1@std@@PAVCGame@@@42@@12@@Z 0048bc90 f i Game.obj
 0001:0008acc0       ??$construct@AAV?$basic_string@DU?$char_traits@D@std@@V?$allocator@D@2@@std@@@?$allocator@V?$basic_string@DU?$char_traits@D@std@@V?$allocator@D@2@@std@@@std@@QAEXPAV?$basic_string@DU?$char_traits@D@std@@V?$allocator@D@2@@1@AAV21@@Z 0048bcc0 f i Game.obj
 0001:0008ad40       ??$_Uninitialized_move@PAV?$_List_iterator@V?$_List_val@U?$pair@$$CBEPBD@std@@V?$allocator@U?$pair@$$CBEPBD@std@@@2@@std@@@std@@PAV12@V?$allocator@V?$_List_iterator@V?$_List_val@U?$pair@$$CBEPBD@std@@V?$allocator@U?$pair@$$CBEPBD@std@@@2@@std@@@std@@@2@@std@@YAPAV?$_List_iterator@V?$_List_val@U?$pair@$$CBEPBD@std@@V?$allocator@U?$pair@$$CBEPBD@std@@@2@@std@@@0@PAV10@00AAV?$allocator@V?$_List_iterator@V?$_List_val@U?$pair@$$CBEPBD@std@@V?$allocator@U?$pair@$$CBEPBD@std@@@2@@std@@@std@@@0@@Z 0048bd40 f i Game.obj
 0001:0008ad70       ??$_Construct@V?$basic_string@DU?$char_traits@D@std@@V?$allocator@D@2@@std@@ABV12@@std@@YAXPAV?$basic_string@DU?$char_traits@D@std@@V?$allocator@D@2@@0@ABV10@@Z 0048bd70 f i Game.obj
 0001:0008adf0       ??$_Buynode@U?$pair@PAVCItem@@K@std@@@?$_Tree_val@V?$_Tmap_traits@PAVCItem@@KUItemMapComp@@V?$allocator@U?$pair@QAVCItem@@K@std@@@std@@$00@std@@@std@@QAEPAU_Node@?$_Tree_nod@V?$_Tmap_traits@PAVCItem@@KUItemMapComp@@V?$allocator@U?$pair@QAVCItem@@K@std@@@std@@$00@std@@@1@$$QAU?$pair@PAVCItem@@K@1@@Z 0048bdf0 f i Game.obj
 0001:0008ae80       ??$_ApplyX@X@?$_Callable_obj@V?$_Bind_fty@V?$mem_fun_t@XVCGame@@@std@@U_Notforced@tr1@2@V?$_Bind1@U?$_Callable_obj@V?$mem_fun_t@XVCGame@@@std@@$0A@@tr1@std@@PAVCGame@@@42@@tr1@std@@$0A@@tr1@std@@QAEXXZ 0048be80 f i Game.obj
 0001:0008ae90       ??$_Cons_val@V?$allocator@U?$pair@$$CBEPBD@std@@@std@@U?$pair@$$CBEPBD@2@U32@@std@@YAXAAV?$allocator@U?$pair@$$CBEPBD@std@@@0@PAU?$pair@$$CBEPBD@0@$$QAU20@@Z 0048be90 f i Game.obj
 0001:0008aeb0       ?Quit@CGame@@QAEXXZ        0048beb0 f   Game.obj
 0001:0008b3a0       ?MakeSprite@CGame@@QAEXPADFF_N@Z 0048c3a0 f   Game.obj
 0001:0008b550       ?MakeLegionSprite@CGame@@QAEXPADFF_N@Z 0048c550 f   Game.obj
 0001:0008b700       ?MakeTileSpr@CGame@@QAEXPADFF_N@Z 0048c700 f   Game.obj
 0001:0008b8b0       ?MakeLegionTileSpr@CGame@@QAEXPADFF_N@Z 0048c8b0 f   Game.obj
 0001:0008ba60       ?MakeEffectSpr@CGame@@QAEXPADFF_N@Z 0048ca60 f   Game.obj
 0001:0008bc10       ?MakeEffectLegionSprite@CGame@@QAEXPADFF_N@Z 0048cc10 f   Game.obj
 0001:0008bdc0       ?DrawDialogBox_Chat@CGame@@QAEXXZ 0048cdc0 f   Game.obj
 0001:0008c680       ?DrawDialogBox_Guild@CGame@@QAEXXZ 0048d680 f   Game.obj
 0001:0008e5c0       ??4?$basic_string@DU?$char_traits@D@std@@V?$allocator@D@2@@std@@QAEAAV01@PBD@Z 0048f5c0 f i Game.obj
 0001:0008e5f0       ?append@?$basic_string@DU?$char_traits@D@std@@V?$allocator@D@2@@std@@QAEAAV12@PBD@Z 0048f5f0 f i Game.obj
 0001:0008e620       ?substr@?$basic_string@DU?$char_traits@D@std@@V?$allocator@D@2@@std@@QBE?AV12@II@Z 0048f620 f i Game.obj
 0001:0008e660       ?push_back@?$vector@PAVCMsg@@V?$allocator@PAVCMsg@@@std@@@std@@QAEXABQAVCMsg@@@Z 0048f660 f i Game.obj
 0001:0008e6e0       ?push_back@?$vector@PAUpartyMember@CGame@@V?$allocator@PAUpartyMember@CGame@@@std@@@std@@QAEX$$QAPAUpartyMember@CGame@@@Z 0048f6e0 f i Game.obj
 0001:0008e760       ?push_back@?$vector@PAUguildMember@CGame@@V?$allocator@PAUguildMember@CGame@@@std@@@std@@QAEX$$QAPAUguildMember@CGame@@@Z 0048f760 f i Game.obj
 0001:0008e7e0       ?find@?$_Tree@V?$_Tset_traits@V?$basic_string@DU?$char_traits@D@std@@V?$allocator@D@2@@std@@U?$less@V?$basic_string@DU?$char_traits@D@std@@V?$allocator@D@2@@std@@@2@V?$allocator@V?$basic_string@DU?$char_traits@D@std@@V?$allocator@D@2@@std@@@2@$0A@@std@@@std@@QAE?AV?$_Tree_const_iterator@V?$_Tree_val@V?$_Tset_traits@V?$basic_string@DU?$char_traits@D@std@@V?$allocator@D@2@@std@@U?$less@V?$basic_string@DU?$char_traits@D@std@@V?$allocator@D@2@@std@@@2@V?$allocator@V?$basic_string@DU?$char_traits@D@std@@V?$allocator@D@2@@std@@@2@$0A@@std@@@std@@@2@ABV?$basic_string@DU?$char_traits@D@std@@V?$allocator@D@2@@2@@Z 0048f7e0 f i Game.obj
 0001:0008e860       ?assign@?$basic_string@DU?$char_traits@D@std@@V?$allocator@D@2@@std@@QAEAAV12@$$QAV12@@Z 0048f860 f i Game.obj
 0001:0008e8f0       ?_Tidy@?$_Tree@V?$_Tmap_traits@PAVCItem@@KUItemMapComp@@V?$allocator@U?$pair@QAVCItem@@K@std@@@std@@$00@std@@@std@@IAEXXZ 0048f8f0 f i Game.obj
 0001:0008e910       ?resize@?$vector@PAVCMsg@@V?$allocator@PAVCMsg@@@std@@@std@@QAEXI@Z 0048f910 f i Game.obj
 0001:0008e9c0       ?lower_bound@?$_Hash@V?$_Umap_traits@EPBDV?$_Hash_compare@EV?$hash@E@std@@U?$equal_to@E@2@@std@@V?$allocator@U?$pair@$$CBEPBD@std@@@2@$0A@@tr1@std@@@std@@QAE?AV?$_List_iterator@V?$_List_val@U?$pair@$$CBEPBD@std@@V?$allocator@U?$pair@$$CBEPBD@std@@@2@@std@@@2@ABE@Z 0048f9c0 f i Game.obj
 0001:0008eab0       ??1?$list@U?$pair@$$CBEPBD@std@@V?$allocator@U?$pair@$$CBEPBD@std@@@2@@std@@QAE@XZ 0048fab0 f i Game.obj
 0001:0008eb00       ??0?$basic_istream@DU?$char_traits@D@std@@@std@@QAE@PAV?$basic_streambuf@DU?$char_traits@D@std@@@1@_N@Z 0048fb00 f i Game.obj
 0001:0008ebf0       ?_Destroy@?$vector@V?$_List_iterator@V?$_List_val@U?$pair@$$CBEPBD@std@@V?$allocator@U?$pair@$$CBEPBD@std@@@2@@std@@@std@@V?$allocator@V?$_List_iterator@V?$_List_val@U?$pair@$$CBEPBD@std@@V?$allocator@U?$pair@$$CBEPBD@std@@@2@@std@@@std@@@2@@std@@IAEXPAV?$_List_iterator@V?$_List_val@U?$pair@$$CBEPBD@std@@V?$allocator@U?$pair@$$CBEPBD@std@@@2@@std@@@2@0@Z 0048fbf0 f i Game.obj
 0001:0008ec00       ?erase@?$vector@V?$_List_iterator@V?$_List_val@U?$pair@$$CBEPBD@std@@V?$allocator@U?$pair@$$CBEPBD@std@@@2@@std@@@std@@V?$allocator@V?$_List_iterator@V?$_List_val@U?$pair@$$CBEPBD@std@@V?$allocator@U?$pair@$$CBEPBD@std@@@2@@std@@@std@@@2@@std@@QAE?AV?$_Vector_iterator@V?$_Vector_val@V?$_List_iterator@V?$_List_val@U?$pair@$$CBEPBD@std@@V?$allocator@U?$pair@$$CBEPBD@std@@@2@@std@@@std@@V?$allocator@V?$_List_iterator@V?$_List_val@U?$pair@$$CBEPBD@std@@V?$allocator@U?$pair@$$CBEPBD@std@@@2@@std@@@std@@@2@@std@@@2@V?$_Vector_const_iterator@V?$_Vector_val@V?$_List_iterator@V?$_List_val@U?$pair@$$CBEPBD@std@@V?$allocator@U?$pair@$$CBEPBD@std@@@2@@std@@@std@@V?$allocator@V?$_List_iterator@V?$_List_val@U?$pair@$$CBEPBD@std@@V?$allocator@U?$pair@$$CBEPBD@std@@@2@@std@@@std@@@2@@std@@@2@0@Z 0048fc00 f i Game.obj
 0001:0008ec50       ?_Ufill@?$vector@V?$_List_iterator@V?$_List_val@U?$pair@$$CBEPBD@std@@V?$allocator@U?$pair@$$CBEPBD@std@@@2@@std@@@std@@V?$allocator@V?$_List_iterator@V?$_List_val@U?$pair@$$CBEPBD@std@@V?$allocator@U?$pair@$$CBEPBD@std@@@2@@std@@@std@@@2@@std@@IAEPAV?$_List_iterator@V?$_List_val@U?$pair@$$CBEPBD@std@@V?$allocator@U?$pair@$$CBEPBD@std@@@2@@std@@@2@PAV32@IPBV32@@Z 0048fc50 f i Game.obj
 0001:0008ec90       ??$?0V?$_Bind_fty@V?$mem_fun_t@XVCGame@@@std@@U_Notforced@tr1@2@V?$_Bind1@U?$_Callable_obj@V?$mem_fun_t@XVCGame@@@std@@$0A@@tr1@std@@PAVCGame@@@42@@tr1@std@@@?$function@$$A6AXXZ@tr1@std@@QAE@V?$_Bind_fty@V?$mem_fun_t@XVCGame@@@std@@U_Notforced@tr1@2@V?$_Bind1@U?$_Callable_obj@V?$mem_fun_t@XVCGame@@@std@@$0A@@tr1@std@@PAVCGame@@@42@@12@@Z 0048fc90 f i Game.obj
 0001:0008ecc0       ??$_Cons_val@V?$allocator@V?$basic_string@DU?$char_traits@D@std@@V?$allocator@D@2@@std@@@std@@V?$basic_string@DU?$char_traits@D@std@@V?$allocator@D@2@@2@AAV32@@std@@YAXAAV?$allocator@V?$basic_string@DU?$char_traits@D@std@@V?$allocator@D@2@@std@@@0@PAV?$basic_string@DU?$char_traits@D@std@@V?$allocator@D@2@@0@AAV20@@Z 0048fcc0 f i Game.obj
 0001:0008ed30       ??$_Dest_val@V?$allocator@V?$basic_string@DU?$char_traits@D@std@@V?$allocator@D@2@@std@@@std@@V?$basic_string@DU?$char_traits@D@std@@V?$allocator@D@2@@2@@std@@YAXAAV?$allocator@V?$basic_string@DU?$char_traits@D@std@@V?$allocator@D@2@@std@@@0@PAV?$basic_string@DU?$char_traits@D@std@@V?$allocator@D@2@@0@@Z 0048fd30 f i Game.obj
 0001:0008ed70       ??$_Umove@PAV?$_List_iterator@V?$_List_val@U?$pair@$$CBEPBD@std@@V?$allocator@U?$pair@$$CBEPBD@std@@@2@@std@@@std@@@?$vector@V?$_List_iterator@V?$_List_val@U?$pair@$$CBEPBD@std@@V?$allocator@U?$pair@$$CBEPBD@std@@@2@@std@@@std@@V?$allocator@V?$_List_iterator@V?$_List_val@U?$pair@$$CBEPBD@std@@V?$allocator@U?$pair@$$CBEPBD@std@@@2@@std@@@std@@@2@@std@@IAEPAV?$_List_iterator@V?$_List_val@U?$pair@$$CBEPBD@std@@V?$allocator@U?$pair@$$CBEPBD@std@@@2@@std@@@1@PAV21@00@Z 0048fd70 f i Game.obj
 0001:0008eda0       ?construct@?$allocator@V?$basic_string@DU?$char_traits@D@std@@V?$allocator@D@2@@std@@@std@@QAEXPAV?$basic_string@DU?$char_traits@D@std@@V?$allocator@D@2@@2@ABV32@@Z 0048fda0 f i Game.obj
 0001:0008ee20       ?_Insert@?$_Tree@V?$_Tset_traits@V?$basic_string@DU?$char_traits@D@std@@V?$allocator@D@2@@std@@U?$less@V?$basic_string@DU?$char_traits@D@std@@V?$allocator@D@2@@std@@@2@V?$allocator@V?$basic_string@DU?$char_traits@D@std@@V?$allocator@D@2@@std@@@2@$0A@@std@@@std@@IAE?AV?$_Tree_const_iterator@V?$_Tree_val@V?$_Tset_traits@V?$basic_string@DU?$char_traits@D@std@@V?$allocator@D@2@@std@@U?$less@V?$basic_string@DU?$char_traits@D@std@@V?$allocator@D@2@@std@@@2@V?$allocator@V?$basic_string@DU?$char_traits@D@std@@V?$allocator@D@2@@std@@@2@$0A@@std@@@std@@@2@_NPAU_Node@?$_Tree_nod@V?$_Tset_traits@V?$basic_string@DU?$char_traits@D@std@@V?$allocator@D@2@@std@@U?$less@V?$basic_string@DU?$char_traits@D@std@@V?$allocator@D@2@@std@@@2@V?$allocator@V?$basic_string@DU?$char_traits@D@std@@V?$allocator@D@2@@std@@@2@$0A@@std@@@2@1@Z 0048fe20 f i Game.obj
 0001:0008f100       ??$insert@U?$pair@PAVCItem@@K@std@@@?$_Tree@V?$_Tmap_traits@PAVCItem@@KUItemMapComp@@V?$allocator@U?$pair@QAVCItem@@K@std@@@std@@$00@std@@@std@@QAE?AU?$pair@V?$_Tree_iterator@V?$_Tree_val@V?$_Tmap_traits@PAVCItem@@KUItemMapComp@@V?$allocator@U?$pair@QAVCItem@@K@std@@@std@@$00@std@@@std@@@std@@_N@1@$$QAU?$pair@PAVCItem@@K@1@@Z 00490100 f i Game.obj
 0001:0008f130       ??$_Destroy_range@V?$allocator@V?$basic_string@DU?$char_traits@D@std@@V?$allocator@D@2@@std@@@std@@@std@@YAXPAV?$basic_string@DU?$char_traits@D@std@@V?$allocator@D@2@@0@0AAV?$allocator@V?$basic_string@DU?$char_traits@D@std@@V?$allocator@D@2@@std@@@0@U_Nonscalar_ptr_iterator_tag@0@@Z 00490130 f i Game.obj
 0001:0008f180       ?_Do_call@?$_Impl_no_alloc0@U?$_Callable_obj@V?$_Bind_fty@V?$mem_fun_t@XVCGame@@@std@@U_Notforced@tr1@2@V?$_Bind1@U?$_Callable_obj@V?$mem_fun_t@XVCGame@@@std@@$0A@@tr1@std@@PAVCGame@@@42@@tr1@std@@$0A@@tr1@std@@X@tr1@std@@UAEXXZ 00490180 f i Game.obj
 0001:0008f190       ??$_Buynode@U?$pair@$$CBEPBD@std@@@?$_List_val@U?$pair@$$CBEPBD@std@@V?$allocator@U?$pair@$$CBEPBD@std@@@2@@std@@QAEPAU_Node@?$_List_nod@U?$pair@$$CBEPBD@std@@V?$allocator@U?$pair@$$CBEPBD@std@@@2@@1@PAU231@0$$QAU?$pair@$$CBEPBD@1@@Z 00490190 f i Game.obj
 0001:0008f210       ??0partyMember@CGame@@QAE@PAD@Z 00490210 f i Game.obj
 0001:0008f260       ??0guildMember@CGame@@QAE@PAD@Z 00490260 f i Game.obj
 0001:0008f2b0       ?PutChatScrollList@CGame@@QAEXPADD@Z 004902b0 f   Game.obj
 0001:0008f470       ?ChatMsgHandler@CGame@@QAEXPAD@Z 00490470 f   Game.obj
 0001:0008fdb0       ?DrawDialogBox_SlayerMenu@CGame@@QAEXXZ 00490db0 f   Game.obj
 0001:000908c0       ?ReceiveGuildInfo@CGame@@QAEXPAD@Z 004918c0 f   Game.obj
 0001:00090b00       ?TopsiteVote@CGame@@QAEXXZ 00491b00 f   Game.obj
 0001:00090ca0       ?OnVoteSocketEvent@CGame@@QAEXIJ@Z 00491ca0 f   Game.obj
 0001:000910c0       ??0?$basic_string@DU?$char_traits@D@std@@V?$allocator@D@2@@std@@QAE@$$QAV01@@Z 004920c0 f i Game.obj
 0001:000910f0       ??4?$basic_string@DU?$char_traits@D@std@@V?$allocator@D@2@@std@@QAEAAV01@$$QAV01@@Z 004920f0 f i Game.obj
 0001:00091100       ??1?$_Tree@V?$_Tmap_traits@PAVCItem@@KUItemMapComp@@V?$allocator@U?$pair@QAVCItem@@K@std@@@std@@$00@std@@@std@@QAE@XZ 00492100 f i Game.obj
 0001:00091180       ?find@?$_Hash@V?$_Umap_traits@V?$basic_string@DU?$char_traits@D@std@@V?$allocator@D@2@@std@@UGuildMember@@V?$_Hash_compare@V?$basic_string@DU?$char_traits@D@std@@V?$allocator@D@2@@std@@V?$hash@V?$basic_string@DU?$char_traits@D@std@@V?$allocator@D@2@@std@@@2@U?$equal_to@V?$basic_string@DU?$char_traits@D@std@@V?$allocator@D@2@@std@@@2@@2@V?$allocator@U?$pair@$$CBV?$basic_string@DU?$char_traits@D@std@@V?$allocator@D@2@@std@@UGuildMember@@@std@@@2@$0A@@tr1@std@@@std@@QAE?AV?$_List_iterator@V?$_List_val@U?$pair@$$CBV?$basic_string@DU?$char_traits@D@std@@V?$allocator@D@2@@std@@UGuildMember@@@std@@V?$allocator@U?$pair@$$CBV?$basic_string@DU?$char_traits@D@std@@V?$allocator@D@2@@std@@UGuildMember@@@std@@@2@@std@@@2@ABV?$basic_string@DU?$char_traits@D@std@@V?$allocator@D@2@@2@@Z 00492180 f i Game.obj
 0001:000911a0       ??0?$vector@PAVCMsg@@V?$allocator@PAVCMsg@@@std@@@std@@QAE@I@Z 004921a0 f i Game.obj
 0001:000911d0       ?find@?$_Hash@V?$_Umap_traits@EPBDV?$_Hash_compare@EV?$hash@E@std@@U?$equal_to@E@2@@std@@V?$allocator@U?$pair@$$CBEPBD@std@@@2@$0A@@tr1@std@@@std@@QAE?AV?$_List_iterator@V?$_List_val@U?$pair@$$CBEPBD@std@@V?$allocator@U?$pair@$$CBEPBD@std@@@2@@std@@@2@ABE@Z 004921d0 f i Game.obj
 0001:000911f0       ?_Erase@?$_Tree@V?$_Tset_traits@V?$basic_string@DU?$char_traits@D@std@@V?$allocator@D@2@@std@@U?$less@V?$basic_string@DU?$char_traits@D@std@@V?$allocator@D@2@@std@@@2@V?$allocator@V?$basic_string@DU?$char_traits@D@std@@V?$allocator@D@2@@std@@@2@$0A@@std@@@std@@IAEXPAU_Node@?$_Tree_nod@V?$_Tset_traits@V?$basic_string@DU?$char_traits@D@std@@V?$allocator@D@2@@std@@U?$less@V?$basic_string@DU?$char_traits@D@std@@V?$allocator@D@2@@std@@@2@V?$allocator@V?$basic_string@DU?$char_traits@D@std@@V?$allocator@D@2@@std@@@2@$0A@@std@@@2@@Z 004921f0 f i Game.obj
 0001:00091270       ??0?$basic_iostream@DU?$char_traits@D@std@@@std@@QAE@PAV?$basic_streambuf@DU?$char_traits@D@std@@@1@@Z 00492270 f i Game.obj
 0001:00091380       ?str@?$basic_stringbuf@DU?$char_traits@D@std@@V?$allocator@D@2@@std@@QBE?AV?$basic_string@DU?$char_traits@D@std@@V?$allocator@D@2@@2@XZ 00492380 f i Game.obj
 0001:000914f0       ?erase@?$_Tree@V?$_Tset_traits@V?$basic_string@DU?$char_traits@D@std@@V?$allocator@D@2@@std@@U?$less@V?$basic_string@DU?$char_traits@D@std@@V?$allocator@D@2@@std@@@2@V?$allocator@V?$basic_string@DU?$char_traits@D@std@@V?$allocator@D@2@@std@@@2@$0A@@std@@@std@@QAE?AV?$_Tree_const_iterator@V?$_Tree_val@V?$_Tset_traits@V?$basic_string@DU?$char_traits@D@std@@V?$allocator@D@2@@std@@U?$less@V?$basic_string@DU?$char_traits@D@std@@V?$allocator@D@2@@std@@@2@V?$allocator@V?$basic_string@DU?$char_traits@D@std@@V?$allocator@D@2@@std@@@2@$0A@@std@@@std@@@2@V32@@Z 004924f0 f i Game.obj
 0001:00091810       ?_Tidy@?$vector@V?$_List_iterator@V?$_List_val@U?$pair@$$CBEPBD@std@@V?$allocator@U?$pair@$$CBEPBD@std@@@2@@std@@@std@@V?$allocator@V?$_List_iterator@V?$_List_val@U?$pair@$$CBEPBD@std@@V?$allocator@U?$pair@$$CBEPBD@std@@@2@@std@@@std@@@2@@std@@IAEXXZ 00492810 f i Game.obj
 0001:00091850       ?_Insert_n@?$vector@V?$_List_iterator@V?$_List_val@U?$pair@$$CBEPBD@std@@V?$allocator@U?$pair@$$CBEPBD@std@@@2@@std@@@std@@V?$allocator@V?$_List_iterator@V?$_List_val@U?$pair@$$CBEPBD@std@@V?$allocator@U?$pair@$$CBEPBD@std@@@2@@std@@@std@@@2@@std@@IAEXV?$_Vector_const_iterator@V?$_Vector_val@V?$_List_iterator@V?$_List_val@U?$pair@$$CBEPBD@std@@V?$allocator@U?$pair@$$CBEPBD@std@@@2@@std@@@std@@V?$allocator@V?$_List_iterator@V?$_List_val@U?$pair@$$CBEPBD@std@@V?$allocator@U?$pair@$$CBEPBD@std@@@2@@std@@@std@@@2@@std@@@2@IABV?$_List_iterator@V?$_List_val@U?$pair@$$CBEPBD@std@@V?$allocator@U?$pair@$$CBEPBD@std@@@2@@std@@@2@@Z 00492850 f i Game.obj
 0001:00091b40       ??$insert@U?$pair@PAVCItem@@K@std@@@?$multimap@PAVCItem@@KUItemMapComp@@V?$allocator@U?$pair@QAVCItem@@K@std@@@std@@@std@@QAE?AV?$_Tree_iterator@V?$_Tree_val@V?$_Tmap_traits@PAVCItem@@KUItemMapComp@@V?$allocator@U?$pair@QAVCItem@@K@std@@@std@@$00@std@@@std@@@1@$$QAU?$pair@PAVCItem@@K@1@@Z 00492b40 f i Game.obj
 0001:00091b80       ??$_Cons_val@V?$allocator@V?$basic_string@DU?$char_traits@D@std@@V?$allocator@D@2@@std@@@std@@V?$basic_string@DU?$char_traits@D@std@@V?$allocator@D@2@@2@ABV32@@std@@YAXAAV?$allocator@V?$basic_string@DU?$char_traits@D@std@@V?$allocator@D@2@@std@@@0@PAV?$basic_string@DU?$char_traits@D@std@@V?$allocator@D@2@@0@ABV20@@Z 00492b80 f i Game.obj
 0001:00091c00       ??$_Destroy_range@V?$allocator@V?$basic_string@DU?$char_traits@D@std@@V?$allocator@D@2@@std@@@std@@@std@@YAXPAV?$basic_string@DU?$char_traits@D@std@@V?$allocator@D@2@@0@0AAV?$allocator@V?$basic_string@DU?$char_traits@D@std@@V?$allocator@D@2@@std@@@0@@Z 00492c00 f i Game.obj
 0001:00091c30       ?_Linsert@?$_Tree@V?$_Tset_traits@V?$basic_string@DU?$char_traits@D@std@@V?$allocator@D@2@@std@@U?$less@V?$basic_string@DU?$char_traits@D@std@@V?$allocator@D@2@@std@@@2@V?$allocator@V?$basic_string@DU?$char_traits@D@std@@V?$allocator@D@2@@std@@@2@$0A@@std@@@std@@QAE?AU?$pair@V?$_Tree_const_iterator@V?$_Tree_val@V?$_Tset_traits@V?$basic_string@DU?$char_traits@D@std@@V?$allocator@D@2@@std@@U?$less@V?$basic_string@DU?$char_traits@D@std@@V?$allocator@D@2@@std@@@2@V?$allocator@V?$basic_string@DU?$char_traits@D@std@@V?$allocator@D@2@@std@@@2@$0A@@std@@@std@@@std@@_N@2@PAU_Node@?$_Tree_nod@V?$_Tset_traits@V?$basic_string@DU?$char_traits@D@std@@V?$allocator@D@2@@std@@U?$less@V?$basic_string@DU?$char_traits@D@std@@V?$allocator@D@2@@std@@@2@V?$allocator@V?$basic_string@DU?$char_traits@D@std@@V?$allocator@D@2@@std@@@2@$0A@@std@@@2@_N@Z 00492c30 f i Game.obj
 0001:00091e60       ??$_Move@PAV?$basic_string@DU?$char_traits@D@std@@V?$allocator@D@2@@std@@PAV12@@std@@YAPAV?$basic_string@DU?$char_traits@D@std@@V?$allocator@D@2@@0@PAV10@00U_Nonscalar_ptr_iterator_tag@0@@Z 00492e60 f i Game.obj
 0001:00091f10       ??$_Insert_rv@U?$pair@$$CBEPBD@std@@@?$list@U?$pair@$$CBEPBD@std@@V?$allocator@U?$pair@$$CBEPBD@std@@@2@@std@@QAEXV?$_List_const_iterator@V?$_List_val@U?$pair@$$CBEPBD@std@@V?$allocator@U?$pair@$$CBEPBD@std@@@2@@std@@@1@$$QAU?$pair@$$CBEPBD@1@@Z 00492f10 f i Game.obj
 0001:00091f70       ?construct@?$allocator@V?$basic_string@DU?$char_traits@D@std@@V?$allocator@D@2@@std@@@std@@QAEXPAV?$basic_string@DU?$char_traits@D@std@@V?$allocator@D@2@@2@$$QAV32@@Z 00492f70 f i Game.obj
 0001:00091fe0       ??1?$multimap@PAVCItem@@KUItemMapComp@@V?$allocator@U?$pair@QAVCItem@@K@std@@@std@@@std@@QAE@XZ 00492fe0 f i Game.obj
 0001:00092060       ?EnableChat@CGame@@QAEXW4chatTypes@@_N@Z 00493060 f   Game.obj
 0001:00092270       ?DrawDialogBox_CityHallMenu@CGame@@QAEXXZ 00493270 f   Game.obj
 0001:000959a0       ?NotifyMsg_ItemToGuildBank@CGame@@QAEXPAD@Z 004969a0 f   Game.obj
 0001:000960a0       ?ReceiveGuildsmanStatus@CGame@@QAEXPAD@Z 004970a0 f   Game.obj
 0001:00096680       ?InitItemList_GuildBank@CGame@@QAEXPAD@Z 00497680 f   Game.obj
 0001:000968d0       ??0?$multimap@PAVCItem@@KUItemMapComp@@V?$allocator@U?$pair@QAVCItem@@K@std@@@std@@@std@@QAE@XZ 004978d0 f i Game.obj
 0001:00096960       ?clear@?$_Tree@V?$_Tset_traits@V?$basic_string@DU?$char_traits@D@std@@V?$allocator@D@2@@std@@U?$less@V?$basic_string@DU?$char_traits@D@std@@V?$allocator@D@2@@std@@@2@V?$allocator@V?$basic_string@DU?$char_traits@D@std@@V?$allocator@D@2@@std@@@2@$0A@@std@@@std@@QAEXXZ 00497960 f i Game.obj
 0001:000969a0       ??0?$basic_stringstream@DU?$char_traits@D@std@@V?$allocator@D@2@@std@@QAE@H@Z 004979a0 f i Game.obj
 0001:00096b20       ?str@?$basic_stringstream@DU?$char_traits@D@std@@V?$allocator@D@2@@std@@QBE?AV?$basic_string@DU?$char_traits@D@std@@V?$allocator@D@2@@2@XZ 00497b20 f i Game.obj
 0001:00096b50       ?erase@?$_Tree@V?$_Tset_traits@V?$basic_string@DU?$char_traits@D@std@@V?$allocator@D@2@@std@@U?$less@V?$basic_string@DU?$char_traits@D@std@@V?$allocator@D@2@@std@@@2@V?$allocator@V?$basic_string@DU?$char_traits@D@std@@V?$allocator@D@2@@std@@@2@$0A@@std@@@std@@QAE?AV?$_Tree_const_iterator@V?$_Tree_val@V?$_Tset_traits@V?$basic_string@DU?$char_traits@D@std@@V?$allocator@D@2@@std@@U?$less@V?$basic_string@DU?$char_traits@D@std@@V?$allocator@D@2@@std@@@2@V?$allocator@V?$basic_string@DU?$char_traits@D@std@@V?$allocator@D@2@@std@@@2@$0A@@std@@@std@@@2@V32@0@Z 00497b50 f i Game.obj
 0001:00096c40       ?_Tidy@?$_Tree@V?$_Tset_traits@V?$basic_string@DU?$char_traits@D@std@@V?$allocator@D@2@@std@@U?$less@V?$basic_string@DU?$char_traits@D@std@@V?$allocator@D@2@@std@@@2@V?$allocator@V?$basic_string@DU?$char_traits@D@std@@V?$allocator@D@2@@std@@@2@$0A@@std@@@std@@IAEXXZ 00497c40 f i Game.obj
 0001:00096c60       ??1?$vector@V?$_List_iterator@V?$_List_val@U?$pair@$$CBEPBD@std@@V?$allocator@U?$pair@$$CBEPBD@std@@@2@@std@@@std@@V?$allocator@V?$_List_iterator@V?$_List_val@U?$pair@$$CBEPBD@std@@V?$allocator@U?$pair@$$CBEPBD@std@@@2@@std@@@std@@@2@@std@@QAE@XZ 00497c60 f i Game.obj
 0001:00096ca0       ?_Destroy@?$vector@V?$basic_string@DU?$char_traits@D@std@@V?$allocator@D@2@@std@@V?$allocator@V?$basic_string@DU?$char_traits@D@std@@V?$allocator@D@2@@std@@@2@@std@@IAEXPAV?$basic_string@DU?$char_traits@D@std@@V?$allocator@D@2@@2@0@Z 00497ca0 f i Game.obj
 0001:00096cd0       ?insert@?$vector@V?$_List_iterator@V?$_List_val@U?$pair@$$CBEPBD@std@@V?$allocator@U?$pair@$$CBEPBD@std@@@2@@std@@@std@@V?$allocator@V?$_List_iterator@V?$_List_val@U?$pair@$$CBEPBD@std@@V?$allocator@U?$pair@$$CBEPBD@std@@@2@@std@@@std@@@2@@std@@QAEXV?$_Vector_const_iterator@V?$_Vector_val@V?$_List_iterator@V?$_List_val@U?$pair@$$CBEPBD@std@@V?$allocator@U?$pair@$$CBEPBD@std@@@2@@std@@@std@@V?$allocator@V?$_List_iterator@V?$_List_val@U?$pair@$$CBEPBD@std@@V?$allocator@U?$pair@$$CBEPBD@std@@@2@@std@@@std@@@2@@std@@@2@IABV?$_List_iterator@V?$_List_val@U?$pair@$$CBEPBD@std@@V?$allocator@U?$pair@$$CBEPBD@std@@@2@@std@@@2@@Z 00497cd0 f i Game.obj
 0001:00096cf0       ??$_Move@PAV?$basic_string@DU?$char_traits@D@std@@V?$allocator@D@2@@std@@PAV12@@std@@YAPAV?$basic_string@DU?$char_traits@D@std@@V?$allocator@D@2@@0@PAV10@00@Z 00497cf0 f i Game.obj
 0001:00096d20       ??$emplace_front@U?$pair@$$CBEPBD@std@@@?$list@U?$pair@$$CBEPBD@std@@V?$allocator@U?$pair@$$CBEPBD@std@@@2@@std@@QAEX$$QAU?$pair@$$CBEPBD@1@@Z 00497d20 f i Game.obj
 0001:00096d80       ??$_Cons_val@V?$allocator@V?$basic_string@DU?$char_traits@D@std@@V?$allocator@D@2@@std@@@std@@V?$basic_string@DU?$char_traits@D@std@@V?$allocator@D@2@@2@V32@@std@@YAXAAV?$allocator@V?$basic_string@DU?$char_traits@D@std@@V?$allocator@D@2@@std@@@0@PAV?$basic_string@DU?$char_traits@D@std@@V?$allocator@D@2@@0@$$QAV20@@Z 00497d80 f i Game.obj
 0001:00096df0       ??$_Uninit_move@PAV?$basic_string@DU?$char_traits@D@std@@V?$allocator@D@2@@std@@PAV12@V?$allocator@V?$basic_string@DU?$char_traits@D@std@@V?$allocator@D@2@@std@@@2@V12@@std@@YAPAV?$basic_string@DU?$char_traits@D@std@@V?$allocator@D@2@@0@PAV10@00AAV?$allocator@V?$basic_string@DU?$char_traits@D@std@@V?$allocator@D@2@@std@@@0@0U_Nonscalar_ptr_iterator_tag@0@@Z 00497df0 f i Game.obj
 0001:00096ee0       ?DlgBoxClick_Chat@CGame@@QAEXXZ 00497ee0 f   Game.obj
 0001:00096fd0       ?DlgBoxDoubleClick_Chat@CGame@@QAEXXZ 00497fd0 f   Game.obj
 0001:00097200       ?DrawDialogBox_Character@CGame@@QAEXXZ 00498200 f   Game.obj
 0001:0009cde0       ?NotifyMsg_EventStarting@CGame@@QAEXPAD@Z 0049dde0 f   Game.obj
 0001:0009d220       ??1?$_Tree@V?$_Tset_traits@V?$basic_string@DU?$char_traits@D@std@@V?$allocator@D@2@@std@@U?$less@V?$basic_string@DU?$char_traits@D@std@@V?$allocator@D@2@@std@@@2@V?$allocator@V?$basic_string@DU?$char_traits@D@std@@V?$allocator@D@2@@std@@@2@$0A@@std@@@std@@QAE@XZ 0049e220 f i Game.obj
 0001:0009d2a0       ?erase@?$_Tree@V?$_Tset_traits@V?$basic_string@DU?$char_traits@D@std@@V?$allocator@D@2@@std@@U?$less@V?$basic_string@DU?$char_traits@D@std@@V?$allocator@D@2@@std@@@2@V?$allocator@V?$basic_string@DU?$char_traits@D@std@@V?$allocator@D@2@@std@@@2@$0A@@std@@@std@@QAEIABV?$basic_string@DU?$char_traits@D@std@@V?$allocator@D@2@@2@@Z 0049e2a0 f i Game.obj
 0001:0009d310       ??1?$_Hash@V?$_Umap_traits@EPBDV?$_Hash_compare@EV?$hash@E@std@@U?$equal_to@E@2@@std@@V?$allocator@U?$pair@$$CBEPBD@std@@@2@$0A@@tr1@std@@@std@@QAE@XZ 0049e310 f i Game.obj
 0001:0009d380       ?erase@?$vector@V?$basic_string@DU?$char_traits@D@std@@V?$allocator@D@2@@std@@V?$allocator@V?$basic_string@DU?$char_traits@D@std@@V?$allocator@D@2@@std@@@2@@std@@QAE?AV?$_Vector_iterator@V?$_Vector_val@V?$basic_string@DU?$char_traits@D@std@@V?$allocator@D@2@@std@@V?$allocator@V?$basic_string@DU?$char_traits@D@std@@V?$allocator@D@2@@std@@@2@@std@@@2@V?$_Vector_const_iterator@V?$_Vector_val@V?$basic_string@DU?$char_traits@D@std@@V?$allocator@D@2@@std@@V?$allocator@V?$basic_string@DU?$char_traits@D@std@@V?$allocator@D@2@@std@@@2@@std@@@2@0@Z 0049e380 f i Game.obj
 0001:0009d3e0       ?_Tidy@?$vector@V?$basic_string@DU?$char_traits@D@std@@V?$allocator@D@2@@std@@V?$allocator@V?$basic_string@DU?$char_traits@D@std@@V?$allocator@D@2@@std@@@2@@std@@IAEXXZ 0049e3e0 f i Game.obj
 0001:0009d440       ?_Assign_n@?$vector@V?$_List_iterator@V?$_List_val@U?$pair@$$CBEPBD@std@@V?$allocator@U?$pair@$$CBEPBD@std@@@2@@std@@@std@@V?$allocator@V?$_List_iterator@V?$_List_val@U?$pair@$$CBEPBD@std@@V?$allocator@U?$pair@$$CBEPBD@std@@@2@@std@@@std@@@2@@std@@IAEXIABV?$_List_iterator@V?$_List_val@U?$pair@$$CBEPBD@std@@V?$allocator@U?$pair@$$CBEPBD@std@@@2@@std@@@2@@Z 0049e440 f i Game.obj
 0001:0009d4a0       ??$_Buynode@V?$basic_string@DU?$char_traits@D@std@@V?$allocator@D@2@@std@@@?$_Tree_val@V?$_Tset_traits@V?$basic_string@DU?$char_traits@D@std@@V?$allocator@D@2@@std@@U?$less@V?$basic_string@DU?$char_traits@D@std@@V?$allocator@D@2@@std@@@2@V?$allocator@V?$basic_string@DU?$char_traits@D@std@@V?$allocator@D@2@@std@@@2@$0A@@std@@@std@@QAEPAU_Node@?$_Tree_nod@V?$_Tset_traits@V?$basic_string@DU?$char_traits@D@std@@V?$allocator@D@2@@std@@U?$less@V?$basic_string@DU?$char_traits@D@std@@V?$allocator@D@2@@std@@@2@V?$allocator@V?$basic_string@DU?$char_traits@D@std@@V?$allocator@D@2@@std@@@2@$0A@@std@@@1@$$QAV?$basic_string@DU?$char_traits@D@std@@V?$allocator@D@2@@1@@Z 0049e4a0 f i Game.obj
 0001:0009d5b0       ??$_Uninitialized_move@PAV?$basic_string@DU?$char_traits@D@std@@V?$allocator@D@2@@std@@PAV12@V?$allocator@V?$basic_string@DU?$char_traits@D@std@@V?$allocator@D@2@@std@@@2@@std@@YAPAV?$basic_string@DU?$char_traits@D@std@@V?$allocator@D@2@@0@PAV10@00AAV?$allocator@V?$basic_string@DU?$char_traits@D@std@@V?$allocator@D@2@@std@@@0@@Z 0049e5b0 f i Game.obj
 0001:0009d5e0       ??1?$unordered_map@EPBDV?$hash@E@std@@U?$equal_to@E@2@V?$allocator@U?$pair@$$CBEPBD@std@@@2@@tr1@std@@QAE@XZ 0049e5e0 f i Game.obj
 0001:0009d5f0       ??1?$set@V?$basic_string@DU?$char_traits@D@std@@V?$allocator@D@2@@std@@U?$less@V?$basic_string@DU?$char_traits@D@std@@V?$allocator@D@2@@std@@@2@V?$allocator@V?$basic_string@DU?$char_traits@D@std@@V?$allocator@D@2@@std@@@2@@std@@QAE@XZ 0049e5f0 f i Game.obj
 0001:0009d670       ?DlgBoxClick_MuteList@CGame@@QAEXXZ 0049e670 f   Game.obj
 0001:0009d8e0       ??1?$vector@V?$basic_string@DU?$char_traits@D@std@@V?$allocator@D@2@@std@@V?$allocator@V?$basic_string@DU?$char_traits@D@std@@V?$allocator@D@2@@std@@@2@@std@@QAE@XZ 0049e8e0 f i Game.obj
 0001:0009d940       ?clear@?$vector@V?$basic_string@DU?$char_traits@D@std@@V?$allocator@D@2@@std@@V?$allocator@V?$basic_string@DU?$char_traits@D@std@@V?$allocator@D@2@@std@@@2@@std@@QAEXXZ 0049e940 f i Game.obj
 0001:0009d990       ??0?$set@V?$basic_string@DU?$char_traits@D@std@@V?$allocator@D@2@@std@@U?$less@V?$basic_string@DU?$char_traits@D@std@@V?$allocator@D@2@@std@@@2@V?$allocator@V?$basic_string@DU?$char_traits@D@std@@V?$allocator@D@2@@std@@@2@@std@@QAE@XZ 0049e990 f i Game.obj
 0001:0009da20       ?assign@?$vector@V?$_List_iterator@V?$_List_val@U?$pair@$$CBEPBD@std@@V?$allocator@U?$pair@$$CBEPBD@std@@@2@@std@@@std@@V?$allocator@V?$_List_iterator@V?$_List_val@U?$pair@$$CBEPBD@std@@V?$allocator@U?$pair@$$CBEPBD@std@@@2@@std@@@std@@@2@@std@@QAEXIABV?$_List_iterator@V?$_List_val@U?$pair@$$CBEPBD@std@@V?$allocator@U?$pair@$$CBEPBD@std@@@2@@std@@@2@@Z 0049ea20 f i Game.obj
 0001:0009da80       ??$insert@V?$basic_string@DU?$char_traits@D@std@@V?$allocator@D@2@@std@@@?$_Tree@V?$_Tset_traits@V?$basic_string@DU?$char_traits@D@std@@V?$allocator@D@2@@std@@U?$less@V?$basic_string@DU?$char_traits@D@std@@V?$allocator@D@2@@std@@@2@V?$allocator@V?$basic_string@DU?$char_traits@D@std@@V?$allocator@D@2@@std@@@2@$0A@@std@@@std@@QAE?AU?$pair@V?$_Tree_const_iterator@V?$_Tree_val@V?$_Tset_traits@V?$basic_string@DU?$char_traits@D@std@@V?$allocator@D@2@@std@@U?$less@V?$basic_string@DU?$char_traits@D@std@@V?$allocator@D@2@@std@@@2@V?$allocator@V?$basic_string@DU?$char_traits@D@std@@V?$allocator@D@2@@std@@@2@$0A@@std@@@std@@@std@@_N@1@$$QAV?$basic_string@DU?$char_traits@D@std@@V?$allocator@D@2@@1@@Z 0049ea80 f i Game.obj
 0001:0009dab0       ??$_Umove@PAV?$basic_string@DU?$char_traits@D@std@@V?$allocator@D@2@@std@@@?$vector@V?$basic_string@DU?$char_traits@D@std@@V?$allocator@D@2@@std@@V?$allocator@V?$basic_string@DU?$char_traits@D@std@@V?$allocator@D@2@@std@@@2@@std@@IAEPAV?$basic_string@DU?$char_traits@D@std@@V?$allocator@D@2@@1@PAV21@00@Z 0049eab0 f i Game.obj
 0001:0009dae0       ??1CGame@@UAE@XZ           0049eae0 f   Game.obj
 0001:0009dd10       ?bCheckLocalChatCommand@CGame@@QAEHQBD@Z 0049ed10 f   Game.obj
 0001:0009e850       ?LoadMuteList@CGame@@QAEXXZ 0049f850 f   Game.obj
 0001:0009eaa0       ?reserve@?$vector@V?$basic_string@DU?$char_traits@D@std@@V?$allocator@D@2@@std@@V?$allocator@V?$basic_string@DU?$char_traits@D@std@@V?$allocator@D@2@@std@@@2@@std@@QAEXI@Z 0049faa0 f i Game.obj
 0001:0009ec00       ?_Init@?$_Hash@V?$_Umap_traits@EPBDV?$_Hash_compare@EV?$hash@E@std@@U?$equal_to@E@2@@std@@V?$allocator@U?$pair@$$CBEPBD@std@@@2@$0A@@tr1@std@@@std@@IAEXI@Z 0049fc00 f i Game.obj
 0001:0009ec70       ?_Check_size@?$_Hash@V?$_Umap_traits@EPBDV?$_Hash_compare@EV?$hash@E@std@@U?$equal_to@E@2@@std@@V?$allocator@U?$pair@$$CBEPBD@std@@@2@$0A@@tr1@std@@@std@@IAEXXZ 0049fc70 f i Game.obj
 0001:0009ed50       ??_ECGame@@UAEPAXI@Z       0049fd50 f i Game.obj
 0001:0009ed50       ??_GCGame@@UAEPAXI@Z       0049fd50 f i Game.obj
 0001:0009ed90       ?bSendCommand@CGame@@QAEHKGDHHHQBDH@Z 0049fd90 f   Game.obj
 0001:000a0620       ?InitPlayerResponseHandler@CGame@@QAEXPAD@Z 004a1620 f   Game.obj
 0001:000a06c0       ?DlgBoxClick_GuildMenu@CGame@@QAEXXZ 004a16c0 f   Game.obj
 0001:000a0d20       ?DisableDialogBox@CGame@@QAEXH@Z 004a1d20 f   Game.obj
 0001:000a1410       ?DlgBoxClick_Party@CGame@@QAEXXZ 004a2410 f   Game.obj
 0001:000a19b0       ?_RequestMapStatus@CGame@@QAEXPADH@Z 004a29b0 f   Game.obj
 0001:000a19e0       ?DrawDialogBox_Slates@CGame@@QAEXXZ 004a29e0 f   Game.obj
 0001:000a2000       ?DlgBoxClick_NpcTalk@CGame@@QAEXXZ 004a3000 f   Game.obj
 0001:000a2300       ?DlgBoxClick_ItemUpgrade@CGame@@QAEXXZ 004a3300 f   Game.obj
 0001:000a27d0       ?DlgBoxClick_SellList@CGame@@QAEXXZ 004a37d0 f   Game.obj
 0001:000a2aa0       ?DlgBoxClick_Text@CGame@@QAEXXZ 004a3aa0 f   Game.obj
 0001:000a2b20       ?DlgBoxClick_15AgeMsg@CGame@@QAEXXZ 004a3b20 f   Game.obj
 0001:000a2bb0       ?DlgBoxClick_WarningMsg@CGame@@QAEXXZ 004a3bb0 f   Game.obj
 0001:000a2c40       ?DlgBoxClick_ItemDrop@CGame@@QAEXXZ 004a3c40 f   Game.obj
 0001:000a2db0       ?DlgBoxClick_ItemSellorRepair@CGame@@QAEXXZ 004a3db0 f   Game.obj
 0001:000a2f80       ?DlgBoxClick_ShutDownMsg@CGame@@QAEXXZ 004a3f80 f   Game.obj
 0001:000a3000       ?DlgBoxClick_ConfirmExchange@CGame@@QAEXXZ 004a4000 f   Game.obj
 0001:000a3260       ?DlgBoxClick_Quest@CGame@@QAEXXZ 004a4260 f   Game.obj
 0001:000a32e0       ?RetrieveItemHandler@CGame@@QAEXPAD@Z 004a42e0 f   Game.obj
 0001:000a3620       ?DlgBoxDoubleClick_Character@CGame@@QAEXXZ 004a4620 f   Game.obj
 0001:000a4650       ?DlgBoxDoubleClick_GuideMap@CGame@@QAEXXZ 004a5650 f   Game.obj
 0001:000a4910       ?DrawObjectName@CGame@@QAEXFFPADH@Z 004a5910 f   Game.obj
 0001:000a51c0       ?ClearSkillUsingStatus@CGame@@QAEXXZ 004a61c0 f   Game.obj
 0001:000a5380       ?DrawDialogBox_GuildMenu@CGame@@QAEXXZ 004a6380 f   Game.obj
 0001:000a6730       ?DlgBoxClick_GuildQuery@CGame@@QAEXXZ 004a7730 f   Game.obj
 0001:000a6ac0       ?DrawDialogBox_SkillDlg@CGame@@QAEXXZ 004a7ac0 f   Game.obj
 0001:000aa280       ?bItemDrop_Inventory@CGame@@QAEXXZ 004ab280 f   Game.obj
 0001:000aa820       ?DlgBoxClick_Bank@CGame@@QAEXXZ 004ab820 f   Game.obj
 0001:000aac10       ?DlgBoxClick_Fish@CGame@@QAEXXZ 004abc10 f   Game.obj
 0001:000aad00       ?DlgBoxClick_AddCharges@CGame@@QAEXXZ 004abd00 f   Game.obj
 0001:000aafb0       ?DlgBoxClick_Shop@CGame@@QAEXXZ 004abfb0 f   Game.obj
 0001:000ab440       ?DlgBoxClick_Skill@CGame@@QAEXXZ 004ac440 f   Game.obj
 0001:000ab6b0       ?NotifyMsg_ItemObtained@CGame@@QAEXPAD@Z 004ac6b0 f   Game.obj
 0001:000abbe0       ?NotifyMsg_ItemPurchased@CGame@@QAEXPAD@Z 004acbe0 f   Game.obj
 0001:000abf10       ?NotifyMsg_Killed@CGame@@QAEXPAD@Z 004acf10 f   Game.obj
 0001:000abf70       ?RequestTeleportAndWaitData@CGame@@QAEXXZ 004acf70 f   Game.obj
 0001:000abfc0       ?MotionEventHandler@CGame@@QAEXPAD@Z 004acfc0 f   Game.obj
 0001:000ad130       ?DrawDialogBox_Commander@CGame@@QAEXXZ 004ae130 f   Game.obj
 0001:000aec30       ?DrawDialogBox_Constructor@CGame@@QAEXXZ 004afc30 f   Game.obj
 0001:000afce0       ?DrawDialogBox_Soldier@CGame@@QAEXXZ 004b0ce0 f   Game.obj
 0001:000b08b0       ?DrawDialogBox_ItemUpgrade@CGame@@QAEXXZ 004b18b0 f   Game.obj
 0001:000b2170       ?UseMagic@CGame@@QAEXH@Z   004b3170 f   Game.obj
 0001:000b2390       ?ItemEquipHandler@CGame@@QAEXD@Z 004b3390 f   Game.obj
 0001:000b2a40       ?DlgBoxClick_ChangeStats@CGame@@QAEXXZ 004b3a40 f   Game.obj
 0001:000b2fe0       ?DlgBoxClick_Resurect@CGame@@QAEXXZ 004b3fe0 f   Game.obj
 0001:000b30f0       ?DlgBoxClick_CMDHallMenu@CGame@@QAEXXZ 004b40f0 f   Game.obj
 0001:000b34c0       ?DlgBoxClick_FriendList@CGame@@QAEXXZ 004b44c0 f   Game.obj
 0001:000b3760       ?UpdateFriendsStatus@CGame@@QAEXXZ 004b4760 f   Game.obj
 0001:000b38c0       ?DlgBoxClick_SubAuctionHouse@CGame@@QAEXXZ 004b48c0 f   Game.obj
 0001:000b3cc0       ?DlgBoxClick_SlayerMenu@CGame@@QAEXXZ 004b4cc0 f   Game.obj
 0001:000b3de0       ?DlgBoxClick_DKMenuWeapons@CGame@@QAEXXZ 004b4de0 f   Game.obj
 0001:000b3f50       ?DlgBoxClick_GuideMap@CGame@@QAEXXZ 004b4f50 f   Game.obj
 0001:000b42e0       ?DlgBoxClick_GuildBank@CGame@@QAEXXZ 004b52e0 f   Game.obj
 0001:000b44c0       ?RetrieveItemHandler_GuildBank@CGame@@QAEXPAD@Z 004b54c0 f   Game.obj
 0001:000b48f0       ?DlgBoxClick_QuestList@CGame@@QAEXXZ 004b58f0 f   Game.obj
 0001:000b4a50       ?_Reserve@?$vector@V?$basic_string@DU?$char_traits@D@std@@V?$allocator@D@2@@std@@V?$allocator@V?$basic_string@DU?$char_traits@D@std@@V?$allocator@D@2@@std@@@2@@std@@IAEXI@Z 004b5a50 f i Game.obj
 0001:000b4af0       ??0?$_Hash@V?$_Umap_traits@EPBDV?$_Hash_compare@EV?$hash@E@std@@U?$equal_to@E@2@@std@@V?$allocator@U?$pair@$$CBEPBD@std@@@2@$0A@@tr1@std@@@std@@QAE@ABV?$_Hash_compare@EV?$hash@E@std@@U?$equal_to@E@2@@1@ABV?$allocator@U?$pair@$$CBEPBD@std@@@1@@Z 004b5af0 f i Game.obj
 0001:000b4c20       ?_Insert@?$_Hash@V?$_Umap_traits@EPBDV?$_Hash_compare@EV?$hash@E@std@@U?$equal_to@E@2@@std@@V?$allocator@U?$pair@$$CBEPBD@std@@@2@$0A@@tr1@std@@@std@@IAE?AU?$pair@V?$_List_iterator@V?$_List_val@U?$pair@$$CBEPBD@std@@V?$allocator@U?$pair@$$CBEPBD@std@@@2@@std@@@std@@_N@2@ABU?$pair@$$CBEPBD@2@V?$_List_iterator@V?$_List_val@U?$pair@$$CBEPBD@std@@V?$allocator@U?$pair@$$CBEPBD@std@@@2@@std@@@2@@Z 004b5c20 f i Game.obj
 0001:000b4da0       ?_Reinsert@?$_Hash@V?$_Umap_traits@EPBDV?$_Hash_compare@EV?$hash@E@std@@U?$equal_to@E@2@@std@@V?$allocator@U?$pair@$$CBEPBD@std@@@2@$0A@@tr1@std@@@std@@IAEXV?$_List_iterator@V?$_List_val@U?$pair@$$CBEPBD@std@@V?$allocator@U?$pair@$$CBEPBD@std@@@2@@std@@@2@@Z 004b5da0 f i Game.obj
 0001:000b4e00       ?ReadPlayerSettings@CGame@@QAEXPAD@Z 004b5e00 f   Game.obj
 0001:000b56e0       ?DisbandGuildResponseHandler@CGame@@QAEXPAD@Z 004b66e0 f   Game.obj
 0001:000b57e0       ?DlgBoxClick_GuildOp@CGame@@QAEXXZ 004b67e0 f   Game.obj
 0001:000b5b10       ?DrawObject_OnAttack@CGame@@QAIHHHHHHKHH@Z 004b6b10 f   Game.obj
 0001:000b8f80       ?DrawObject_OnAttackMove@CGame@@QAIHHHHHHKHH@Z 004b9f80 f   Game.obj
 0001:000bc020       ?DrawObject_OnMagic@CGame@@QAIHHHHHHKHH@Z 004bd020 f   Game.obj
 0001:000bd170       ?DrawObject_OnGetItem@CGame@@QAIHHHHHHKHH@Z 004be170 f   Game.obj
 0001:000be4c0       ?DrawObject_OnDamage@CGame@@QAIHHHHHHKHH@Z 004bf4c0 f   Game.obj
 0001:000c2b80       ?DrawObject_OnDying@CGame@@QAIHHHHHHKHH@Z 004c3b80 f   Game.obj
 0001:000c43a0       ?DrawObject_OnDead@CGame@@QAIHHHHHHKHH@Z 004c53a0 f   Game.obj
 0001:000c5330       ?DrawObject_OnMove@CGame@@QAIHHHHHHKHH@Z 004c6330 f   Game.obj
 0001:000c8d60       ?DrawObject_OnDamageMove@CGame@@QAIHHHHHHKHH@Z 004c9d60 f   Game.obj
 0001:000cb2e0       ?DrawObject_OnStop@CGame@@QAIHHHHHHKHH@Z 004cc2e0 f   Game.obj
 0001:000ceaa0       ?DrawObject_OnRun@CGame@@QAIHHHHHHKHH@Z 004cfaa0 f   Game.obj
 0001:000d1320       ?EnableDialogBox@CGame@@QAEXHHHHPBD@Z 004d2320 f   Game.obj
 0001:000d2c20       ?DlgBoxClick_IconPanel@CGame@@QAEXXZ 004d3c20 f   Game.obj
 0001:000d2f80       ?DlgBoxClick_CrusadeJob@CGame@@QAEXXZ 004d3f80 f   Game.obj
 0001:000d3520       ?DlgBoxClick_Commander@CGame@@QAEXXZ 004d4520 f   Game.obj
 0001:000d41e0       ?DlgBoxClick_Constructor@CGame@@QAEXXZ 004d51e0 f   Game.obj
 0001:000d4740       ?DlgBoxClick_Soldier@CGame@@QAEXXZ 004d5740 f   Game.obj
 0001:000d49e0       ?DlgBoxClick_LevelUpSettings@CGame@@QAEXXZ 004d59e0 f   Game.obj
 0001:000d4d40       ?CrusadeContributionResult@CGame@@QAEXH@Z 004d5d40 f   Game.obj
 0001:000d5970       ?CrusadeWarResult@CGame@@QAEXH@Z 004d6970 f   Game.obj
 0001:000d6a00       ?DlgBoxClick_CityhallMenu@CGame@@QAEXXZ 004d7a00 f   Game.obj
 0001:000d7990       ?DlgBoxClick_Inventory@CGame@@QAEXXZ 004d8990 f   Game.obj
 0001:000d7ad0       ?DlgBoxClick_Character@CGame@@QAEXXZ 004d8ad0 f   Game.obj
 0001:000d7d80       ?DlgBoxClick_MagicShop@CGame@@QAEXXZ 004d8d80 f   Game.obj
 0001:000d80f0       ?bItemDrop_ExchangeDialog@CGame@@QAEXXZ 004d90f0 f   Game.obj
 0001:000d8320       ?DlgBoxClick_Exchange@CGame@@QAEXXZ 004d9320 f   Game.obj
 0001:000d8530       ?NoticementHandler@CGame@@QAEXPAD@Z 004d9530 f   Game.obj
 0001:000d8600       ?NotifyMsg_DismissGuildApprove@CGame@@QAEXPAD@Z 004d9600 f   Game.obj
 0001:000d8740       ?NotifyMsg_DismissGuildReject@CGame@@QAEXPAD@Z 004d9740 f   Game.obj
 0001:000d87d0       ?NotifyMsg_GuildDisbanded@CGame@@QAEXPAD@Z 004d97d0 f   Game.obj
 0001:000d8930       ?NotifyMsg_RepairItemPrice@CGame@@QAEXPAD@Z 004d9930 f   Game.obj
 0001:000d8970       ?NotifyMsg_SellItemPrice@CGame@@QAEXPAD@Z 004d9970 f   Game.obj
 0001:000d89c0       ?NotifyMsg_QueryDismissGuildPermission@CGame@@QAEXPAD@Z 004d99c0 f   Game.obj
 0001:000d8a30       ?NotifyMsg_QueryJoinGuildPermission@CGame@@QAEXPAD@Z 004d9a30 f   Game.obj
 0001:000d8aa0       ?NotifyMsg_OpenExchageWindow@CGame@@QAEXPAD@Z 004d9aa0 f   Game.obj
 0001:000d8d40       ?NotifyMsg_JoinGuildApprove@CGame@@QAEXPAD@Z 004d9d40 f   Game.obj
 0001:000d8e20       ?NotifyMsg_JoinGuildReject@CGame@@QAEXPAD@Z 004d9e20 f   Game.obj
 0001:000d8eb0       ?DlgBoxClick_Help@CGame@@QAEXXZ 004d9eb0 f   Game.obj
 0001:000d9300       ?OnSysKeyDown@CGame@@QAEXI@Z 004da300 f   Game.obj
 0001:000d94c0       ?OnKeyDown@CGame@@QAEXI@Z  004da4c0 f   Game.obj
 0001:000d9830       ?DlgBoxClick_SysMenu@CGame@@QAEXXZ 004da830 f   Game.obj
 0001:000d9db0       ?NpcTalkHandler@CGame@@QAEXPAD@Z 004dadb0 f   Game.obj
 0001:000dabd0       ?PointCommandHandler@CGame@@QAEXHHD@Z 004dbbd0 f   Game.obj
 0001:000db010       ?bItemDrop_Character@CGame@@QAEXXZ 004dc010 f   Game.obj
 0001:000db030       ?bItemDrop_SellList@CGame@@QAEXXZ 004dc030 f   Game.obj
 0001:000db310       ?bItemDrop_Bank@CGame@@QAEXXZ 004dc310 f   Game.obj
 0001:000db560       ?DlgBoxClick_Magic@CGame@@QAEXXZ 004dc560 f   Game.obj
 0001:000db7a0       ?DlgBoxClick_NpcActionQuery@CGame@@QAEXXZ 004dc7a0 f   Game.obj
 0001:000dcc40       ?NotifyMsg_EventFishMode@CGame@@QAEXPAD@Z 004ddc40 f   Game.obj
 0001:000dccc0       ?NotifyMsg_QuestReward@CGame@@QAEXPAD@Z 004ddcc0 f   Game.obj
 0001:000dd040       ?NotifyMsg_ShowMap@CGame@@QAEXPAD@Z 004de040 f   Game.obj
 0001:000dd090       ?InitDataResponseHandler@CGame@@QAEXPAD@Z 004de090 f   Game.obj
 0001:000ddd70       ?GrandMagicResult@CGame@@QAEXPADHHHHHHHH@Z 004ded70 f   Game.obj
 0001:000dfcf0       ?UseShortCut@CGame@@QAEXH@Z 004e0cf0 f   Game.obj
 0001:000dfff0       ?ShowHeldenianVictory@CGame@@QAEXF@Z 004e0ff0 f   Game.obj
 0001:000e0a80       ?DlgBoxClick_AuctionHouse@CGame@@QAEXXZ 004e1a80 f   Game.obj
 0001:000e0ec0       ?bItemDrop_GuildBank@CGame@@QAEXXZ 004e1ec0 f   Game.obj
 0001:000e1110       ?NotifyMsg_RepairAllPrice@CGame@@QAEXPAD@Z 004e2110 f   Game.obj
 0001:000e1150       ?DlgBoxClick_ExtendedSysMenu@CGame@@QAEXXZ 004e2150 f   Game.obj
 0001:000e1770       ?ShowSoccerVictory@CGame@@QAEXF@Z 004e2770 f   Game.obj
 0001:000e20b0       ?push_back@?$vector@V?$basic_string@DU?$char_traits@D@std@@V?$allocator@D@2@@std@@V?$allocator@V?$basic_string@DU?$char_traits@D@std@@V?$allocator@D@2@@std@@@2@@std@@QAEXABV?$basic_string@DU?$char_traits@D@std@@V?$allocator@D@2@@2@@Z 004e30b0 f i Game.obj
 0001:000e21c0       ??0?$unordered_map@EPBDV?$hash@E@std@@U?$equal_to@E@2@V?$allocator@U?$pair@$$CBEPBD@std@@@2@@tr1@std@@QAE@XZ 004e31c0 f i Game.obj
 0001:000e21f0       ??$insert@U?$pair@$$CBEPBD@std@@@?$_Hash@V?$_Umap_traits@EPBDV?$_Hash_compare@EV?$hash@E@std@@U?$equal_to@E@2@@std@@V?$allocator@U?$pair@$$CBEPBD@std@@@2@$0A@@tr1@std@@@std@@QAE?AU?$pair@V?$_List_iterator@V?$_List_val@U?$pair@$$CBEPBD@std@@V?$allocator@U?$pair@$$CBEPBD@std@@@2@@std@@@std@@_N@1@$$QAU?$pair@$$CBEPBD@1@@Z 004e31f0 f i Game.obj
 0001:000e2270       ??0CGame@@QAE@XZ           004e3270 f   Game.obj
 0001:000e2ac0       ?DrawObjects@CGame@@QAEXFFFFFFFF@Z 004e3ac0 f   Game.obj
 0001:000e6270       ?OnTimer@CGame@@QAEXXZ     004e7270 f   Game.obj
 0001:000e6610       ?DlgBoxPress_Inventory@CGame@@QAEHXZ 004e7610 f   Game.obj
 0001:000e6900       ?bItemDrop_ExternalScreen@CGame@@QAEXDFF@Z 004e7900 f   Game.obj
 0001:000e7180       ?InitGameSettings@CGame@@QAEXXZ 004e8180 f   Game.obj
 0001:000e7b60       ?DlgBoxClick_Guild@CGame@@QAEXXZ 004e8b60 f   Game.obj
 0001:000e8170       ?bItemDrop_IconPanel@CGame@@QAEXXZ 004e9170 f   Game.obj
 0001:000e81e0       ?_iCheckDlgBoxFocus@CGame@@QAEHD@Z 004e91e0 f   Game.obj
 0001:000e84c0       ?UpdateScreen_OnSelectCharacter@CGame@@QAEXXZ 004e94c0 f   Game.obj
 0001:000e9090       ?OnKeyUp@CGame@@QAEXI@Z    004ea090 f   Game.obj
 0001:000eabe0       ?NotifyMsgHandler@CGame@@QAEXPAD@Z 004ebbe0 f   Game.obj
 0001:000f08a0       ?DlgBoxDoubleClick_Inventory@CGame@@QAEXXZ 004f18a0 f   Game.obj
 0001:000f1190       ?GetItemName@CGame@@QAEPAV?$vector@V?$basic_string@DU?$char_traits@D@std@@V?$allocator@D@2@@std@@V?$allocator@V?$basic_string@DU?$char_traits@D@std@@V?$allocator@D@2@@std@@@2@@std@@PAVCItem@@_N@Z 004f2190 f   Game.obj
 0001:000f3770       ?GetItemName@CGame@@QAEPAV?$vector@V?$basic_string@DU?$char_traits@D@std@@V?$allocator@D@2@@std@@V?$allocator@V?$basic_string@DU?$char_traits@D@std@@V?$allocator@D@2@@std@@@2@@std@@PADKKQAEK@Z 004f4770 f   Game.obj
 0001:000f4400       ?DrawDialogBox_Bank@CGame@@QAEXXZ 004f5400 f   Game.obj
 0001:000f52d0       ?DrawDialogBox_Exchange@CGame@@QAEXXZ 004f62d0 f   Game.obj
 0001:000f68b0       ?DrawDialogBox_SubAuctionHouse@CGame@@QAEXXZ 004f78b0 f   Game.obj
 0001:000f79a0       ?DrawDialogBox_GuildBank@CGame@@QAEXXZ 004f89a0 f   Game.obj
 0001:000f8430       ??A?$unordered_map@EPBDV?$hash@E@std@@U?$equal_to@E@2@V?$allocator@U?$pair@$$CBEPBD@std@@@2@@tr1@std@@QAEAAPBDABE@Z 004f9430 f i Game.obj
 0001:000f8490       ?SetupDialogBoxes@CGame@@QAEXXZ 004f9490 f   Game.obj
 0001:000fac60       ?bInit@CGame@@QAEHPAUHWND__@@PAUHINSTANCE__@@PAD@Z 004fbc60 f   Game.obj
 0001:000fc0b0       ?GameRecvMsgHandler@CGame@@QAEXKPAD@Z 004fd0b0 f   Game.obj
 0001:000fc800       ?UpdateScreen_OnLoading@CGame@@QAEX_N@Z 004fd800 f   Game.obj
 0001:001030c0       ?_bCheckDraggingItemRelease@CGame@@QAEHD@Z 005040c0 f   Game.obj
 0001:00103150       ?CommandProcessor@CGame@@QAEXFFFFDDD@Z 00504150 f   Game.obj
 0001:00107650       ?OnGameSocketEvent@CGame@@QAEXIJ@Z 00508650 f   Game.obj
 0001:001077e0       ?UpdateScreen_OnGame@CGame@@QAEXXZ 005087e0 f   Game.obj
 0001:00109d00       ?UpdateScreen@CGame@@QAEXXZ 0050ad00 f   Game.obj
 0001:00109e60       ??0CMisc@@QAE@XZ           0050ae60 f   Misc.obj
 0001:00109e70       ??1CMisc@@UAE@XZ           0050ae70 f   Misc.obj
 0001:00109e80       ?cGetNextMoveDir@CMisc@@QAEDFFFF@Z 0050ae80 f   Misc.obj
 0001:00109f20       ?GetPoint@CMisc@@QAEXHHHHPAH00H@Z 0050af20 f   Misc.obj
 0001:0010a040       ?GetDirPoint@CMisc@@QAEXDPAH0@Z 0050b040 f   Misc.obj
 0001:0010a050       ?bCheckValidString@CMisc@@QAEHPAD@Z 0050b050 f   Misc.obj
 0001:0010a0a0       ?bCheckIMEString@CMisc@@QAEHPAD@Z 0050b0a0 f   Misc.obj
 0001:0010a0f0       ?ReplaceString@CMisc@@QAEXPADDD@Z 0050b0f0 f   Misc.obj
 0001:0010a140       ?cCalcDirection@CMisc@@QAEDFFFF@Z 0050b140 f   Misc.obj
 0001:0010a2f0       ?ColorTransfer@CMisc@@QAEXDKPAG00@Z 0050b2f0 f   Misc.obj
 0001:0010a3d0       ?bEncode@CMisc@@QAEHDPAD@Z 0050b3d0 f   Misc.obj
 0001:0010a430       ?bDecode@CMisc@@QAEHDPAD@Z 0050b430 f   Misc.obj
 0001:0010a490       ?bCheckValidName@CMisc@@QAEHPAD@Z 0050b490 f   Misc.obj
 0001:0010a560       ?_iGetFileCheckSum@CMisc@@QAEHPAD@Z 0050b560 f   Misc.obj
 0001:0010a730       ?_iConvertFileXor@CMisc@@QAEHPAD0D@Z 0050b730 f   Misc.obj
 0001:0010a8c0       ?iGetTextLengthLoc@CMisc@@QAEHPAUHDC__@@PADH@Z 0050b8c0 f   Misc.obj
 0001:0010a930       ?iGetTextLength@CMisc@@QAEHPAUHDC__@@PAD@Z 0050b930 f   Misc.obj
 0001:0010a970       ?bIsValidSSN@CMisc@@QAEHPAD@Z 0050b970 f   Misc.obj
 0001:0010aa60       ?bIsValidEmail@CMisc@@QAEHPAD@Z 0050ba60 f   Misc.obj
 0001:0010ab50       ??_ECMisc@@UAEPAXI@Z       0050bb50 f i Misc.obj
 0001:0010ab50       ??_GCMisc@@UAEPAXI@Z       0050bb50 f i Misc.obj
 0001:0010ab80       ??0CStrTok@@QAE@PAD0@Z     0050bb80 f   StrTok.obj
 0001:0010abd0       ??1CStrTok@@UAE@XZ         0050bbd0 f   StrTok.obj
 0001:0010abe0       ?_bIsSeperator@CStrTok@@QAE_NDD@Z 0050bbe0 f   StrTok.obj
 0001:0010ac30       ??_ECStrTok@@UAEPAXI@Z     0050bc30 f i StrTok.obj
 0001:0010ac30       ??_GCStrTok@@UAEPAXI@Z     0050bc30 f i StrTok.obj
 0001:0010ac60       ?pGet@CStrTok@@QAEPADXZ    0050bc60 f   StrTok.obj
 0001:0010ade8       _Netbios@4                 0050bde8 f   Netapi32:NETAPI32.dll
 0001:0010adee       _HeapFree@12               0050bdee f   kernel32:KERNEL32.dll
 0001:0010adf4       _GetProcessHeap@0          0050bdf4 f   kernel32:KERNEL32.dll
 0001:0010adfa       _CloseHandle@4             0050bdfa f   kernel32:KERNEL32.dll
 0001:0010ae00       _OutputDebugStringA@4      0050be00 f   kernel32:KERNEL32.dll
 0001:0010ae06       _SetFilePointer@16         0050be06 f   kernel32:KERNEL32.dll
 0001:0010ae0c       _WriteFile@20              0050be0c f   kernel32:KERNEL32.dll
 0001:0010ae12       _CreateFileA@28            0050be12 f   kernel32:KERNEL32.dll
 0001:0010ae18       _ReadFile@20               0050be18 f   kernel32:KERNEL32.dll
 0001:0010ae1e       _HeapAlloc@12              0050be1e f   kernel32:KERNEL32.dll
 0001:0010ae24       _lstrcpyA@8                0050be24 f   kernel32:KERNEL32.dll
 0001:0010ae2a       _WinExec@8                 0050be2a f   kernel32:KERNEL32.dll
 0001:0010ae30       _lstrlenA@4                0050be30 f   kernel32:KERNEL32.dll
 0001:0010ae36       _lstrcatA@8                0050be36 f   kernel32:KERNEL32.dll
 0001:0010ae3c       _Module32Next@8            0050be3c f   kernel32:KERNEL32.dll
 0001:0010ae42       _FreeLibrary@4             0050be42 f   kernel32:KERNEL32.dll
 0001:0010ae48       _Module32First@8           0050be48 f   kernel32:KERNEL32.dll
 0001:0010ae4e       _CreateToolhelp32Snapshot@8 0050be4e f   kernel32:KERNEL32.dll
 0001:0010ae54       _GetCurrentProcessId@0     0050be54 f   kernel32:KERNEL32.dll
 0001:0010ae5a       _ReleaseMutex@4            0050be5a f   kernel32:KERNEL32.dll
 0001:0010ae60       _CreateMutexA@12           0050be60 f   kernel32:KERNEL32.dll
 0001:0010ae66       _OpenMutexA@12             0050be66 f   kernel32:KERNEL32.dll
 0001:0010ae6c       _GetProcAddress@8          0050be6c f   kernel32:KERNEL32.dll
 0001:0010ae72       _LoadLibraryA@4            0050be72 f   kernel32:KERNEL32.dll
 0001:0010ae78       _SetProcessAffinityMask@8  0050be78 f   kernel32:KERNEL32.dll
 0001:0010ae7e       _GetProcessAffinityMask@12 0050be7e f   kernel32:KERNEL32.dll
 0001:0010ae84       _GetCurrentProcess@0       0050be84 f   kernel32:KERNEL32.dll
 0001:0010ae8a       _GlobalFree@4              0050be8a f   kernel32:KERNEL32.dll
 0001:0010ae90       _GetCommandLineW@0         0050be90 f   kernel32:KERNEL32.dll
 0001:0010ae96       _GetFileSize@8             0050be96 f   kernel32:KERNEL32.dll
 0001:0010ae9c       _GetLocalTime@4            0050be9c f   kernel32:KERNEL32.dll
 0001:0010aea2       _Sleep@4                   0050bea2 f   kernel32:KERNEL32.dll
 0001:0010aea8       _DrawTextA@20              0050bea8 f   user32:USER32.dll
 0001:0010aeae       _wsprintfA                 0050beae f   user32:USER32.dll
 0001:0010aeb4       _ReleaseDC@8               0050beb4 f   user32:USER32.dll
 0001:0010aeba       _GetDC@4                   0050beba f   user32:USER32.dll
 0001:0010aec0       _SetWindowPos@28           0050bec0 f   user32:USER32.dll
 0001:0010aec6       _GetSystemMetrics@4        0050bec6 f   user32:USER32.dll
 0001:0010aecc       _SetRect@20                0050becc f   user32:USER32.dll
 0001:0010aed2       _GetCursorPos@4            0050bed2 f   user32:USER32.dll
 0001:0010aed8       _UpdateWindow@4            0050bed8 f   user32:USER32.dll
 0001:0010aede       _ShowWindow@8              0050bede f   user32:USER32.dll
 0001:0010aee4       _CreateWindowExA@48        0050bee4 f   user32:USER32.dll
 0001:0010aeea       _WaitMessage@0             0050beea f   user32:USER32.dll
 0001:0010aef0       _DispatchMessageA@4        0050bef0 f   user32:USER32.dll
 0001:0010aef6       _GetMessageA@16            0050bef6 f   user32:USER32.dll
 0001:0010aefc       _PeekMessageA@20           0050befc f   user32:USER32.dll
 0001:0010af02       _TranslateMessage@4        0050bf02 f   user32:USER32.dll
 0001:0010af08       _PostMessageA@16           0050bf08 f   user32:USER32.dll
 0001:0010af0e       _CallNextHookEx@16         0050bf0e f   user32:USER32.dll
 0001:0010af14       _UnhookWindowsHookEx@4     0050bf14 f   user32:USER32.dll
 0001:0010af1a       _SetWindowsHookExA@16      0050bf1a f   user32:USER32.dll
 0001:0010af20       _PostQuitMessage@4         0050bf20 f   user32:USER32.dll
 0001:0010af26       _MessageBoxA@16            0050bf26 f   user32:USER32.dll
 0001:0010af2c       _SetCursor@4               0050bf2c f   user32:USER32.dll
 0001:0010af32       _DefWindowProcA@16         0050bf32 f   user32:USER32.dll
 0001:0010af38       _RegisterClassA@4          0050bf38 f   user32:USER32.dll
 0001:0010af3e       _LoadCursorA@8             0050bf3e f   user32:USER32.dll
 0001:0010af44       _SendMessageA@16           0050bf44 f   user32:USER32.dll
 0001:0010af4a       _GetAsyncKeyState@4        0050bf4a f   user32:USER32.dll
 0001:0010af50       _FlashWindow@8             0050bf50 f   user32:USER32.dll
 0001:0010af56       _DeleteObject@4            0050bf56 f   gdi32:GDI32.dll
 0001:0010af5c       _CreateFontA@56            0050bf5c f   gdi32:GDI32.dll
 0001:0010af62       _SetPixel@16               0050bf62 f   gdi32:GDI32.dll
 0001:0010af68       _GetPixel@12               0050bf68 f   gdi32:GDI32.dll
 0001:0010af6e       _TextOutA@20               0050bf6e f   gdi32:GDI32.dll
 0001:0010af74       _SetTextColor@8            0050bf74 f   gdi32:GDI32.dll
 0001:0010af7a       _SetBkColor@8              0050bf7a f   gdi32:GDI32.dll
 0001:0010af80       _SetBkMode@8               0050bf80 f   gdi32:GDI32.dll
 0001:0010af86       _SelectObject@8            0050bf86 f   gdi32:GDI32.dll
 0001:0010af8c       _DeleteDC@4                0050bf8c f   gdi32:GDI32.dll
 0001:0010af92       _GetDIBits@28              0050bf92 f   gdi32:GDI32.dll
 0001:0010af98       _BitBlt@36                 0050bf98 f   gdi32:GDI32.dll
 0001:0010af9e       _CreateCompatibleDC@4      0050bf9e f   gdi32:GDI32.dll
 0001:0010afa4       _CreateCompatibleBitmap@12 0050bfa4 f   gdi32:GDI32.dll
 0001:0010afaa       _GetDeviceCaps@8           0050bfaa f   gdi32:GDI32.dll
 0001:0010afb0       _SetDIBitsToDevice@48      0050bfb0 f   gdi32:GDI32.dll
 0001:0010afb6       _GetTextExtentPoint32A@16  0050bfb6 f   gdi32:GDI32.dll
 0001:0010afbc       _RegCloseKey@4             0050bfbc f   advapi32:ADVAPI32.dll
 0001:0010afc2       _RegQueryValueA@16         0050bfc2 f   advapi32:ADVAPI32.dll
 0001:0010afc8       _RegOpenKeyExA@20          0050bfc8 f   advapi32:ADVAPI32.dll
 0001:0010afce       _RegQueryValueExA@24       0050bfce f   advapi32:ADVAPI32.dll
 0001:0010afd4       _RegCreateKeyExA@36        0050bfd4 f   advapi32:ADVAPI32.dll
 0001:0010afda       _RegSetValueExA@24         0050bfda f   advapi32:ADVAPI32.dll
 0001:0010afe0       _ShellExecuteA@24          0050bfe0 f   shell32:SHELL32.dll
 0001:0010afe6       _CommandLineToArgvW@8      0050bfe6 f   shell32:SHELL32.dll
 0001:0010afec       _DirectDrawCreateEx@16     0050bfec f   DDRAW:DDRAW.dll
 0001:0010b070       _DirectInputCreateA@16     0050c070 f   DINPUT:DINPUT.dll
 0001:0010b076       _DirectSoundCreate@12      0050c076 f   DSOUND:DSOUND.dll
 0001:0010b07c       ___FindHackingDll__        0050c07c f   search:search.dll
 0001:0010b082       _timeGetTime@0             0050c082 f   WINMM:WINMM.dll
 0001:0010b088       _timeSetEvent@20           0050c088 f   WINMM:WINMM.dll
 0001:0010b08e       _timeBeginPeriod@4         0050c08e f   WINMM:WINMM.dll
 0001:0010b094       _timeGetDevCaps@8          0050c094 f   WINMM:WINMM.dll
 0001:0010b09a       _timeEndPeriod@4           0050c09a f   WINMM:WINMM.dll
 0001:0010b0a0       _timeKillEvent@4           0050c0a0 f   WINMM:WINMM.dll
 0001:0010b0a6       _WSACleanup@0              0050c0a6 f   WSOCK32:WSOCK32.dll
 0001:0010b0ac       _WSAStartup@8              0050c0ac f   WSOCK32:WSOCK32.dll
 0001:0010b0b2       _setsockopt@20             0050c0b2 f   WSOCK32:WSOCK32.dll
 0001:0010b0b8       _WSAGetLastError@0         0050c0b8 f   WSOCK32:WSOCK32.dll
 0001:0010b0be       _connect@12                0050c0be f   WSOCK32:WSOCK32.dll
 0001:0010b0c4       _htons@4                   0050c0c4 f   WSOCK32:WSOCK32.dll
 0001:0010b0ca       _gethostbyname@4           0050c0ca f   WSOCK32:WSOCK32.dll
 0001:0010b0d0       _socket@12                 0050c0d0 f   WSOCK32:WSOCK32.dll
 0001:0010b0d6       _closesocket@4             0050c0d6 f   WSOCK32:WSOCK32.dll
 0001:0010b0dc       _WSAAsyncSelect@16         0050c0dc f   WSOCK32:WSOCK32.dll
 0001:0010b0e2       _inet_addr@4               0050c0e2 f   WSOCK32:WSOCK32.dll
 0001:0010b0e8       _recv@16                   0050c0e8 f   WSOCK32:WSOCK32.dll
 0001:0010b0ee       _send@16                   0050c0ee f   WSOCK32:WSOCK32.dll
 0001:0010b0f4       _listen@8                  0050c0f4 f   WSOCK32:WSOCK32.dll
 0001:0010b0fa       _bind@12                   0050c0fa f   WSOCK32:WSOCK32.dll
 0001:0010b100       _accept@12                 0050c100 f   WSOCK32:WSOCK32.dll
 0001:0010b106       _shutdown@8                0050c106 f   WSOCK32:WSOCK32.dll
 0001:0010b10c       _inet_ntoa@4               0050c10c f   WSOCK32:WSOCK32.dll
 0001:0010b112       _getpeername@12            0050c112 f   WSOCK32:WSOCK32.dll
 0001:0010b118       ??0logic_error@std@@QAE@PBD@Z 0050c118 f i libcpmt:xthrow.obj
 0001:0010b136       ??1logic_error@std@@UAE@XZ 0050c136 f i libcpmt:xthrow.obj
 0001:0010b13b       ??0invalid_argument@std@@QAE@PBD@Z 0050c13b f i libcpmt:xthrow.obj
 0001:0010b15f       ??1invalid_argument@std@@UAE@XZ 0050c15f f i libcpmt:xthrow.obj
 0001:0010b164       ??0length_error@std@@QAE@PBD@Z 0050c164 f i libcpmt:xthrow.obj
 0001:0010b188       ??1length_error@std@@UAE@XZ 0050c188 f i libcpmt:xthrow.obj
 0001:0010b18d       ??0out_of_range@std@@QAE@PBD@Z 0050c18d f i libcpmt:xthrow.obj
 0001:0010b1b1       ??1out_of_range@std@@UAE@XZ 0050c1b1 f i libcpmt:xthrow.obj
 0001:0010b1b6       ??0overflow_error@std@@QAE@PBD@Z 0050c1b6 f i libcpmt:xthrow.obj
 0001:0010b1da       ??1overflow_error@std@@UAE@XZ 0050c1da f i libcpmt:xthrow.obj
 0001:0010b1df       ?_Xinvalid_argument@std@@YAXPBD@Z 0050c1df f   libcpmt:xthrow.obj
 0001:0010b20f       ??0logic_error@std@@QAE@ABV01@@Z 0050c20f f i libcpmt:xthrow.obj
 0001:0010b22c       ?_Xlength_error@std@@YAXPBD@Z 0050c22c f   libcpmt:xthrow.obj
 0001:0010b25c       ??0length_error@std@@QAE@ABV01@@Z 0050c25c f i libcpmt:xthrow.obj
 0001:0010b279       ?_Xout_of_range@std@@YAXPBD@Z 0050c279 f   libcpmt:xthrow.obj
 0001:0010b2a9       ??0out_of_range@std@@QAE@ABV01@@Z 0050c2a9 f i libcpmt:xthrow.obj
 0001:0010b2c6       ?_Xoverflow_error@std@@YAXPBD@Z 0050c2c6 f   libcpmt:xthrow.obj
 0001:0010b2f6       ?_Xruntime_error@std@@YAXPBD@Z 0050c2f6 f   libcpmt:xthrow.obj
 0001:0010b326       ??_Elogic_error@std@@UAEPAXI@Z 0050c326 f i libcpmt:xthrow.obj
 0001:0010b326       ??_Glogic_error@std@@UAEPAXI@Z 0050c326 f i libcpmt:xthrow.obj
 0001:0010b347       ??_Einvalid_argument@std@@UAEPAXI@Z 0050c347 f i libcpmt:xthrow.obj
 0001:0010b347       ??_Ginvalid_argument@std@@UAEPAXI@Z 0050c347 f i libcpmt:xthrow.obj
 0001:0010b368       ??_Glength_error@std@@UAEPAXI@Z 0050c368 f i libcpmt:xthrow.obj
 0001:0010b368       ??_Elength_error@std@@UAEPAXI@Z 0050c368 f i libcpmt:xthrow.obj
 0001:0010b389       ??_Gout_of_range@std@@UAEPAXI@Z 0050c389 f i libcpmt:xthrow.obj
 0001:0010b389       ??_Eout_of_range@std@@UAEPAXI@Z 0050c389 f i libcpmt:xthrow.obj
 0001:0010b3aa       ??_Goverflow_error@std@@UAEPAXI@Z 0050c3aa f i libcpmt:xthrow.obj
 0001:0010b3aa       ??_Eoverflow_error@std@@UAEPAXI@Z 0050c3aa f i libcpmt:xthrow.obj
 0001:0010b3cb       ??0invalid_argument@std@@QAE@ABV01@@Z 0050c3cb f i libcpmt:xthrow.obj
 0001:0010b3e8       ??0overflow_error@std@@QAE@ABV01@@Z 0050c3e8 f i libcpmt:xthrow.obj
 0001:0010b405       ??_U@YAPAXI@Z              0050c405 f   libcpmt:newaop.obj
 0001:0010b410       __Tolower                  0050c410 f   libcpmt:_tolower.obj
 0001:0010b51d       __Getctype                 0050c51d f   libcpmt:_tolower.obj
 0001:0010b57d       ??0_Init_locks@std@@QAE@XZ 0050c57d f   libcpmt:xlock.obj
 0001:0010b5ae       ??1_Init_locks@std@@QAE@XZ 0050c5ae f   libcpmt:xlock.obj
 0001:0010b5d7       ?_Init_locks_ctor@_Init_locks@std@@CAXPAV12@@Z 0050c5d7 f   libcpmt:xlock.obj
 0001:0010b600       ?_Init_locks_dtor@_Init_locks@std@@CAXPAV12@@Z 0050c600 f   libcpmt:xlock.obj
 0001:0010b629       ??0_Lockit@std@@QAE@XZ     0050c629 f   libcpmt:xlock.obj
 0001:0010b640       ??0_Lockit@std@@QAE@H@Z    0050c640 f   libcpmt:xlock.obj
 0001:0010b668       ??1_Lockit@std@@QAE@XZ     0050c668 f   libcpmt:xlock.obj
 0001:0010b67f       ?_Lockit_ctor@_Lockit@std@@CAXPAV12@@Z 0050c67f f   libcpmt:xlock.obj
 0001:0010b68b       ?_Lockit_ctor@_Lockit@std@@CAXPAV12@H@Z 0050c68b f   libcpmt:xlock.obj
 0001:0010b6ac       ?_Lockit_dtor@_Lockit@std@@CAXPAV12@@Z 0050c6ac f   libcpmt:xlock.obj
 0001:0010b6c7       ?_Lockit_ctor@_Lockit@std@@SAXH@Z 0050c6c7 f   libcpmt:xlock.obj
 0001:0010b6e3       ?_Lockit_dtor@_Lockit@std@@SAXH@Z 0050c6e3 f   libcpmt:xlock.obj
 0001:0010b6ff       ??0id@locale@std@@QAE@I@Z  0050c6ff f i libcpmt:locale0.obj
 0001:0010b70f       ??0locale@std@@QAE@W4_Uninitialized@1@@Z 0050c70f f i libcpmt:locale0.obj
 0001:0010b714       ??0locale@std@@AAE@PAV_Locimp@01@@Z 0050c714 f i libcpmt:locale0.obj
 0001:0010b724       ??0_Fac_node@std@@QAE@PAU01@PAVfacet@locale@1@@Z 0050c724 f i libcpmt:locale0.obj
 0001:0010b73a       ??1_Fac_node@std@@QAE@XZ   0050c73a f i libcpmt:locale0.obj
 0001:0010b74f       ??_G_Fac_node@std@@QAEPAXI@Z 0050c74f f i libcpmt:locale0.obj
 0001:0010b770       ?_Facet_Register@facet@locale@std@@CAXPAV123@@Z 0050c770 f   libcpmt:locale0.obj
 0001:0010b79a       __Deletegloballocale       0050c79a f   libcpmt:locale0.obj
 0001:0010b7e7       ?_Getgloballocale@locale@std@@CAPAV_Locimp@12@XZ 0050c7e7 f   libcpmt:locale0.obj
 0001:0010b7ed       ?_Setgloballocale@locale@std@@CAXPAX@Z 0050c7ed f   libcpmt:locale0.obj
 0001:0010b817       ?_Locimp_dtor@_Locimp@locale@std@@CAXPAV123@@Z 0050c817 f   libcpmt:locale0.obj
 0001:0010b877       ?_Empty@?$_Yarn@D@std@@QBE_NXZ 0050c877 f i libcpmt:locale0.obj
 0001:0010b87f       ?_C_str@?$_Yarn@D@std@@QBEPBDXZ 0050c87f f i libcpmt:locale0.obj
 0001:0010b8d7       ??1_Fac_tidy_reg_t@std@@QAE@XZ 0050c8d7 f i libcpmt:locale0.obj
 0001:0010b925       ?_Locinfo_dtor@_Locinfo@std@@SAXPAV12@@Z 0050c925 f   libcpmt:locale0.obj
 0001:0010b940       ??4?$_Yarn@D@std@@QAEAAV01@PBD@Z 0050c940 f i libcpmt:locale0.obj
 0001:0010b998       ?_Locinfo_ctor@_Locinfo@std@@SAXPAV12@PBD@Z 0050c998 f   libcpmt:locale0.obj
 0001:0010b9e5       ??0?$_Yarn@D@std@@QAE@PBD@Z 0050c9e5 f i libcpmt:locale0.obj
 0001:0010ba03       ??0_Locimp@locale@std@@AAE@_N@Z 0050ca03 f i libcpmt:locale0.obj
 0001:0010ba42       ??1_Locimp@locale@std@@MAE@XZ 0050ca42 f i libcpmt:locale0.obj
 0001:0010ba85       ??_G_Locimp@locale@std@@MAEPAXI@Z 0050ca85 f i libcpmt:locale0.obj
 0001:0010ba85       ??_E_Locimp@locale@std@@MAEPAXI@Z 0050ca85 f i libcpmt:locale0.obj
 0001:0010baa6       ?_Init@locale@std@@CAPAV_Locimp@12@XZ 0050caa6 f   libcpmt:locale0.obj
 0001:0010bb35       ?classic@locale@std@@SAABV12@XZ 0050cb35 f   libcpmt:locale0.obj
 0001:0010bb40       ?empty@locale@std@@SA?AV12@XZ 0050cb40 f   libcpmt:locale0.obj
 0001:0010bb71       ??0error_category@std@@QAE@XZ 0050cb71 f i libcpmt:syserror.obj
 0001:0010bb7a       ??1error_category@std@@UAE@XZ 0050cb7a f i libcpmt:syserror.obj
 0001:0010bb81       ??8error_category@std@@QBE_NABV01@@Z 0050cb81 f i libcpmt:syserror.obj
 0001:0010bb92       ??_Gerror_category@std@@UAEPAXI@Z 0050cb92 f i libcpmt:syserror.obj
 0001:0010bb92       ??_Eerror_category@std@@UAEPAXI@Z 0050cb92 f i libcpmt:syserror.obj
 0001:0010bbb4       ?value@error_code@std@@QBEHXZ 0050cbb4 f i libcpmt:syserror.obj
 0001:0010bbb7       ?category@error_code@std@@QBEABVerror_category@2@XZ 0050cbb7 f i libcpmt:syserror.obj
 0001:0010bbbb       ??0error_condition@std@@QAE@HABVerror_category@1@@Z 0050cbbb f i libcpmt:syserror.obj
 0001:0010bbd1       ?value@error_condition@std@@QBEHXZ 0050cbd1 f i libcpmt:syserror.obj
 0001:0010bbd4       ?category@error_condition@std@@QBEABVerror_category@2@XZ 0050cbd4 f i libcpmt:syserror.obj
 0001:0010bbd8       ??8error_condition@std@@QBE_NABV01@@Z 0050cbd8 f i libcpmt:syserror.obj
 0001:0010bbf9       ?default_error_condition@error_category@std@@UBE?AVerror_condition@2@H@Z 0050cbf9 f i libcpmt:syserror.obj
 0001:0010bc0d       ?equivalent@error_category@std@@UBE_NHABVerror_condition@2@@Z 0050cc0d f i libcpmt:syserror.obj
 0001:0010bc2e       ?equivalent@error_category@std@@UBE_NABVerror_code@2@H@Z 0050cc2e f i libcpmt:syserror.obj
 0001:0010bc4d       ??0_Generic_error_category@std@@QAE@XZ 0050cc4d f i libcpmt:syserror.obj
 0001:0010bc5d       ?name@_Generic_error_category@std@@UBEPBDXZ 0050cc5d f i libcpmt:syserror.obj
 0001:0010bc61       ??1_Generic_error_category@std@@UAE@XZ 0050cc61 f i libcpmt:syserror.obj
 0001:0010bc68       ??0_Iostream_error_category@std@@QAE@XZ 0050cc68 f i libcpmt:syserror.obj
 0001:0010bc78       ?name@_Iostream_error_category@std@@UBEPBDXZ 0050cc78 f i libcpmt:syserror.obj
 0001:0010bc7c       ??1_Iostream_error_category@std@@UAE@XZ 0050cc7c f i libcpmt:syserror.obj
 0001:0010bc83       ??0_System_error_category@std@@QAE@XZ 0050cc83 f i libcpmt:syserror.obj
 0001:0010bc9a       ?name@_System_error_category@std@@UBEPBDXZ 0050cc9a f i libcpmt:syserror.obj
 0001:0010bc9e       ?default_error_condition@_System_error_category@std@@UBE?AVerror_condition@2@H@Z 0050cc9e f i libcpmt:syserror.obj
 0001:0010bcb2       ??1_System_error_category@std@@UAE@XZ 0050ccb2 f i libcpmt:syserror.obj
 0001:0010bcb9       ?generic_category@std@@YAABVerror_category@1@XZ 0050ccb9 f   libcpmt:syserror.obj
 0001:0010bcbf       ?iostream_category@std@@YAABVerror_category@1@XZ 0050ccbf f   libcpmt:syserror.obj
 0001:0010bcc5       ?system_category@std@@YAABVerror_category@1@XZ 0050ccc5 f   libcpmt:syserror.obj
 0001:0010bccb       ??_G_Generic_error_category@std@@UAEPAXI@Z 0050cccb f i libcpmt:syserror.obj
 0001:0010bccb       ??_E_Generic_error_category@std@@UAEPAXI@Z 0050cccb f i libcpmt:syserror.obj
 0001:0010bced       ??_E_Iostream_error_category@std@@UAEPAXI@Z 0050cced f i libcpmt:syserror.obj
 0001:0010bced       ??_G_Iostream_error_category@std@@UAEPAXI@Z 0050cced f i libcpmt:syserror.obj
 0001:0010bd0f       ??_G_System_error_category@std@@UAEPAXI@Z 0050cd0f f i libcpmt:syserror.obj
 0001:0010bd0f       ??_E_System_error_category@std@@UAEPAXI@Z 0050cd0f f i libcpmt:syserror.obj
 0001:0010bd31       ?message@_Generic_error_category@std@@UBE?AV?$basic_string@DU?$char_traits@D@std@@V?$allocator@D@2@@2@H@Z 0050cd31 f i libcpmt:syserror.obj
 0001:0010bd54       ?message@_Iostream_error_category@std@@UBE?AV?$basic_string@DU?$char_traits@D@std@@V?$allocator@D@2@@2@H@Z 0050cd54 f i libcpmt:syserror.obj
 0001:0010bd84       ?_Callfns@ios_base@std@@AAEXW4event@12@@Z 0050cd84 f i libcpmt:ios.obj
 0001:0010bdab       ?_Tidy@ios_base@std@@AAEXXZ 0050cdab f i libcpmt:ios.obj
 0001:0010bdef       ?_Addstd@ios_base@std@@SAXPAV12@@Z 0050cdef f   libcpmt:ios.obj
 0001:0010be44       ?_Ios_base_dtor@ios_base@std@@CAXPAV12@@Z 0050ce44 f   libcpmt:ios.obj
 0001:0010be82       ??0bad_function_call@tr1@std@@QAE@PBD@Z 0050ce82 f i libcpmt:badfunction.obj
 0001:0010be98       ?what@bad_function_call@tr1@std@@UBEPBDXZ 0050ce98 f i libcpmt:badfunction.obj
 0001:0010be9e       ??1bad_function_call@tr1@std@@UAE@XZ 0050ce9e f i libcpmt:badfunction.obj
 0001:0010bea3       ?_Xfunc@tr1@std@@YAXXZ     0050cea3 f   libcpmt:badfunction.obj
 0001:0010bec9       ??0bad_function_call@tr1@std@@QAE@ABV012@@Z 0050cec9 f i libcpmt:badfunction.obj
 0001:0010bee6       ??_Ebad_function_call@tr1@std@@UAEPAXI@Z 0050cee6 f i libcpmt:badfunction.obj
 0001:0010bee6       ??_Gbad_function_call@tr1@std@@UAEPAXI@Z 0050cee6 f i libcpmt:badfunction.obj
 0001:0010bf07       __Toupper                  0050cf07 f   libcpmt:_toupper.obj
 0001:0010c019       ??0_Mutex@std@@QAE@XZ      0050d019 f   libcpmt:xmutex.obj
 0001:0010c033       ??1_Mutex@std@@QAE@XZ      0050d033 f   libcpmt:xmutex.obj
 0001:0010c04a       ?_Lock@_Mutex@std@@QAEXXZ  0050d04a f   libcpmt:xmutex.obj
 0001:0010c053       ?_Unlock@_Mutex@std@@QAEXXZ 0050d053 f   libcpmt:xmutex.obj
 0001:0010c05c       ?_Mutex_ctor@_Mutex@std@@CAXPAV12@@Z 0050d05c f   libcpmt:xmutex.obj
 0001:0010c077       ?_Mutex_dtor@_Mutex@std@@CAXPAV12@@Z 0050d077 f   libcpmt:xmutex.obj
 0001:0010c093       ?_Mutex_Lock@_Mutex@std@@CAXPAV12@@Z 0050d093 f   libcpmt:xmutex.obj
 0001:0010c0a5       ?_Mutex_Unlock@_Mutex@std@@CAXPAV12@@Z 0050d0a5 f   libcpmt:xmutex.obj
 0001:0010c0b7       ?uncaught_exception@std@@YA_NXZ 0050d0b7 f   libcpmt:uncaught.obj
 0001:0010c0bc       __Once                     0050d0bc f   libcpmt:xmtx.obj
 0001:0010c0f7       __Mtxinit                  0050d0f7 f   libcpmt:xmtx.obj
 0001:0010c107       __Mtxdst                   0050d107 f   libcpmt:xmtx.obj
 0001:0010c117       __Mtxlock                  0050d117 f   libcpmt:xmtx.obj
 0001:0010c127       __Mtxunlock                0050d127 f   libcpmt:xmtx.obj
 0001:0010c137       ?_Atexit@@YAXP6AXXZ@Z      0050d137 f   libcpmt:iosptrs.obj
 0001:0010c169       ??1_Init_atexit@@QAE@XZ    0050d169 f i libcpmt:iosptrs.obj
 0001:0010c1a0       _memcpy                    0050d1a0 f   LIBCMT:memcpy.obj
 0001:0010c501       ?name@type_info@@QBEPBDPAU__type_info_node@@@Z 0050d501 f   LIBCMT:typinfo.obj
 0001:0010c515       ??1type_info@@UAE@XZ       0050d515 f   LIBCMT:typinfo.obj
 0001:0010c525       ??_Gtype_info@@UAEPAXI@Z   0050d525 f i LIBCMT:typinfo.obj
 0001:0010c525       ??_Etype_info@@UAEPAXI@Z   0050d525 f i LIBCMT:typinfo.obj
 0001:0010c546       ?_name_internal_method@type_info@@QBEPBDPAU__type_info_node@@@Z 0050d546 f   LIBCMT:typinfo.obj
 0001:0010c55a       ?_type_info_dtor_internal_method@type_info@@QAEXXZ 0050d55a f   LIBCMT:typinfo.obj
 0001:0010c564       ??8type_info@@QBE_NABV0@@Z 0050d564 f   LIBCMT:typinfo.obj
 0001:0010c584       ??9type_info@@QBE_NABV0@@Z 0050d584 f   LIBCMT:typinfo.obj
 0001:0010c5a5       ?before@type_info@@QBEHABV1@@Z 0050d5a5 f   LIBCMT:typinfo.obj
 0001:0010c5c9       ?raw_name@type_info@@QBEPBDXZ 0050d5c9 f   LIBCMT:typinfo.obj
 0001:0010c5cd       ??0type_info@@AAE@ABV0@@Z  0050d5cd f   LIBCMT:typinfo.obj
 0001:0010c5d8       ??4type_info@@AAEAAV0@ABV0@@Z 0050d5d8 f   LIBCMT:typinfo.obj
 0001:0010c5dd       ??3@YAXPAX@Z               0050d5dd f   LIBCMT:delete.obj
 0001:0010c600       _strchr                    0050d600 f   LIBCMT:strchr.obj
 0001:0010c606       ___from_strstr_to_strchr   0050d606     LIBCMT:strchr.obj
 0001:0010c6c0       _strstr                    0050d6c0 f   LIBCMT:strstr.obj
 0001:0010c746       __fclose_nolock            0050d746 f   LIBCMT:fclose.obj
 0001:0010c7b3       _fclose                    0050d7b3 f   LIBCMT:fclose.obj
 0001:0010c827       _sprintf                   0050d827 f   LIBCMT:sprintf.obj
 0001:0010c8ab       __sprintf_l                0050d8ab f   LIBCMT:sprintf.obj
 0001:0010c8c7       _sprintf_s                 0050d8c7 f   LIBCMT:sprintf.obj
 0001:0010c8e5       __sprintf_s_l              0050d8e5 f   LIBCMT:sprintf.obj
 0001:0010c904       __snprintf_s               0050d904 f   LIBCMT:sprintf.obj
 0001:0010c925       __snprintf_s_l             0050d925 f   LIBCMT:sprintf.obj
 0001:0010c947       __sprintf_p                0050d947 f   LIBCMT:sprintf.obj
 0001:0010c965       __sprintf_p_l              0050d965 f   LIBCMT:sprintf.obj
 0001:0010c984       __scprintf                 0050d984 f   LIBCMT:sprintf.obj
 0001:0010c999       __scprintf_p               0050d999 f   LIBCMT:sprintf.obj
 0001:0010c9ae       __scprintf_l               0050d9ae f   LIBCMT:sprintf.obj
 0001:0010c9c7       __scprintf_p_l             0050d9c7 f   LIBCMT:sprintf.obj
 0001:0010c9e0       _fgets                     0050d9e0 f   LIBCMT:fgets.obj
 0001:0010cb18       __fsopen                   0050db18 f   LIBCMT:fopen.obj
 0001:0010cbd4       _fopen                     0050dbd4 f   LIBCMT:fopen.obj
 0001:0010cbeb       _fopen_s                   0050dbeb f   LIBCMT:fopen.obj
 0001:0010cc32       @__security_check_cookie@4 0050dc32 f   LIBCMT:secchk.obj
 0001:0010cc50       __alloca_probe             0050dc50     LIBCMT:chkstk.obj
 0001:0010cc50       __chkstk                   0050dc50 f   LIBCMT:chkstk.obj
 0001:0010cc80       _strncpy                   0050dc80 f   LIBCMT:strncpy.obj
 0001:0010cda4       ??0exception@std@@QAE@XZ   0050dda4 f   LIBCMT:stdexcpt.obj
 0001:0010cdb5       ??0exception@std@@QAE@ABQBDH@Z 0050ddb5 f   LIBCMT:stdexcpt.obj
 0001:0010cdd2       ?what@exception@std@@UBEPBDXZ 0050ddd2 f   LIBCMT:stdexcpt.obj
 0001:0010cddf       ?_Copy_str@exception@std@@AAEXPBD@Z 0050dddf f   LIBCMT:stdexcpt.obj
 0001:0010ce1f       ?_Tidy@exception@std@@AAEXXZ 0050de1f f   LIBCMT:stdexcpt.obj
 0001:0010ce3d       ??0exception@std@@QAE@ABQBD@Z 0050de3d f   LIBCMT:stdexcpt.obj
 0001:0010ce64       ??4exception@std@@QAEAAV01@ABV01@@Z 0050de64 f   LIBCMT:stdexcpt.obj
 0001:0010ce99       ??1exception@std@@UAE@XZ   0050de99 f   LIBCMT:stdexcpt.obj
 0001:0010cea4       ??0bad_cast@std@@QAE@PBD@Z 0050dea4 f   LIBCMT:stdexcpt.obj
 0001:0010cec2       ??1bad_cast@std@@UAE@XZ    0050dec2 f   LIBCMT:stdexcpt.obj
 0001:0010cecd       ??0bad_typeid@std@@QAE@PBD@Z 0050decd f   LIBCMT:stdexcpt.obj
 0001:0010ceeb       ??1bad_typeid@std@@UAE@XZ  0050deeb f   LIBCMT:stdexcpt.obj
 0001:0010cef6       ??0__non_rtti_object@std@@QAE@PBD@Z 0050def6 f   LIBCMT:stdexcpt.obj
 0001:0010cf13       ??1__non_rtti_object@std@@UAE@XZ 0050df13 f   LIBCMT:stdexcpt.obj
 0001:0010cf1e       ??_Gexception@std@@UAEPAXI@Z 0050df1e f i LIBCMT:stdexcpt.obj
 0001:0010cf1e       ??_Eexception@std@@UAEPAXI@Z 0050df1e f i LIBCMT:stdexcpt.obj
 0001:0010cf45       ??0exception@std@@QAE@ABV01@@Z 0050df45 f   LIBCMT:stdexcpt.obj
 0001:0010cf6a       ??_Ebad_cast@std@@UAEPAXI@Z 0050df6a f i LIBCMT:stdexcpt.obj
 0001:0010cf6a       ??_Gbad_cast@std@@UAEPAXI@Z 0050df6a f i LIBCMT:stdexcpt.obj
 0001:0010cf91       ??0bad_cast@std@@QAE@ABV01@@Z 0050df91 f   LIBCMT:stdexcpt.obj
 0001:0010cfae       ??_Ebad_typeid@std@@UAEPAXI@Z 0050dfae f i LIBCMT:stdexcpt.obj
 0001:0010cfae       ??_Gbad_typeid@std@@UAEPAXI@Z 0050dfae f i LIBCMT:stdexcpt.obj
 0001:0010cfd5       ??0bad_typeid@std@@QAE@ABV01@@Z 0050dfd5 f   LIBCMT:stdexcpt.obj
 0001:0010cff2       ??_E__non_rtti_object@std@@UAEPAXI@Z 0050dff2 f i LIBCMT:stdexcpt.obj
 0001:0010cff2       ??_G__non_rtti_object@std@@UAEPAXI@Z 0050dff2 f i LIBCMT:stdexcpt.obj
 0001:0010d019       ??0__non_rtti_object@std@@QAE@ABV01@@Z 0050e019 f   LIBCMT:stdexcpt.obj
 0001:0010d040       _memmove                   0050e040 f   LIBCMT:memmove.obj
 0001:0010d3a1       ??0bad_alloc@std@@QAE@XZ   0050e3a1 f i LIBCMT:new.obj
 0001:0010d3c7       ??2@YAPAXI@Z               0050e3c7 f   LIBCMT:new.obj
 0001:0010d447       __CxxThrowException@8      0050e447 f   LIBCMT:throw.obj
 0001:0010d493       __cfltcvt_init             0050e493 f   LIBCMT:_fpinit_.obj
 0001:0010d4f3       ___setfflag                0050e4f3 f   LIBCMT:_fpinit_.obj
 0001:0010d508       __fpmath                   0050e508 f   LIBCMT:_fpinit_.obj
 0001:0010d521       ?_JumpToContinuation@@YGXPAXPAUEHRegistrationNode@@@Z 0050e521 f   LIBCMT:_trnsctrl_.obj
 0001:0010d553       ?_CallMemberFunction0@@YGXPAX0@Z 0050e553 f   LIBCMT:_trnsctrl_.obj
 0001:0010d55a       ?_CallMemberFunction1@@YGXPAX00@Z 0050e55a f   LIBCMT:_trnsctrl_.obj
 0001:0010d561       ?_CallMemberFunction2@@YGXPAX00H@Z 0050e561 f   LIBCMT:_trnsctrl_.obj
 0001:0010d568       ?_UnwindNestedFrames@@YGXPAUEHRegistrationNode@@PAUEHExceptionRecord@@@Z 0050e568 f   LIBCMT:_trnsctrl_.obj
 0001:0010d5bc       ___CxxFrameHandler         0050e5bc f   LIBCMT:_trnsctrl_.obj
 0001:0010d5f2       ___CxxFrameHandler3        0050e5f2 f   LIBCMT:_trnsctrl_.obj
 0001:0010d628       ___CxxFrameHandler2        0050e628 f   LIBCMT:_trnsctrl_.obj
 0001:0010d65e       ___CxxLongjmpUnwind@4      0050e65e f   LIBCMT:_trnsctrl_.obj
 0001:0010d6b0       ?_CallSETranslator@@YAHPAUEHExceptionRecord@@PAUEHRegistrationNode@@PAX2PBU_s_FuncInfo@@H1@Z 0050e6b0 f   LIBCMT:_trnsctrl_.obj
 0001:0010d826       ?_GetRangeOfTrysToCheck@@YAPBU_s_TryBlockMapEntry@@PBU_s_FuncInfo@@HHPAI1@Z 0050e826 f   LIBCMT:_trnsctrl_.obj
 0001:0010d899       __CreateFrameInfo          0050e899 f   LIBCMT:_trnsctrl_.obj
 0001:0010d8c5       __IsExceptionObjectToBeDestroyed 0050e8c5 f   LIBCMT:_trnsctrl_.obj
 0001:0010d8ec       __FindAndUnlinkFrame       0050e8ec f   LIBCMT:_trnsctrl_.obj
 0001:0010d93e       ?_CallCatchBlock2@@YAPAXPAUEHRegistrationNode@@PBU_s_FuncInfo@@PAXHK@Z 0050e93e f   LIBCMT:_trnsctrl_.obj
 0001:0010da54       ___onexitinit              0050ea54 f   LIBCMT:onexit.obj
 0001:0010da85       __onexit                   0050ea85 f   LIBCMT:onexit.obj
 0001:0010dac1       _atexit                    0050eac1 f   LIBCMT:onexit.obj
 0001:0010dad8       ??_L@YGXPAXIHP6EX0@Z1@Z    0050ead8 f   LIBCMT:ehvecctr.obj
 0001:0010db4f       ?__ArrayUnwind@@YGXPAXIHP6EX0@Z@Z 0050eb4f f   LIBCMT:ehvecdtr.obj
 0001:0010dbad       ??_M@YGXPAXIHP6EX0@Z@Z     0050ebad f   LIBCMT:ehvecdtr.obj
 0001:0010dc10       _memset                    0050ec10 f   LIBCMT:memset.obj
 0001:0010dc90       __ftol2_sse                0050ec90 f   LIBCMT:ftol2.obj
 0001:0010dc99       __ftol2_pentium4           0050ec99 f   LIBCMT:ftol2.obj
 0001:0010dcac       __ftol2_sse_excpt          0050ecac f   LIBCMT:ftol2.obj
 0001:0010dcc6       __ftol2                    0050ecc6 f   LIBCMT:ftol2.obj
 0001:0010dd3b       ??_V@YAXPAX@Z              0050ed3b f   LIBCMT:delete2.obj
 0001:0010dd46       __fread_nolock_s           0050ed46 f   LIBCMT:fread.obj
 0001:0010df02       __fread_nolock             0050ef02 f   LIBCMT:fread.obj
 0001:0010df1f       _fread_s                   0050ef1f f   LIBCMT:fread.obj
 0001:0010dfad       _fread                     0050efad f   LIBCMT:fread.obj
 0001:0010dfca       __fseek_nolock             0050efca f   LIBCMT:fseek.obj
 0001:0010e054       _fseek                     0050f054 f   LIBCMT:fseek.obj
 0001:0010e0d0       _atol                      0050f0d0 f   LIBCMT:atox.obj
 0001:0010e0e6       __atol_l                   0050f0e6 f   LIBCMT:atox.obj
 0001:0010e0ff       _atoi                      0050f0ff f   LIBCMT:atox.obj
 0001:0010e10a       __atoi_l                   0050f10a f   LIBCMT:atox.obj
 0001:0010e115       __atoi64                   0050f115 f   LIBCMT:atox.obj
 0001:0010e12b       __atoi64_l                 0050f12b f   LIBCMT:atox.obj
 0001:0010e144       _strtok                    0050f144 f   LIBCMT:strtok.obj
 0001:0010e201       _srand                     0050f201 f   LIBCMT:rand.obj
 0001:0010e213       _rand                      0050f213 f   LIBCMT:rand.obj
 0001:0010e240       _ceil                      0050f240 f   LIBCMT:_ceil_pentium4_.obj
 0001:0010e280       __ceil_pentium4            0050f280 f   LIBCMT:_ceil_pentium4_.obj
 0001:0010e35d       __time64                   0050f35d f   LIBCMT:time64.obj
 0001:0010e3ae       ??0_LocaleUpdate@@QAE@PAUlocaleinfo_struct@@@Z 0050f3ae f i LIBCMT:wcstombs.obj
 0001:0010e435       ??1_LocaleUpdate@@QAE@XZ   0050f435 f i LIBCMT:wcstombs.obj
 0001:0010e443       ?GetLocaleT@_LocaleUpdate@@QAEPAUlocaleinfo_struct@@XZ 0050f443 f i LIBCMT:wcstombs.obj
 0001:0010e478       __wcstombs_l_helper        0050f478 f   LIBCMT:wcstombs.obj
 0001:0010e6df       __wcstombs_l               0050f6df f   LIBCMT:wcstombs.obj
 0001:0010e6ea       _wcstombs                  0050f6ea f   LIBCMT:wcstombs.obj
 0001:0010e704       __wcstombs_s_l             0050f704 f   LIBCMT:wcstombs.obj
 0001:0010e7b6       _wcstombs_s                0050f7b6 f   LIBCMT:wcstombs.obj
 0001:0010e7e0       _memchr                    0050f7e0 f   LIBCMT:memchr.obj
 0001:0010e890       __CIsqrt                   0050f890 f   LIBCMT:_sqrt_.obj
 0001:0010e8a4       _sqrt                      0050f8a4     LIBCMT:_sqrt_.obj
 0001:0010e950       _log                       0050f950 f   LIBCMT:_log_.obj
 0001:0010e990       __CIlog                    0050f990 f   LIBCMT:_log_.obj
 0001:0010e9cb       __CIlog_default            0050f9cb f   LIBCMT:_log_.obj
 0001:0010e9df       __log_default              0050f9df     LIBCMT:_log_.obj
 0001:0010eaa0       __strrev                   0050faa0 f   LIBCMT:strrev.obj
 0001:0010eb18       __itoa                     0050fb18 f   LIBCMT:xtoa.obj
 0001:0010eb42       __ltoa                     0050fb42 f   LIBCMT:xtoa.obj
 0001:0010eb69       __ultoa                    0050fb69 f   LIBCMT:xtoa.obj
 0001:0010ebf2       __i64toa                   0050fbf2 f   LIBCMT:xtoa.obj
 0001:0010ec25       __ui64toa                  0050fc25 f   LIBCMT:xtoa.obj
 0001:0010ec42       __toupper                  0050fc42 f   LIBCMT:toupper.obj
 0001:0010ec4f       __toupper_l                0050fc4f f   LIBCMT:toupper.obj
 0001:0010ed65       _toupper                   0050fd65 f   LIBCMT:toupper.obj
 0001:0010ed91       __fwrite_nolock            0050fd91 f   LIBCMT:fwrite.obj
 0001:0010eee8       _fwrite                    0050fee8 f   LIBCMT:fwrite.obj
 0001:0010ef62       _fputs                     0050ff62 f   LIBCMT:fputs.obj
 0001:0010f068       __mkdir                    00510068 f   LIBCMT:mkdir.obj
 0001:0010f108       _sscanf                    00510108 f   LIBCMT:sscanf.obj
 0001:0010f12a       __sscanf_l                 0051012a f   LIBCMT:sscanf.obj
 0001:0010f14d       _sscanf_s                  0051014d f   LIBCMT:sscanf.obj
 0001:0010f16f       __sscanf_s_l               0051016f f   LIBCMT:sscanf.obj
 0001:0010f192       _free                      00510192 f   LIBCMT:free.obj
 0001:0010f1cc       __purecall                 005101cc f   LIBCMT:purevirt.obj
 0001:0010f1f6       __set_purecall_handler     005101f6 f   LIBCMT:purevirt.obj
 0001:0010f21d       __get_purecall_handler     0051021d f   LIBCMT:purevirt.obj
 0001:0010f22a       _ldiv                      0051022a f   LIBCMT:ldiv.obj
 0001:0010f238       __access_s                 00510238 f   LIBCMT:access.obj
 0001:0010f2b7       __access                   005102b7 f   LIBCMT:access.obj
 0001:0010f2cf       __strnicmp_l               005102cf f   LIBCMT:strnicmp.obj
 0001:0010f3b1       __strnicmp                 005103b1 f   LIBCMT:strnicmp.obj
 0001:0010f404       __tolower                  00510404 f   LIBCMT:tolower.obj
 0001:0010f411       __tolower_l                00510411 f   LIBCMT:tolower.obj
 0001:0010f526       _tolower                   00510526 f   LIBCMT:tolower.obj
 0001:0010f72f       _WinMainCRTStartup         0051072f f   LIBCMT:wincrt0.obj
 0001:0010f739       __MarkAllocaS              00510739 f i LIBCMT:a_map.obj
 0001:0010f74f       __freea                    0051074f f i LIBCMT:a_map.obj
 0001:0010f974       ___crtLCMapStringA         00510974 f   LIBCMT:a_map.obj
 0001:0010f9ba       ___pwctype_func            005109ba f   LIBCMT:ctype.obj
 0001:0010f9c0       ___pctype_func             005109c0 f   LIBCMT:ctype.obj
 0001:0010f9e9       __isalpha_l                005109e9 f i LIBCMT:_ctype.obj
 0001:0010fa3f       _isalpha                   00510a3f f i LIBCMT:_ctype.obj
 0001:0010fa6f       __isupper_l                00510a6f f i LIBCMT:_ctype.obj
 0001:0010fac0       _isupper                   00510ac0 f i LIBCMT:_ctype.obj
 0001:0010faee       __islower_l                00510aee f i LIBCMT:_ctype.obj
 0001:0010fb3f       _islower                   00510b3f f i LIBCMT:_ctype.obj
 0001:0010fb6d       __isdigit_l                00510b6d f i LIBCMT:_ctype.obj
 0001:0010fbbe       _isdigit                   00510bbe f i LIBCMT:_ctype.obj
 0001:0010fbec       __isxdigit_l               00510bec f i LIBCMT:_ctype.obj
 0001:0010fc42       _isxdigit                  00510c42 f i LIBCMT:_ctype.obj
 0001:0010fc72       __isspace_l                00510c72 f i LIBCMT:_ctype.obj
 0001:0010fcc3       _isspace                   00510cc3 f i LIBCMT:_ctype.obj
 0001:0010fcf1       __ispunct_l                00510cf1 f i LIBCMT:_ctype.obj
 0001:0010fd42       _ispunct                   00510d42 f i LIBCMT:_ctype.obj
 0001:0010fd70       __isalnum_l                00510d70 f i LIBCMT:_ctype.obj
 0001:0010fdc6       _isalnum                   00510dc6 f i LIBCMT:_ctype.obj
 0001:0010fdf6       __isprint_l                00510df6 f i LIBCMT:_ctype.obj
 0001:0010fe4c       _isprint                   00510e4c f i LIBCMT:_ctype.obj
 0001:0010fe7c       __isgraph_l                00510e7c f i LIBCMT:_ctype.obj
 0001:0010fed2       _isgraph                   00510ed2 f i LIBCMT:_ctype.obj
 0001:0010ff02       __iscntrl_l                00510f02 f i LIBCMT:_ctype.obj
 0001:0010ff53       _iscntrl                   00510f53 f i LIBCMT:_ctype.obj
 0001:0010ff81       ___isascii                 00510f81 f i LIBCMT:_ctype.obj
 0001:0010ff93       ___toascii                 00510f93 f i LIBCMT:_ctype.obj
 0001:0010ffa0       __iscsymf_l                00510fa0 f i LIBCMT:_ctype.obj
 0001:0010ffc3       ___iscsymf                 00510fc3 f i LIBCMT:_ctype.obj
 0001:0010ffe2       __iscsym_l                 00510fe2 f i LIBCMT:_ctype.obj
 0001:00110005       ___iscsym                  00511005 f i LIBCMT:_ctype.obj
 0001:00110026       ___init_ctype              00511026 f   LIBCMT:initctyp.obj
 0001:001103cd       ____mb_cur_max_func        005113cd f   LIBCMT:initctyp.obj
 0001:001103f6       ____mb_cur_max_l_func      005113f6 f   LIBCMT:initctyp.obj
 0001:00110412       ____lc_codepage_func       00511412 f   LIBCMT:initctyp.obj
 0001:00110438       ____lc_collate_cp_func     00511438 f   LIBCMT:initctyp.obj
 0001:0011045e       ____lc_handle_func         0051145e f   LIBCMT:initctyp.obj
 0001:00110484       _wait_a_bit                00511484 f i LIBCMT:crtheap.obj
 0001:001104aa       __set_malloc_crt_max_wait  005114aa f   LIBCMT:crtheap.obj
 0001:001104bf       __malloc_crt               005114bf f   LIBCMT:crtheap.obj
 0001:00110504       __calloc_crt               00511504 f   LIBCMT:crtheap.obj
 0001:00110550       __realloc_crt              00511550 f   LIBCMT:crtheap.obj
 0001:0011059e       __recalloc_crt             0051159e f   LIBCMT:crtheap.obj
 0001:001105f0       __EH_prolog3               005115f0 f   LIBCMT:ehprolg3.obj
 0001:00110623       __EH_prolog3_catch         00511623 f   LIBCMT:ehprolg3.obj
 0001:00110659       __EH_prolog3_GS            00511659 f   LIBCMT:ehprolg3.obj
 0001:0011068f       __EH_prolog3_catch_GS      0051168f f   LIBCMT:ehprolg3.obj
 0001:001106c8       __EH_epilog3               005116c8 f   LIBCMT:ehprolg3.obj
 0001:001106dc       __EH_epilog3_GS            005116dc f   LIBCMT:ehprolg3.obj
 0001:001106eb       __EH_epilog3_catch_GS      005116eb f   LIBCMT:ehprolg3.obj
 0001:001106fa       __invoke_watson_if_error   005116fa f i LIBCMT:setlocal.obj
 0001:0011071b       ____setlc_active_func      0051171b f   LIBCMT:setlocal.obj
 0001:00110721       ____unguarded_readlc_active_add_func 00511721 f   LIBCMT:setlocal.obj
 0001:0011074d       __configthreadlocale       0051174d f   LIBCMT:setlocal.obj
 0001:001107d4       __free_locale              005117d4 f   LIBCMT:setlocal.obj
 0001:00110896       ___free_locale             00511896 f   LIBCMT:setlocal.obj
 0001:001108a1       __get_current_locale       005118a1 f   LIBCMT:setlocal.obj
 0001:00110950       ___get_current_locale      00511950 f   LIBCMT:setlocal.obj
 0001:00110955       ___init_dummy              00511955 f   LIBCMT:setlocal.obj
 0001:00110958       __strcats                  00511958 f   LIBCMT:setlocal.obj
 0001:00110999       ___lc_strtolc              00511999 f   LIBCMT:setlocal.obj
 0001:00110ab8       ___lc_lctostr              00511ab8 f   LIBCMT:setlocal.obj
 0001:00110c88       __expandlocale             00511c88 f   LIBCMT:setlocal.obj
 0001:001113ff       __create_locale            005123ff f   LIBCMT:setlocal.obj
 0001:001114f4       ___create_locale           005124f4 f   LIBCMT:setlocal.obj
 0001:001114ff       _setlocale                 005124ff f   LIBCMT:setlocal.obj
 0001:00111673       __heap_alloc               00512673 f i LIBCMT:malloc.obj
 0001:001116b2       _malloc                    005126b2 f   LIBCMT:malloc.obj
 0001:00111750       _strlen                    00512750 f   LIBCMT:strlen.obj
 0001:001117db       __get_sys_err_msg          005127db f i LIBCMT:strerror.obj
 0001:00111803       _strerror                  00512803 f   LIBCMT:strerror.obj
 0001:0011186d       _strerror_s                0051286d f   LIBCMT:strerror.obj
 0001:001118c0       ??0bad_exception@std@@QAE@PBD@Z 005128c0 f i LIBCMT:frame.obj
 0001:001118de       ??1bad_exception@std@@UAE@XZ 005128de f i LIBCMT:frame.obj
 0001:001118e9       ??_Ebad_exception@std@@UAEPAXI@Z 005128e9 f i LIBCMT:frame.obj
 0001:001118e9       ??_Gbad_exception@std@@UAEPAXI@Z 005128e9 f i LIBCMT:frame.obj
 0001:00111910       ___TypeMatch               00512910 f   LIBCMT:frame.obj
 0001:0011196f       ___FrameUnwindFilter       0051296f f   LIBCMT:frame.obj
 0001:001119be       ___FrameUnwindToState      005129be f   LIBCMT:frame.obj
 0001:00111adf       ___DestructExceptionObject 00512adf f   LIBCMT:frame.obj
 0001:00111b34       ___AdjustPointer           00512b34 f   LIBCMT:frame.obj
 0001:00111b5d       ?__uncaught_exception@@YA_NXZ 00512b5d f   LIBCMT:frame.obj
 0001:00111b6e       ___CxxRegisterExceptionObject 00512b6e f   LIBCMT:frame.obj
 0001:00111c24       ___CxxDetectRethrow        00512c24 f   LIBCMT:frame.obj
 0001:00111c75       ___CxxUnregisterExceptionObject 00512c75 f   LIBCMT:frame.obj
 0001:00111db3       ___CxxQueryExceptionSize   00512db3 f   LIBCMT:frame.obj
 0001:00111db7       ___CxxCallUnwindDtor       00512db7 f   LIBCMT:frame.obj
 0001:00111de9       ___CxxCallUnwindDelDtor    00512de9 f   LIBCMT:frame.obj
 0001:00111e1c       ___CxxCallUnwindStdDelDtor 00512e1c f   LIBCMT:frame.obj
 0001:00111e4e       ___CxxCallUnwindVecDtor    00512e4e f   LIBCMT:frame.obj
 0001:00111f7f       ?_is_exception_typeof@@YAHABVtype_info@@PAU_EXCEPTION_POINTERS@@@Z 00512f7f f   LIBCMT:frame.obj
 0001:001121a1       ___BuildCatchObjectHelper  005131a1 f   LIBCMT:frame.obj
 0001:00112320       ___BuildCatchObject        00513320 f   LIBCMT:frame.obj
 0001:001123b2       ___CxxExceptionFilter      005133b2 f   LIBCMT:frame.obj
 0001:001129ea       ??0bad_exception@std@@QAE@ABV01@@Z 005139ea f i LIBCMT:frame.obj
 0001:00112a07       ___InternalCxxFrameHandler 00513a07 f   LIBCMT:frame.obj
 0001:00112aed       _abort                     00513aed f   LIBCMT:abort.obj
 0001:00112b20       __set_abort_behavior       00513b20 f   LIBCMT:abort.obj
 0001:00112b41       __VEC_memcpy               00513b41 f   LIBCMT:p4_memcpy.obj
 0001:00112c44       ___sse2_available_init     00513c44 f   LIBCMT:cpu_disp.obj
 0001:00112c54       ?_Type_info_dtor@type_info@@CAXPAV1@@Z 00513c54 f   LIBCMT:typname.obj
 0001:00112cc4       ?_Name_base@type_info@@CAPBDPBV1@PAU__type_info_node@@@Z 00513cc4 f   LIBCMT:typname.obj
 0001:00112db6       ?_Type_info_dtor_internal@type_info@@CAXPAV1@@Z 00513db6 f   LIBCMT:typname.obj
 0001:00112e26       ___unDNameHelper           00513e26 f   LIBCMT:typname.obj
 0001:00112e59       ?_Name_base_internal@type_info@@CAPBDPBV1@PAU__type_info_node@@@Z 00513e59 f   LIBCMT:typname.obj
 0001:00112f65       ___clean_type_info_names_internal 00513f65 f   LIBCMT:typname.obj
 0001:00112fc0       _strcmp                    00513fc0 f   LIBCMT:strcmp.obj
 0001:00113048       __close_nolock             00514048 f   LIBCMT:close.obj
 0001:001130e4       __close                    005140e4 f   LIBCMT:close.obj
 0001:001131a8       __fileno                   005141a8 f   LIBCMT:fileno.obj
 0001:001131ce       __freebuf                  005141ce f   LIBCMT:_freebuf.obj
 0001:001131ff       __flush                    005141ff f   LIBCMT:fflush.obj
 0001:00113267       __fflush_nolock            00514267 f   LIBCMT:fflush.obj
 0001:00113389       _fflush                    00514389 f   LIBCMT:fflush.obj
 0001:001133dc       __flushall                 005143dc f   LIBCMT:fflush.obj
 0001:001133e5       __initp_misc_invarg        005143e5 f   LIBCMT:invarg.obj
 0001:001133f4       __call_reportfault         005143f4 f   LIBCMT:invarg.obj
 0001:0011351d       __set_invalid_parameter_handler 0051451d f   LIBCMT:invarg.obj
 0001:00113544       __get_invalid_parameter_handler 00514544 f   LIBCMT:invarg.obj
 0001:00113551       __invoke_watson            00514551 f   LIBCMT:invarg.obj
 0001:00113576       ?_invoke_watson@@YAXPBG00II@Z 00514576 f   LIBCMT:invarg.obj
 0001:00113590       __invalid_parameter        00514590 f   LIBCMT:invarg.obj
 0001:001135bd       __invalid_parameter_noinfo 005145bd f   LIBCMT:invarg.obj
 0001:001135cd       __invalid_parameter_noinfo_noreturn 005145cd f   LIBCMT:invarg.obj
 0001:001135fb       ?_invalid_parameter@@YAXPBG00II@Z 005145fb f   LIBCMT:invarg.obj
 0001:00113606       __get_errno_from_oserr     00514606 f   LIBCMT:dosmap.obj
 0001:00113648       __errno                    00514648 f   LIBCMT:dosmap.obj
 0001:0011365b       ___doserrno                0051465b f   LIBCMT:dosmap.obj
 0001:0011366e       __dosmaperr                0051466e f   LIBCMT:dosmap.obj
 0001:00113691       __set_errno                00514691 f   LIBCMT:dosmap.obj
 0001:001136b2       __get_errno                005146b2 f   LIBCMT:dosmap.obj
 0001:001136d7       __set_doserrno             005146d7 f   LIBCMT:dosmap.obj
 0001:001136f8       __get_doserrno             005146f8 f   LIBCMT:dosmap.obj
 0001:0011371d       ___iob_func                0051471d f   LIBCMT:_file.obj
 0001:00113723       ___initstdio               00514723 f   LIBCMT:_file.obj
 0001:001137d4       ___endstdio                005147d4 f   LIBCMT:_file.obj
 0001:001137f4       __lock_file                005147f4 f   LIBCMT:_file.obj
 0001:00113835       __lock_file2               00514835 f   LIBCMT:_file.obj
 0001:00113867       __unlock_file              00514867 f   LIBCMT:_file.obj
 0001:001138a3       __unlock_file2             005148a3 f   LIBCMT:_file.obj
 0001:001138e0       __SEH_prolog4              005148e0 f   LIBCMT:sehprolg4.obj
 0001:00113925       __SEH_epilog4              00514925 f   LIBCMT:sehprolg4.obj
 0001:00113970       __except_handler4          00514970 f   LIBCMT:chandler4.obj
 0001:00113aff       __flsbuf                   00514aff f   LIBCMT:_flsbuf.obj
 0001:00113d30       _get_int_arg               00514d30 f i LIBCMT:output.obj
 0001:00113d42       _get_int64_arg             00514d42 f i LIBCMT:output.obj
 0001:00113d57       _get_short_arg             00514d57 f i LIBCMT:output.obj
 0001:00113d6a       __output_l                 00514d6a f   LIBCMT:output.obj
 0001:00114916       __vsprintf_l               00515916 f   LIBCMT:vsprintf.obj
 0001:0011499a       _vsprintf                  0051599a f   LIBCMT:vsprintf.obj
 0001:001149b4       __vscprintf_helper         005159b4 f   LIBCMT:vsprintf.obj
 0001:00114a10       __vscprintf                00515a10 f   LIBCMT:vsprintf.obj
 0001:00114a2c       __vscprintf_l              00515a2c f   LIBCMT:vsprintf.obj
 0001:00114a49       __vscprintf_p              00515a49 f   LIBCMT:vsprintf.obj
 0001:00114a65       __vscprintf_p_l            00515a65 f   LIBCMT:vsprintf.obj
 0001:00114a82       __vsnprintf_helper         00515a82 f   LIBCMT:vsnprnc.obj
 0001:00114b4c       __vsnprintf_c              00515b4c f   LIBCMT:vsnprnc.obj
 0001:00114b75       __vsnprintf_c_l            00515b75 f   LIBCMT:vsnprnc.obj
 0001:00114b9f       __vsprintf_s_l             00515b9f f   LIBCMT:vsnprnc.obj
 0001:00114c16       _vsprintf_s                00515c16 f   LIBCMT:vsnprnc.obj
 0001:00114c33       __vsnprintf_s_l            00515c33 f   LIBCMT:vsnprnc.obj
 0001:00114d1f       __vsnprintf_s              00515d1f f   LIBCMT:vsnprnc.obj
 0001:00114d3f       __vsprintf_p               00515d3f f   LIBCMT:vsnprnc.obj
 0001:00114d68       __vsprintf_p_l             00515d68 f   LIBCMT:vsnprnc.obj
 0001:00114d92       __filbuf                   00515d92 f   LIBCMT:_filbuf.obj
 0001:00114eb4       __ioinit                   00515eb4 f   LIBCMT:ioinit.obj
 0001:001150f9       __ioterm                   005160f9 f   LIBCMT:ioinit.obj
 0001:0011514c       __openfile                 0051614c f   LIBCMT:_open.obj
 0001:001153e3       __getstream                005163e3 f   LIBCMT:stream.obj
 0001:00115520       __local_unwind4            00516520 f   LIBCMT:exsup4.obj
 0001:001155f6       __seh_longjmp_unwind4@4    005165f6 f   LIBCMT:exsup4.obj
 0001:00115612       @_EH4_CallFilterFunc@8     00516612 f   LIBCMT:exsup4.obj
 0001:00115629       @_EH4_TransferToHandler@8  00516629 f   LIBCMT:exsup4.obj
 0001:00115642       @_EH4_GlobalUnwind2@8      00516642 f   LIBCMT:exsup4.obj
 0001:0011565b       @_EH4_LocalUnwind@16       0051665b f   LIBCMT:exsup4.obj
 0001:00115672       ___report_gsfailure        00516672 f   LIBCMT:gs_report.obj
 0001:00115778       _strcpy_s                  00516778 f   LIBCMT:strcpy_s.obj
 0001:001157d7       __initp_heap_handler       005167d7 f   LIBCMT:handler.obj
 0001:001157e6       ?_set_new_handler@@YAP6AHI@ZP6AHI@Z@Z 005167e6 f   LIBCMT:handler.obj
 0001:0011581d       ?_set_new_handler@@YAP6AHI@ZH@Z 0051681d f   LIBCMT:handler.obj
 0001:00115826       ?_query_new_handler@@YAP6AHI@ZXZ 00516826 f   LIBCMT:handler.obj
 0001:00115833       __callnewh                 00516833 f   LIBCMT:handler.obj
 0001:0011585b       ?strrchr@@YAPADPADH@Z      0051685b f i LIBCMT:cvt.obj
 0001:00115866       __forcdecpt_l              00516866 f   LIBCMT:cvt.obj
 0001:001158da       __cropzeros_l              005168da f   LIBCMT:cvt.obj
 0001:0011595c       __positive                 0051695c f   LIBCMT:cvt.obj
 0001:00115978       __fassign_l                00516978 f   LIBCMT:cvt.obj
 0001:001159ba       __fassign                  005169ba f   LIBCMT:cvt.obj
 0001:001159f3       __forcdecpt                005169f3 f   LIBCMT:cvt.obj
 0001:00115a06       __cropzeros                00516a06 f   LIBCMT:cvt.obj
 0001:00115b7a       __cftoe_l                  00516b7a f   LIBCMT:cvt.obj
 0001:00115c41       __cftoe                    00516c41 f   LIBCMT:cvt.obj
 0001:00115c61       __cftoa_l                  00516c61 f   LIBCMT:cvt.obj
 0001:00115fd7       __cftoa                    00516fd7 f   LIBCMT:cvt.obj
 0001:001160fa       __cftof_l                  005170fa f   LIBCMT:cvt.obj
 0001:001161bb       __cftof                    005171bb f   LIBCMT:cvt.obj
 0001:001161d8       __cftog_l                  005171d8 f   LIBCMT:cvt.obj
 0001:001162c5       __cftog                    005172c5 f   LIBCMT:cvt.obj
 0001:001162e5       __cfltcvt_l                005172e5 f   LIBCMT:cvt.obj
 0001:0011636d       __cfltcvt                  0051736d f   LIBCMT:cvt.obj
 0001:00116390       __initp_misc_cfltcvt_tab   00517390 f   LIBCMT:cmiscdat.obj
 0001:001163b3       __setdefaultprecision      005173b3 f   LIBCMT:fp8.obj
 0001:001163db       __encoded_null             005173db f   LIBCMT:tidtable.obj
 0001:001163e4       ___crtTlsAlloc@4           005173e4 f   LIBCMT:tidtable.obj
 0001:001163ed       ___fls_getvalue@4          005173ed f   LIBCMT:tidtable.obj
 0001:00116407       ___get_flsindex            00517407 f   LIBCMT:tidtable.obj
 0001:0011640d       ___set_flsgetvalue         0051740d f   LIBCMT:tidtable.obj
 0001:00116441       ___fls_setvalue@8          00517441 f   LIBCMT:tidtable.obj
 0001:0011645e       __mtterm                   0051745e f   LIBCMT:tidtable.obj
 0001:0011649b       __initptd                  0051749b f   LIBCMT:tidtable.obj
 0001:0011654f       __getptd_noexit            0051754f f   LIBCMT:tidtable.obj
 0001:001165c8       __getptd                   005175c8 f   LIBCMT:tidtable.obj
 0001:001165e2       __freefls@4                005175e2 f   LIBCMT:tidtable.obj
 0001:00116711       __freeptd                  00517711 f   LIBCMT:tidtable.obj
 0001:0011677f       ___threadid                0051777f f   LIBCMT:tidtable.obj
 0001:00116785       ___threadhandle            00517785 f   LIBCMT:tidtable.obj
 0001:0011678b       __mtinit                   0051778b f   LIBCMT:tidtable.obj
 0001:00116906       ?terminate@@YAXXZ          00517906 f   LIBCMT:hooks.obj
 0001:0011693f       ?unexpected@@YAXXZ         0051793f f   LIBCMT:hooks.obj
 0001:00116952       ?_inconsistency@@YAXXZ     00517952 f   LIBCMT:hooks.obj
 0001:0011698a       __initp_eh_hooks           0051798a f   LIBCMT:hooks.obj
 0001:001169a0       __CallSettingFrame@12      005179a0 f   LIBCMT:lowhelpr.obj
 0001:001169c7       __NLG_Return               005179c7     LIBCMT:lowhelpr.obj
 0001:001169ec       __msize                    005179ec f   LIBCMT:msize.obj
 0001:00116a1f       ___crtCorExitProcess       00517a1f f   LIBCMT:crt0dat.obj
 0001:00116a4a       ___crtExitProcess          00517a4a f   LIBCMT:crt0dat.obj
 0001:00116a62       __lockexit                 00517a62 f   LIBCMT:crt0dat.obj
 0001:00116a6b       __unlockexit               00517a6b f   LIBCMT:crt0dat.obj
 0001:00116a74       __init_pointers            00517a74 f   LIBCMT:crt0dat.obj
 0001:00116ac4       __initterm_e               00517ac4 f   LIBCMT:crt0dat.obj
 0001:00116ae8       __get_wpgmptr              00517ae8 f   LIBCMT:crt0dat.obj
 0001:00116b18       __get_pgmptr               00517b18 f   LIBCMT:crt0dat.obj
 0001:00116b48       __cinit                    00517b48 f   LIBCMT:crt0dat.obj
 0001:00116d1f       _exit                      00517d1f f   LIBCMT:crt0dat.obj
 0001:00116d35       __exit                     00517d35 f   LIBCMT:crt0dat.obj
 0001:00116d4b       __cexit                    00517d4b f   LIBCMT:crt0dat.obj
 0001:00116d5a       __c_exit                   00517d5a f   LIBCMT:crt0dat.obj
 0001:00116d69       __amsg_exit                00517d69 f   LIBCMT:crt0dat.obj
 0001:00116d87       __VEC_memzero              00517d87 f   LIBCMT:p4_memset.obj
 0001:00116e41       __read_nolock              00517e41 f   LIBCMT:read.obj
 0001:001173f8       __read                     005183f8 f   LIBCMT:read.obj
 0001:001174ee       _memcpy_s                  005184ee f   LIBCMT:memcpy_s.obj
 0001:00117563       __lseek_nolock             00518563 f   LIBCMT:lseek.obj
 0001:001175d8       __lseek                    005185d8 f   LIBCMT:lseek.obj
 0001:001176ac       __ftell_nolock             005186ac f   LIBCMT:ftell.obj
 0001:00117840       _ftell                     00518840 f   LIBCMT:ftell.obj
 0001:00117ad0       _strtol                    00518ad0 f   LIBCMT:strtol.obj
 0001:00117afb       __strtol_l                 00518afb f   LIBCMT:strtol.obj
 0001:00117b18       _strtoul                   00518b18 f   LIBCMT:strtol.obj
 0001:00117b44       __strtoul_l                00518b44 f   LIBCMT:strtol.obj
 0001:00117dfe       __strtoi64                 00518dfe f   LIBCMT:strtoq.obj
 0001:00117e29       __strtoi64_l               00518e29 f   LIBCMT:strtoq.obj
 0001:00117e46       __strtoui64                00518e46 f   LIBCMT:strtoq.obj
 0001:00117e72       __strtoui64_l              00518e72 f   LIBCMT:strtoq.obj
 0001:00117e8f       ___libm_setusermatherr     00518e8f f   LIBCMT:_libm_error_.obj
 0001:00117ebd       ___libm_error_support      00518ebd f   LIBCMT:_libm_error_.obj
 0001:00118189       __set_SSE2_enable          00519189 f   LIBCMT:_mathfcns_.obj
 0001:001181a2       __sse2_mathfcns_init       005191a2 f   LIBCMT:_mathfcns_.obj
 0001:001181b2       __ceil_default             005191b2 f   LIBCMT:_ceil_.obj
 0001:00118290       __aulldiv                  00519290 f   LIBCMT:ulldiv.obj
 0001:0011851b       ___updatetmbcinfo          0051951b f   LIBCMT:mbctype.obj
 0001:0011863b       __setmbcp_nolock           0051963b f   LIBCMT:mbctype.obj
 0001:00118824       __getmbcp                  00519824 f   LIBCMT:mbctype.obj
 0001:00118862       __setmbcp                  00519862 f   LIBCMT:mbctype.obj
 0001:001189fc       ___initmbctable            005199fc f   LIBCMT:mbctype.obj
 0001:00118a1a       ___addlocaleref            00519a1a f   LIBCMT:localref.obj
 0001:00118aa9       ___removelocaleref         00519aa9 f   LIBCMT:localref.obj
 0001:00118b42       ___freetlocinfo            00519b42 f   LIBCMT:localref.obj
 0001:00118c8d       __updatetlocinfoEx_nolock  00519c8d f   LIBCMT:localref.obj
 0001:00118cda       ___updatetlocinfo          00519cda f   LIBCMT:localref.obj
 0001:00118d60       __trandisp1                00519d60 f   LIBCMT:_87disp_.obj
 0001:00118dc7       __trandisp2                00519dc7 f   LIBCMT:_87disp_.obj
 0001:00118e53       __rttospopde               00519e53     LIBCMT:_87disp_.obj
 0001:00118e58       __rttospop                 00519e58     LIBCMT:_87disp_.obj
 0001:00118e5a       __rtnospop                 00519e5a     LIBCMT:_87disp_.obj
 0001:00118e5c       __rttosnpop                00519e5c     LIBCMT:_87disp_.obj
 0001:00118e5d       __rtnospopde               00519e5d     LIBCMT:_87disp_.obj
 0001:00118e64       __rtzeropop                00519e64     LIBCMT:_87disp_.obj
 0001:00118e66       __rtzeronpop               00519e66     LIBCMT:_87disp_.obj
 0001:00118e6b       __rtonepop                 00519e6b     LIBCMT:_87disp_.obj
 0001:00118e6d       __rtonenpop                00519e6d     LIBCMT:_87disp_.obj
 0001:00118e72       __tosnan1                  00519e72     LIBCMT:_87disp_.obj
 0001:00118e9d       __nosnan2                  00519e9d     LIBCMT:_87disp_.obj
 0001:00118e9f       __tosnan2                  00519e9f     LIBCMT:_87disp_.obj
 0001:00118ec7       __nan2                     00519ec7     LIBCMT:_87disp_.obj
 0001:00118f06       __rtindfpop                00519f06     LIBCMT:_87disp_.obj
 0001:00118f08       __rtindfnpop               00519f08     LIBCMT:_87disp_.obj
 0001:00118f19       __rttosnpopde              00519f19     LIBCMT:_87disp_.obj
 0001:00118f23       __rtchsifneg               00519f23     LIBCMT:_87disp_.obj
 0001:00118f30       __startTwoArgErrorHandling 00519f30 f   LIBCMT:_genexcep_.obj
 0001:00118f47       __startOneArgErrorHandling 00519f47 f   LIBCMT:_genexcep_.obj
 0001:00118f90       __twoToTOS                 00519f90 f   LIBCMT:_common_.obj
 0001:00118fa5       __load_CW                  00519fa5 f   LIBCMT:_common_.obj
 0001:00118fbc       __convertTOStoQNaN         00519fbc f   LIBCMT:_common_.obj
 0001:00118fd5       __fload_withFB             00519fd5 f   LIBCMT:_common_.obj
 0001:00119018       __checkTOS_withFB          0051a018 f   LIBCMT:_common_.obj
 0001:0011902e       __fast_exit                0051a02e f   LIBCMT:_common_.obj
 0001:0011903b       __math_exit                0051a03b f   LIBCMT:_common_.obj
 0001:00119065       __check_overflow_exit      0051a065 f   LIBCMT:_common_.obj
 0001:00119079       __check_range_exit         0051a079 f   LIBCMT:_common_.obj
 0001:00119120       __CIlog_pentium4           0051a120 f   LIBCMT:_log_pentium4_.obj
 0001:00119138       __log_pentium4             0051a138     LIBCMT:_log_pentium4_.obj
 0001:001193a1       __fFEXP                    0051a3a1     LIBCMT:_87tran_.obj
 0001:001193f8       __rtinfpopse               0051a3f8     LIBCMT:_87tran_.obj
 0001:001193fa       __rtinfnpopse              0051a3fa     LIBCMT:_87tran_.obj
 0001:0011940a       __fFLN                     0051a40a     LIBCMT:_87tran_.obj
 0001:001194bf       __rtinfpop                 0051a4bf     LIBCMT:_87tran_.obj
 0001:001194c1       __rtinfnpop                0051a4c1     LIBCMT:_87tran_.obj
 0001:001194de       __ffexpm1                  0051a4de     LIBCMT:_87tran_.obj
 0001:00119590       __aulldvrm                 0051a590 f   LIBCMT:ulldvrm.obj
 0001:00119625       __isleadbyte_l             0051a625 f i LIBCMT:_wctype.obj
 0001:0011965d       _isleadbyte                0051a65d f i LIBCMT:_wctype.obj
 0001:00119670       __iswalpha_l               0051a670 f i LIBCMT:_wctype.obj
 0001:00119686       _iswalpha                  0051a686 f i LIBCMT:_wctype.obj
 0001:0011969c       __iswupper_l               0051a69c f i LIBCMT:_wctype.obj
 0001:001196af       _iswupper                  0051a6af f i LIBCMT:_wctype.obj
 0001:001196c2       __iswlower_l               0051a6c2 f i LIBCMT:_wctype.obj
 0001:001196d5       _iswlower                  0051a6d5 f i LIBCMT:_wctype.obj
 0001:001196e8       __iswdigit_l               0051a6e8 f i LIBCMT:_wctype.obj
 0001:001196fb       _iswdigit                  0051a6fb f i LIBCMT:_wctype.obj
 0001:0011970e       __iswxdigit_l              0051a70e f i LIBCMT:_wctype.obj
 0001:00119724       _iswxdigit                 0051a724 f i LIBCMT:_wctype.obj
 0001:0011973a       __iswspace_l               0051a73a f i LIBCMT:_wctype.obj
 0001:0011974d       _iswspace                  0051a74d f i LIBCMT:_wctype.obj
 0001:00119760       __iswpunct_l               0051a760 f i LIBCMT:_wctype.obj
 0001:00119773       _iswpunct                  0051a773 f i LIBCMT:_wctype.obj
 0001:00119786       __iswalnum_l               0051a786 f i LIBCMT:_wctype.obj
 0001:0011979c       _iswalnum                  0051a79c f i LIBCMT:_wctype.obj
 0001:001197b2       __iswprint_l               0051a7b2 f i LIBCMT:_wctype.obj
 0001:001197c8       _iswprint                  0051a7c8 f i LIBCMT:_wctype.obj
 0001:001197de       __iswgraph_l               0051a7de f i LIBCMT:_wctype.obj
 0001:001197f4       _iswgraph                  0051a7f4 f i LIBCMT:_wctype.obj
 0001:0011980a       __iswcntrl_l               0051a80a f i LIBCMT:_wctype.obj
 0001:0011981d       _iswcntrl                  0051a81d f i LIBCMT:_wctype.obj
 0001:00119830       _iswascii                  0051a830 f i LIBCMT:_wctype.obj
 0001:00119844       __iswcsym_l                0051a844 f i LIBCMT:_wctype.obj
 0001:0011986a       ___iswcsym                 0051a86a f i LIBCMT:_wctype.obj
 0001:00119890       __iswcsymf_l               0051a890 f i LIBCMT:_wctype.obj
 0001:001198b6       ___iswcsymf                0051a8b6 f i LIBCMT:_wctype.obj
 0001:001198dc       __isctype_l                0051a8dc f   LIBCMT:isctype.obj
 0001:00119994       __isctype                  0051a994 f   LIBCMT:isctype.obj
 0001:001199c6       __write_nolock             0051a9c6 f   LIBCMT:write.obj
 0001:0011a0c3       __write                    0051b0c3 f   LIBCMT:write.obj
 0001:0011a197       __stbuf                    0051b197 f   LIBCMT:_sftbuf.obj
 0001:0011a233       __ftbuf                    0051b233 f   LIBCMT:_sftbuf.obj
 0001:0011a2be       __INTRN_LOCALE_CONV        0051b2be f i LIBCMT:input.obj
 0001:0011a343       __input_l                  0051b343 f   LIBCMT:input.obj
 0001:0011b411       __input_s_l                0051c411 f   LIBCMT:inputs.obj
 0001:0011c534       __heap_init                0051d534 f   LIBCMT:heapinit.obj
 0001:0011c552       __heap_term                0051d552 f   LIBCMT:heapinit.obj
 0001:0011c566       __get_heap_handle          0051d566 f   LIBCMT:heapinit.obj
 0001:0011c56c       __GET_RTERRMSG             0051d56c f   LIBCMT:crt0msg.obj
 0001:0011c592       __NMSG_WRITE               0051d592 f   LIBCMT:crt0msg.obj
 0001:0011c741       __FF_MSGBANNER             0051d741 f   LIBCMT:crt0msg.obj
 0001:0011c77a       ___getlocaleinfo           0051d77a f   LIBCMT:inithelp.obj
 0001:0011c926       __initp_misc_purevirt      0051d926 f   LIBCMT:inithelp.obj
 0001:0011c940       ___ascii_strnicmp          0051d940 f   LIBCMT:_strnicm.obj
 0001:0011c9a1       ?__CxxUnhandledExceptionFilter@@YGJPAU_EXCEPTION_POINTERS@@@Z 0051d9a1 f   LIBCMT:unhandld.obj
 0001:0011c9e3       ___CxxSetUnhandledExceptionFilter 0051d9e3 f   LIBCMT:unhandld.obj
 0001:0011ca17       __XcptFilter               0051da17 f   LIBCMT:winxfltr.obj
 0001:0011cb61       ___CppXcptFilter           0051db61 f   LIBCMT:winxfltr.obj
 0001:0011cb81       __wincmdln                 0051db81 f   LIBCMT:wincmdln.obj
 0001:0011cbe0       __setenvp                  0051dbe0 f   LIBCMT:stdenvp.obj
 0001:0011ccbc       __set_pgmptr               0051dcbc f i LIBCMT:stdargv.obj
 0001:0011ce65       __setargv                  0051de65 f   LIBCMT:stdargv.obj
 0001:0011cf20       ___crtGetEnvironmentStringsA 0051df20 f   LIBCMT:a_env.obj
 0001:0011cfb7       __RTC_Initialize           0051dfb7 f   LIBCMT:_initsect_.obj
 0001:0011cfdd       __RTC_Terminate            0051dfdd f   LIBCMT:_initsect_.obj
 0001:0011d003       ___security_init_cookie    0051e003 f   LIBCMT:gs_support.obj
 0001:0011d0a0       __alloca_probe_16          0051e0a0 f   LIBCMT:alloca16.obj
 0001:0011d0b6       __alloca_probe_8           0051e0b6     LIBCMT:alloca16.obj
 0001:0011d1b3       ___crtGetStringTypeA       0051e1b3 f   LIBCMT:a_str.obj
 0001:0011d1f3       __calloc_impl              0051e1f3 f   LIBCMT:calloc_impl.obj
 0001:0011d275       _realloc                   0051e275 f   LIBCMT:realloc.obj
 0001:0011d322       __recalloc                 0051e322 f   LIBCMT:recalloc.obj
 0001:0011db8f       ___free_lc_time            0051eb8f f   LIBCMT:inittime.obj
 0001:0011df06       ___init_time               0051ef06 f   LIBCMT:inittime.obj
 0001:0011dfb3       ___free_lconv_num          0051efb3 f   LIBCMT:initnum.obj
 0001:0011e01c       ___init_numeric            0051f01c f   LIBCMT:initnum.obj
 0001:0011e23c       ___free_lconv_mon          0051f23c f   LIBCMT:initmon.obj
 0001:0011e33a       ___init_monetary           0051f33a f   LIBCMT:initmon.obj
 0001:0011e69a       ___init_collate            0051f69a f   LIBCMT:initcoll.obj
 0001:0011e69d       _localeconv                0051f69d f   LIBCMT:lconv.obj
 0001:0011e6c3       __mtinitlocks              0051f6c3 f   LIBCMT:mlock.obj
 0001:0011e70d       __mtdeletelocks            0051f70d f   LIBCMT:mlock.obj
 0001:0011e764       __unlock                   0051f764 f   LIBCMT:mlock.obj
 0001:0011e77b       __lockerr_exit             0051f77b f   LIBCMT:mlock.obj
 0001:0011e793       __mtinitlocknum            0051f793 f   LIBCMT:mlock.obj
 0001:0011e855       __lock                     0051f855 f   LIBCMT:mlock.obj
 0001:0011e888       _strcat_s                  0051f888 f   LIBCMT:strcat_s.obj
 0001:0011e900       _strcspn                   0051f900 f   LIBCMT:strcspn.obj
 0001:0011e946       _strncpy_s                 0051f946 f   LIBCMT:strncpy_s.obj
 0001:0011efc8       ___get_qualified_locale    0051ffc8 f   LIBCMT:getqloc.obj
 0001:001206d3       _memcmp                    005216d3 f   LIBCMT:memcmp.obj
 0001:00121c27       _strncmp                   00522c27 f   LIBCMT:strncmp.obj
 0001:00121cf0       _strpbrk                   00522cf0 f   LIBCMT:strpbrk.obj
 0001:00121d30       ___sys_nerr                00522d30 f   LIBCMT:syserr.obj
 0001:00121d36       ___sys_errlist             00522d36 f   LIBCMT:syserr.obj
 0001:00121d3c       ?_ValidateRead@@YAHPBXI@Z  00522d3c f   LIBCMT:validate.obj
 0001:00121d4e       ?_ValidateWrite@@YAHPAXI@Z 00522d4e f   LIBCMT:validate.obj
 0001:00121d60       ?_ValidateExecute@@YAHP6GHXZ@Z 00522d60 f   LIBCMT:validate.obj
 0001:00121d72       __initp_misc_winsig        00522d72 f   LIBCMT:winsig.obj
 0001:00121e63       ___get_sigabrt             00522e63 f   LIBCMT:winsig.obj
 0001:00121e70       ___fpecode                 00522e70 f   LIBCMT:winsig.obj
 0001:00121e79       ___pxcptinfoptrs           00522e79 f   LIBCMT:winsig.obj
 0001:00121e82       _signal                    00522e82 f   LIBCMT:winsig.obj
 0001:001220c2       _raise                     005230c2 f   LIBCMT:winsig.obj
 0001:00122265       ??0Block@_HeapManager@@QAE@XZ 00523265 f i LIBCMT:undname.obj
 0001:0012226b       ?Constructor@_HeapManager@@QAEXP6APAXI@ZP6AXPAX@Z@Z 0052326b f i LIBCMT:undname.obj
 0001:0012228a       ?Destructor@_HeapManager@@QAEXXZ 0052328a f i LIBCMT:undname.obj
 0001:001222b2       ?getNumberOfDimensions@UnDecorator@@CAHXZ 005232b2 f   LIBCMT:undname.obj
 0001:00122314       ?getTypeEncoding@UnDecorator@@CAHXZ 00523314 f i LIBCMT:undname.obj
 0001:001227f8       ?doUnderScore@UnDecorator@@SAHXZ 005237f8 f i LIBCMT:undname.obj
 0001:00122803       ?doMSKeywords@UnDecorator@@SAHXZ 00523803 f i LIBCMT:undname.obj
 0001:00122810       ?doPtr64@UnDecorator@@SAHXZ 00523810 f i LIBCMT:undname.obj
 0001:0012281e       ?doFunctionReturns@UnDecorator@@SAHXZ 0052381e f i LIBCMT:undname.obj
 0001:0012282c       ?doAllocationModel@UnDecorator@@SAHXZ 0052382c f i LIBCMT:undname.obj
 0001:0012283a       ?doAllocationLanguage@UnDecorator@@SAHXZ 0052383a f i LIBCMT:undname.obj
 0001:00122848       ?doThisTypes@UnDecorator@@SAHXZ 00523848 f i LIBCMT:undname.obj
 0001:0012285a       ?doAccessSpecifiers@UnDecorator@@SAHXZ 0052385a f i LIBCMT:undname.obj
 0001:00122868       ?doThrowTypes@UnDecorator@@SAHXZ 00523868 f i LIBCMT:undname.obj
 0001:00122876       ?doMemberTypes@UnDecorator@@SAHXZ 00523876 f i LIBCMT:undname.obj
 0001:00122884       ?doNameOnly@UnDecorator@@SAHXZ 00523884 f i LIBCMT:undname.obj
 0001:0012288f       ?doTypeOnly@UnDecorator@@SAHXZ 0052388f f i LIBCMT:undname.obj
 0001:0012289a       ?haveTemplateParameters@UnDecorator@@SAHXZ 0052389a f i LIBCMT:undname.obj
 0001:001228a5       ?doEcsu@UnDecorator@@SAHXZ 005238a5 f i LIBCMT:undname.obj
 0001:001228b3       ?doNoIdentCharCheck@UnDecorator@@SAHXZ 005238b3 f i LIBCMT:undname.obj
 0001:001228be       ?doEllipsis@UnDecorator@@SAHXZ 005238be f i LIBCMT:undname.obj
 0001:001228cc       ?UScore@UnDecorator@@SAPBDW4Tokens@@@Z 005238cc f   LIBCMT:undname.obj
 0001:001228eb       ?getMemory@_HeapManager@@QAEPAXIH@Z 005238eb f   LIBCMT:undname.obj
 0001:00122973       ??0DName@@QAE@XZ           00523973 f i LIBCMT:undname.obj
 0001:00122984       ??0DName@@QAE@ABV0@@Z      00523984 f i LIBCMT:undname.obj
 0001:0012299c       ?isValid@DName@@QBEHXZ     0052399c f i LIBCMT:undname.obj
 0001:001229a6       ?isEmpty@DName@@QBEHXZ     005239a6 f i LIBCMT:undname.obj
 0001:001229ae       ?status@DName@@QBE?AW4DNameStatus@@XZ 005239ae f i LIBCMT:undname.obj
 0001:001229b3       ?setPtrRef@DName@@QAEAAV1@XZ 005239b3 f i LIBCMT:undname.obj
 0001:001229bd       ?isPtrRef@DName@@QBEHXZ    005239bd f i LIBCMT:undname.obj
 0001:001229c7       ?isUDC@DName@@QBEHXZ       005239c7 f i LIBCMT:undname.obj
 0001:001229d8       ?setIsUDC@DName@@QAEXXZ    005239d8 f i LIBCMT:undname.obj
 0001:001229e5       ?isUDTThunk@DName@@QBEHXZ  005239e5 f i LIBCMT:undname.obj
 0001:001229f6       ?setIsArray@DName@@QAEXXZ  005239f6 f i LIBCMT:undname.obj
 0001:001229fe       ?isArray@DName@@QBEHXZ     005239fe f i LIBCMT:undname.obj
 0001:00122a08       ?isNoTE@DName@@QBEHXZ      00523a08 f i LIBCMT:undname.obj
 0001:00122a12       ?setIsNoTE@DName@@QAEXXZ   00523a12 f i LIBCMT:undname.obj
 0001:00122a1a       ?isPinPtr@DName@@QBEHXZ    00523a1a f i LIBCMT:undname.obj
 0001:00122a24       ?setIsPinPtr@DName@@QAEXXZ 00523a24 f i LIBCMT:undname.obj
 0001:00122a2c       ?isComArray@DName@@QBEHXZ  00523a2c f i LIBCMT:undname.obj
 0001:00122a36       ?setIsComArray@DName@@QAEXXZ 00523a36 f i LIBCMT:undname.obj
 0001:00122a3e       ?isVCallThunk@DName@@QBEHXZ 00523a3e f i LIBCMT:undname.obj
 0001:00122a48       ?setIsVCallThunk@DName@@QAEXXZ 00523a48 f i LIBCMT:undname.obj
 0001:00122a50       ?length@DName@@QBEHXZ      00523a50 f i LIBCMT:undname.obj
 0001:00122a5d       ?getLastChar@DName@@QBEDXZ 00523a5d f i LIBCMT:undname.obj
 0001:00122a6b       ?getString@DName@@QBEPADPAD0@Z 00523a6b f i LIBCMT:undname.obj
 0001:00122a83       ??_5DName@@QAEAAV0@ABV0@@Z 00523a83 f   LIBCMT:undname.obj
 0001:00122aa2       ??4DName@@QAEAAV0@ABV0@@Z  00523aa2 f   LIBCMT:undname.obj
 0001:00122aba       ?isFull@Replicator@@QBEHXZ 00523aba f i LIBCMT:undname.obj
 0001:00122ac3       ??0Replicator@@QAE@XZ      00523ac3 f i LIBCMT:undname.obj
 0001:00122ac9       ??0DNameNode@@IAE@XZ       00523ac9 f   LIBCMT:undname.obj
 0001:00122ad2       ??0charNode@@QAE@D@Z       00523ad2 f   LIBCMT:undname.obj
 0001:00122ae9       ?length@charNode@@UBEHXZ   00523ae9 f i LIBCMT:undname.obj
 0001:00122aed       ?getLastChar@charNode@@UBEDXZ 00523aed f i LIBCMT:undname.obj
 0001:00122af1       ?getString@charNode@@UBEPADPAD0@Z 00523af1 f i LIBCMT:undname.obj
 0001:00122b08       ??0pDNameNode@@QAE@PAVDName@@@Z 00523b08 f   LIBCMT:undname.obj
 0001:00122b32       ?length@pDNameNode@@UBEHXZ 00523b32 f i LIBCMT:undname.obj
 0001:00122b48       ?getLastChar@pDNameNode@@UBEDXZ 00523b48 f i LIBCMT:undname.obj
 0001:00122b5f       ?getString@pDNameNode@@UBEPADPAD0@Z 00523b5f f i LIBCMT:undname.obj
 0001:00122b80       ??0DNameStatusNode@@AAE@W4DNameStatus@@@Z 00523b80 f   LIBCMT:undname.obj
 0001:00122ba5       ?length@DNameStatusNode@@UBEHXZ 00523ba5 f i LIBCMT:undname.obj
 0001:00122ba9       ?getLastChar@DNameStatusNode@@UBEDXZ 00523ba9 f i LIBCMT:undname.obj
 0001:00122bb5       ?make@DNameStatusNode@@SAPAV1@W4DNameStatus@@@Z 00523bb5 f i LIBCMT:undname.obj
 0001:00122c3b       ??0pairNode@@QAE@PAVDNameNode@@0@Z 00523c3b f   LIBCMT:undname.obj
 0001:00122c5c       ?length@pairNode@@UBEHXZ   00523c5c f i LIBCMT:undname.obj
 0001:00122c87       ?getLastChar@pairNode@@UBEDXZ 00523c87 f i LIBCMT:undname.obj
 0001:00122ca3       ?getString@pairNode@@UBEPADPAD0@Z 00523ca3 f i LIBCMT:undname.obj
 0001:00122d1d       ??0UnDecorator@@QAE@PADPBDHP6APADJ@ZK@Z 00523d1d f i LIBCMT:undname.obj
 0001:00122d8c       ?getDataIndirectType@UnDecorator@@CA?AVDName@@XZ 00523d8c f i LIBCMT:undname.obj
 0001:00122dc5       ?getThisType@UnDecorator@@CA?AVDName@@XZ 00523dc5 f i LIBCMT:undname.obj
 0001:00122dff       ??2@YAPAXIAAV_HeapManager@@H@Z 00523dff f i LIBCMT:undname.obj
 0001:00122e16       ?getStringHelper@@YAPADPAD00H@Z 00523e16 f i LIBCMT:undname.obj
 0001:00122e4d       ??0DName@@QAE@PAV0@@Z      00523e4d f   LIBCMT:undname.obj
 0001:00122ea0       ??0DName@@QAE@W4DNameStatus@@@Z 00523ea0 f   LIBCMT:undname.obj
 0001:00122ee5       ?getString@DName@@QBEPADPADH@Z 00523ee5 f i LIBCMT:undname.obj
 0001:00122f44       ?append@DName@@AAEXPAVDNameNode@@@Z 00523f44 f   LIBCMT:undname.obj
 0001:00122f8c       ??4DName@@QAEAAV0@PAV0@@Z  00523f8c f   LIBCMT:undname.obj
 0001:00122fd9       ??4DName@@QAEAAV0@W4DNameStatus@@@Z 00523fd9 f   LIBCMT:undname.obj
 0001:00123010       ??YReplicator@@QAEAAV0@ABVDName@@@Z 00524010 f   LIBCMT:undname.obj
 0001:0012305a       ??AReplicator@@QBE?AVDName@@H@Z 0052405a f   LIBCMT:undname.obj
 0001:001230a9       ??0pcharNode@@QAE@PBDH@Z   005240a9 f   LIBCMT:undname.obj
 0001:00123100       ?length@pcharNode@@UBEHXZ  00524100 f i LIBCMT:undname.obj
 0001:00123104       ?getLastChar@pcharNode@@UBEDXZ 00524104 f i LIBCMT:undname.obj
 0001:00123116       ?getString@pcharNode@@UBEPADPAD0@Z 00524116 f i LIBCMT:undname.obj
 0001:00123133       ?getString@DNameStatusNode@@UBEPADPAD0@Z 00524133 f i LIBCMT:undname.obj
 0001:0012315c       ?getReturnType@UnDecorator@@CA?AVDName@@PAV2@@Z 0052415c f   LIBCMT:undname.obj
 0001:0012318d       ?getStorageConvention@UnDecorator@@CA?AVDName@@XZ 0052418d f i LIBCMT:undname.obj
 0001:001231a0       ??YDName@@QAEAAV0@W4DNameStatus@@@Z 005241a0 f   LIBCMT:undname.obj
 0001:001231e2       ?doPchar@DName@@AAEXPBDH@Z 005241e2 f   LIBCMT:undname.obj
 0001:00123265       ??0DName@@QAE@D@Z          00524265 f   LIBCMT:undname.obj
 0001:00123292       ??0DName@@QAE@PBD@Z        00524292 f   LIBCMT:undname.obj
 0001:001232cf       ??0DName@@QAE@AAPBDD@Z     005242cf f   LIBCMT:undname.obj
 0001:0012338e       ??0DName@@QAE@_K@Z         0052438e f   LIBCMT:undname.obj
 0001:001233fc       ??0DName@@QAE@_J@Z         005243fc f   LIBCMT:undname.obj
 0001:00123497       ??HDName@@QBE?AV0@W4DNameStatus@@@Z 00524497 f   LIBCMT:undname.obj
 0001:001234bb       ??YDName@@QAEAAV0@ABV0@@Z  005244bb f   LIBCMT:undname.obj
 0001:001234fe       ??YDName@@QAEAAV0@PAV0@@Z  005244fe f   LIBCMT:undname.obj
 0001:00123565       ??4DName@@QAEAAV0@D@Z      00524565 f i LIBCMT:undname.obj
 0001:00123592       ??4DName@@QAEAAV0@PBD@Z    00524592 f   LIBCMT:undname.obj
 0001:001235c7       ?getCallingConvention@UnDecorator@@CA?AVDName@@XZ 005245c7 f   LIBCMT:undname.obj
 0001:0012368f       ?getVCallThunkType@UnDecorator@@CA?AVDName@@XZ 0052468f f i LIBCMT:undname.obj
 0001:001236da       ??HDName@@QBE?AV0@ABV0@@Z  005246da f   LIBCMT:undname.obj
 0001:001236fe       ??HDName@@QBE?AV0@PAV0@@Z  005246fe f   LIBCMT:undname.obj
 0001:00123722       ??YDName@@QAEAAV0@D@Z      00524722 f   LIBCMT:undname.obj
 0001:00123774       ??YDName@@QAEAAV0@PBD@Z    00524774 f   LIBCMT:undname.obj
 0001:001237d8       ?getArgumentList@UnDecorator@@CA?AVDName@@XZ 005247d8 f   LIBCMT:undname.obj
 0001:001238de       ?getVdispMapType@UnDecorator@@CA?AVDName@@ABV2@@Z 005248de f i LIBCMT:undname.obj
 0001:00123932       ??H@YA?AVDName@@DABV0@@Z   00524932 f i LIBCMT:undname.obj
 0001:00123956       ??H@YA?AVDName@@W4DNameStatus@@ABV0@@Z 00524956 f i LIBCMT:undname.obj
 0001:0012397a       ??H@YA?AVDName@@PBDABV0@@Z 0052497a f i LIBCMT:undname.obj
 0001:0012399e       ??HDName@@QBE?AV0@D@Z      0052499e f   LIBCMT:undname.obj
 0001:001239c2       ??HDName@@QBE?AV0@PBD@Z    005249c2 f   LIBCMT:undname.obj
 0001:001239e6       ?getDimension@UnDecorator@@CA?AVDName@@_N@Z 005249e6 f   LIBCMT:undname.obj
 0001:00123b2c       ?getEnumType@UnDecorator@@CA?AVDName@@XZ 00524b2c f i LIBCMT:undname.obj
 0001:00123c18       ?getArgumentTypes@UnDecorator@@CA?AVDName@@XZ 00524c18 f   LIBCMT:undname.obj
 0001:00123cf8       ?getThrowTypes@UnDecorator@@CA?AVDName@@XZ 00524cf8 f   LIBCMT:undname.obj
 0001:00123d82       ?getExtendedDataIndirectType@UnDecorator@@CA?AVDName@@AAPBDAA_NH@Z 00524d82 f   LIBCMT:undname.obj
 0001:00123f4a       ?getArrayType@UnDecorator@@CA?AVDName@@ABV2@@Z 00524f4a f i LIBCMT:undname.obj
 0001:00124140       ?getLexicalFrame@UnDecorator@@CA?AVDName@@XZ 00525140 f i LIBCMT:undname.obj
 0001:0012417d       ?getDisplacement@UnDecorator@@CA?AVDName@@XZ 0052517d f i LIBCMT:undname.obj
 0001:00124193       ?getCallIndex@UnDecorator@@CA?AVDName@@XZ 00525193 f i LIBCMT:undname.obj
 0001:001241a9       ?getGuardNumber@UnDecorator@@CA?AVDName@@XZ 005251a9 f i LIBCMT:undname.obj
 0001:001241bf       ?getVfTableType@UnDecorator@@CA?AVDName@@ABV2@@Z 005251bf f i LIBCMT:undname.obj
 0001:0012431e       ?getStringEncoding@UnDecorator@@CA?AVDName@@PADH@Z 0052531e f   LIBCMT:undname.obj
 0001:001243d1       ?getSignedDimension@UnDecorator@@CA?AVDName@@XZ 005253d1 f   LIBCMT:undname.obj
 0001:00124423       ?getTemplateConstant@UnDecorator@@CA?AVDName@@XZ 00525423 f   LIBCMT:undname.obj
 0001:00124713       ?getPtrRefDataType@UnDecorator@@CA?AVDName@@ABV2@H@Z 00525713 f i LIBCMT:undname.obj
 0001:001247fa       ?getVbTableType@UnDecorator@@CA?AVDName@@ABV2@@Z 005257fa f i LIBCMT:undname.obj
 0001:00124811       ?getTemplateArgumentList@UnDecorator@@CA?AVDName@@XZ 00525811 f   LIBCMT:undname.obj
 0001:00124a20       ?getOperatorName@UnDecorator@@CA?AVDName@@_NPA_N@Z 00525a20 f i LIBCMT:undname.obj
 0001:00124ff6       ?getTemplateName@UnDecorator@@CA?AVDName@@_N@Z 00525ff6 f   LIBCMT:undname.obj
 0001:0012514d       ?getZName@UnDecorator@@CA?AVDName@@_N0@Z 0052614d f   LIBCMT:undname.obj
 0001:00125363       ?getScopedName@UnDecorator@@CA?AVDName@@XZ 00526363 f   LIBCMT:undname.obj
 0001:00125444       ?getECSUName@UnDecorator@@CA?AVDName@@XZ 00526444 f i LIBCMT:undname.obj
 0001:00125457       ?getECSUDataType@UnDecorator@@CA?AVDName@@XZ 00526457 f   LIBCMT:undname.obj
 0001:00125567       ?getSymbolName@UnDecorator@@CA?AVDName@@XZ 00526567 f i LIBCMT:undname.obj
 0001:001255b1       ?getBasedType@UnDecorator@@CA?AVDName@@XZ 005265b1 f   LIBCMT:undname.obj
 0001:0012564d       ?composeDeclaration@UnDecorator@@CA?AVDName@@ABV2@@Z 0052664d f i LIBCMT:undname.obj
 0001:00126307       ?getDecoratedName@UnDecorator@@CA?AVDName@@XZ 00527307 f   LIBCMT:undname.obj
 0001:00126575       ?getScope@UnDecorator@@CA?AVDName@@XZ 00527575 f   LIBCMT:undname.obj
 0001:0012682c       ?getFunctionIndirectType@UnDecorator@@CA?AVDName@@ABV2@@Z 0052782c f   LIBCMT:undname.obj
 0001:00126c0b       ?getDataIndirectType@UnDecorator@@CA?AVDName@@ABV2@PBD0H@Z 00527c0b f   LIBCMT:undname.obj
 0001:001271aa       ??BUnDecorator@@QAEPADXZ   005281aa f i LIBCMT:undname.obj
 0001:001272e9       ?getPtrRefType@UnDecorator@@CA?AVDName@@ABV2@0PBD@Z 005282e9 f   LIBCMT:undname.obj
 0001:001273e2       ?getPointerType@UnDecorator@@CA?AVDName@@ABV2@0@Z 005283e2 f i LIBCMT:undname.obj
 0001:00127402       ?getPointerTypeArray@UnDecorator@@CA?AVDName@@ABV2@0@Z 00528402 f i LIBCMT:undname.obj
 0001:00127422       ?getReferenceType@UnDecorator@@CA?AVDName@@ABV2@0PBD@Z 00528422 f i LIBCMT:undname.obj
 0001:00127440       ___unDName                 00528440 f   LIBCMT:undname.obj
 0001:001274da       ___unDNameEx               005284da f   LIBCMT:undname.obj
 0001:00127574       ?getBasicDataType@UnDecorator@@CA?AVDName@@ABV2@@Z 00528574 f   LIBCMT:undname.obj
 0001:00127937       ?getPrimaryDataType@UnDecorator@@CA?AVDName@@ABV2@@Z 00528937 f   LIBCMT:undname.obj
 0001:00127ae8       ?getDataType@UnDecorator@@CA?AVDName@@PAV2@@Z 00528ae8 f   LIBCMT:undname.obj
 0001:00127bb7       ?getExternalDataType@UnDecorator@@CA?AVDName@@ABV2@@Z 00528bb7 f i LIBCMT:undname.obj
 0001:00127c30       __set_osfhnd               00528c30 f   LIBCMT:osfinfo.obj
 0001:00127cb1       __free_osfhnd              00528cb1 f   LIBCMT:osfinfo.obj
 0001:00127d37       __get_osfhandle            00528d37 f   LIBCMT:osfinfo.obj
 0001:00127da0       ___lock_fhandle            00528da0 f   LIBCMT:osfinfo.obj
 0001:00127e3f       __unlock_fhandle           00528e3f f   LIBCMT:osfinfo.obj
 0001:00127e66       __alloc_osfhnd             00528e66 f   LIBCMT:osfinfo.obj
 0001:00127fff       __open_osfhandle           00528fff f   LIBCMT:osfinfo.obj
 0001:00128115       __commit                   00529115 f   LIBCMT:commit.obj
 0001:001281ee       __crt_debugger_hook        005291ee f   LIBCMT:dbghook.obj
 0001:001281f6       __fcloseall                005291f6 f   LIBCMT:closeall.obj
 0001:001282a0       __ValidateImageBase        005292a0 f   LIBCMT:pesect.obj
 0001:001282e0       __FindPESection            005292e0 f   LIBCMT:pesect.obj
 0001:00128330       __IsNonwritableInCurrentImage 00529330 f   LIBCMT:pesect.obj
 0001:001283ec       __lseeki64_nolock          005293ec f   LIBCMT:lseeki64.obj
 0001:00128471       __lseeki64                 00529471 f   LIBCMT:lseeki64.obj
 0001:0012855b       __getbuf                   0052955b f   LIBCMT:_getbuf.obj
 0001:001285a4       __isatty                   005295a4 f   LIBCMT:isatty.obj
 0001:001285fa       _printf                    005295fa f   LIBCMT:printf.obj
 0001:001286a1       __printf_l                 005296a1 f   LIBCMT:printf.obj
 0001:001286ba       __printf_s_l               005296ba f   LIBCMT:printf.obj
 0001:001286d3       _printf_s                  005296d3 f   LIBCMT:printf.obj
 0001:001286eb       __printf_p_l               005296eb f   LIBCMT:printf.obj
 0001:00128704       __printf_p                 00529704 f   LIBCMT:printf.obj
 0001:0012871c       __set_printf_count_output  0052971c f   LIBCMT:printf.obj
 0001:00128746       __get_printf_count_output  00529746 f   LIBCMT:printf.obj
 0001:0012875c       __wctomb_s_l               0052975c f   LIBCMT:wctomb.obj
 0001:001288b1       _wctomb_s                  005298b1 f   LIBCMT:wctomb.obj
 0001:001288ce       __wctomb_l                 005298ce f   LIBCMT:wctomb.obj
 0001:0012891f       _wctomb                    0052991f f   LIBCMT:wctomb.obj
 0001:00128951       __validate_param_reuseA    00529951 f   LIBCMT:outputp.obj
 0001:00128b49       _get_crtdouble_arg         00529b49 f i LIBCMT:outputp.obj
 0001:00128b5e       __output_p_l               00529b5e f   LIBCMT:outputp.obj
 0001:00129f17       __output_s_l               0052af17 f   LIBCMT:outputs.obj
 0001:0012b21b       __open                     0052c21b f   LIBCMT:open.obj
 0001:0012b2c9       __sopen_helper             0052c2c9 f   LIBCMT:open.obj
 0001:0012b38d       __sopen                    0052c38d f   LIBCMT:open.obj
 0001:0012b3bf       __sopen_s                  0052c3bf f   LIBCMT:open.obj
 0001:0012b3df       __mbsnbicmp_l              0052c3df f   LIBCMT:mbsnbicm.obj
 0001:0012b5e3       __mbsnbicmp                0052c5e3 f   LIBCMT:mbsnbicm.obj
 0001:0012b5fd       __mbsnbcmp_l               0052c5fd f   LIBCMT:mbsnbcmp.obj
 0001:0012b749       __mbsnbcmp                 0052c749 f   LIBCMT:mbsnbcmp.obj
 0001:0012b770       __global_unwind2           0052c770 f   LIBCMT:exsup.obj
 0001:0012b7d5       __local_unwind2            0052c7d5 f   LIBCMT:exsup.obj
 0001:0012b859       __abnormal_termination     0052c859 f   LIBCMT:exsup.obj
 0001:0012b87c       __NLG_Notify1              0052c87c f   LIBCMT:exsup.obj
 0001:0012b885       __NLG_Notify               0052c885 f   LIBCMT:exsup.obj
 0001:0012b89c       __NLG_Dispatch             0052c89c     LIBCMT:exsup.obj
 0001:0012b89c       __NLG_Dispatch2            0052c89c     LIBCMT:exsup.obj
 0001:0012b8a4       __NLG_Call                 0052c8a4 f   LIBCMT:exsup.obj
 0001:0012b8a6       __NLG_Return2              0052c8a6     LIBCMT:exsup.obj
 0001:0012b8b0       _strrchr                   0052c8b0 f   LIBCMT:strrchr.obj
 0001:0012b8dd       __atodbl_l                 0052c8dd f   LIBCMT:atodbl.obj
 0001:0012b985       __atodbl                   0052c985 f   LIBCMT:atodbl.obj
 0001:0012b99c       __atoldbl_l                0052c99c f   LIBCMT:atodbl.obj
 0001:0012ba45       __atoldbl                  0052ca45 f   LIBCMT:atodbl.obj
 0001:0012ba5c       __atoflt_l                 0052ca5c f   LIBCMT:atodbl.obj
 0001:0012bb04       __atoflt                   0052cb04 f   LIBCMT:atodbl.obj
 0001:0012bb1b       __set_output_format        0052cb1b f   LIBCMT:outputformat.obj
 0001:0012bb4d       __get_output_format        0052cb4d f   LIBCMT:outputformat.obj
 0001:0012bb53       __fptostr                  0052cb53 f   LIBCMT:_fptostr.obj
 0001:0012bc06       ___dtold                   0052cc06 f   LIBCMT:_cfout_.obj
 0001:0012bcb9       __fltout2                  0052ccb9 f   LIBCMT:_cfout_.obj
 0001:0012bd50       __alldvrm                  0052cd50 f   LIBCMT:lldvrm.obj
 0001:0012be30       __aullshr                  0052ce30 f   LIBCMT:ullshr.obj
 0001:0012be4f       __fptrap                   0052ce4f f   LIBCMT:crt0fp.obj
 0001:0012be58       __controlfp_s              0052ce58 f   LIBCMT:_contrlfp_.obj
 0001:0012beb7       __initp_misc_rand_s        0052ceb7 f   LIBCMT:rand_s.obj
 0001:0012bec6       _rand_s                    0052cec6 f   LIBCMT:rand_s.obj
 0001:0012bfc0       __allmul                   0052cfc0 f   LIBCMT:llmul.obj
 0001:0012bff4       __matherr                  0052cff4 f   LIBCMT:_matherr_.obj
 0001:0012bff7       __raise_exc_ex             0052cff7 f   LIBCMT:_fpexcept_.obj
 0001:0012c2d3       __raise_exc                0052d2d3 f   LIBCMT:_fpexcept_.obj
 0001:0012c2f6       __raise_excf               0052d2f6 f   LIBCMT:_fpexcept_.obj
 0001:0012c319       __handle_exc               0052d319 f   LIBCMT:_fpexcept_.obj
 0001:0012c4fd       __set_errno_from_matherr   0052d4fd f   LIBCMT:_fpexcept_.obj
 0001:0012c550       __errcode                  0052d550 f   LIBCMT:_fpexcept_.obj
 0001:0012c584       __umatherr                 0052d584 f   LIBCMT:_fpexcept_.obj
 0001:0012c624       __handle_qnan1             0052d624 f   LIBCMT:_fpexcept_.obj
 0001:0012c679       __handle_qnan2             0052d679 f   LIBCMT:_fpexcept_.obj
 0001:0012c6da       __except1                  0052d6da f   LIBCMT:_fpexcept_.obj
 0001:0012c7a4       __except2                  0052d7a4 f   LIBCMT:_fpexcept_.obj
 0001:0012c87e       __frnd                     0052d87e f   LIBCMT:_frnd_.obj
 0001:0012c892       __set_exp                  0052d892 f   LIBCMT:_util_.obj
 0001:0012c8bf       __get_exp                  0052d8bf f   LIBCMT:_util_.obj
 0001:0012c8d8       __add_exp                  0052d8d8 f   LIBCMT:_util_.obj
 0001:0012c906       __set_bexp                 0052d906 f   LIBCMT:_util_.obj
 0001:0012c92e       __sptype                   0052d92e f   LIBCMT:_util_.obj
 0001:0012c994       __decomp                   0052d994 f   LIBCMT:_util_.obj
 0001:0012ca57       __statfp                   0052da57 f   LIBCMT:_fpctrl_.obj
 0001:0012ca67       __clrfp                    0052da67 f   LIBCMT:_fpctrl_.obj
 0001:0012ca78       __ctrlfp                   0052da78 f   LIBCMT:_fpctrl_.obj
 0001:0012caa3       __set_statfp               0052daa3 f   LIBCMT:_fpctrl_.obj
 0001:0012cafb       ___get_fpsr_sse2           0052dafb f   LIBCMT:_fpctrl_.obj
 0001:0012cb19       ___set_fpsr_sse2           0052db19 f   LIBCMT:_fpctrl_.obj
 0001:0012cb8b       ___fclrf_sse2              0052db8b f   LIBCMT:_fpctrl_.obj
 0001:0012cba8       ___statfp_sse2             0052dba8 f   LIBCMT:_fpctrl_.obj
 0001:0012cbbb       ___clrfp_sse2              0052dbbb f   LIBCMT:_fpctrl_.obj
 0001:0012cbd3       ___ctrlfp_sse2             0052dbd3 f   LIBCMT:_fpctrl_.obj
 0001:0012cc0a       ___set_statfp_sse2         0052dc0a f   LIBCMT:_fpctrl_.obj
 0001:0012cc25       __87except                 0052dc25 f   LIBCMT:_87except_.obj
 0001:0012cd64       __d_inttype                0052dd64 f   LIBCMT:_powhlp_.obj
 0001:0012cdce       __powhlp                   0052ddce f   LIBCMT:_powhlp_.obj
 0001:0012cef9       _iswctype                  0052def9 f   LIBCMT:iswctype.obj
 0001:0012cf4e       _is_wctype                 0052df4e f   LIBCMT:iswctype.obj
 0001:0012cf59       __iswctype_l               0052df59 f   LIBCMT:iswctype.obj
 0001:0012cf6d       __putwch_nolock            0052df6d f   LIBCMT:putwch.obj
 0001:0012cfaf       __putwch                   0052dfaf f   LIBCMT:putwch.obj
 0001:0012cff5       __mbtowc_l                 0052dff5 f   LIBCMT:mbtowc.obj
 0001:0012d10b       _mbtowc                    0052e10b f   LIBCMT:mbtowc.obj
 0001:0012d125       __ungetc_nolock            0052e125 f   LIBCMT:ungetc.obj
 0001:0012d208       _ungetc                    0052e208 f   LIBCMT:ungetc.obj
 0001:0012d271       ___crtMessageBoxW          0052e271 f   LIBCMT:crtmboxw.obj
 0001:0012d3dd       _wcscat_s                  0052e3dd f   LIBCMT:wcscat_s.obj
 0001:0012d452       _wcsncpy_s                 0052e452 f   LIBCMT:wcsncpy_s.obj
 0001:0012d51f       _wcslen                    0052e51f f   LIBCMT:wcslen.obj
 0001:0012d53a       _wcscpy_s                  0052e53a f   LIBCMT:wcscpy_s.obj
 0001:0012d59d       __set_error_mode           0052e59d f   LIBCMT:errmode.obj
 0001:0012d5dc       ___set_app_type            0052e5dc f   LIBCMT:errmode.obj
 0001:0012d6c5       ___crtGetLocaleInfoA       0052e6c5 f   LIBCMT:a_loc.obj
 0001:0012d752       __ismbbkalnum_l            0052e752 f   LIBCMT:ismbbyte.obj
 0001:0012d76b       __ismbbkalnum              0052e76b f   LIBCMT:ismbbyte.obj
 0001:0012d783       __ismbbkprint_l            0052e783 f   LIBCMT:ismbbyte.obj
 0001:0012d79c       __ismbbkprint              0052e79c f   LIBCMT:ismbbyte.obj
 0001:0012d7b4       __ismbbkpunct_l            0052e7b4 f   LIBCMT:ismbbyte.obj
 0001:0012d7cd       __ismbbkpunct              0052e7cd f   LIBCMT:ismbbyte.obj
 0001:0012d7e5       __ismbbalnum_l             0052e7e5 f   LIBCMT:ismbbyte.obj
 0001:0012d801       __ismbbalnum               0052e801 f   LIBCMT:ismbbyte.obj
 0001:0012d81c       __ismbbalpha_l             0052e81c f   LIBCMT:ismbbyte.obj
 0001:0012d838       __ismbbalpha               0052e838 f   LIBCMT:ismbbyte.obj
 0001:0012d853       __ismbbgraph_l             0052e853 f   LIBCMT:ismbbyte.obj
 0001:0012d86f       __ismbbgraph               0052e86f f   LIBCMT:ismbbyte.obj
 0001:0012d88a       __ismbbprint_l             0052e88a f   LIBCMT:ismbbyte.obj
 0001:0012d8a6       __ismbbprint               0052e8a6 f   LIBCMT:ismbbyte.obj
 0001:0012d8c1       __ismbbpunct_l             0052e8c1 f   LIBCMT:ismbbyte.obj
 0001:0012d8da       __ismbbpunct               0052e8da f   LIBCMT:ismbbyte.obj
 0001:0012d8f2       __ismbblead_l              0052e8f2 f   LIBCMT:ismbbyte.obj
 0001:0012d90b       __ismbblead                0052e90b f   LIBCMT:ismbbyte.obj
 0001:0012d923       __ismbbtrail_l             0052e923 f   LIBCMT:ismbbyte.obj
 0001:0012d93c       __ismbbtrail               0052e93c f   LIBCMT:ismbbyte.obj
 0001:0012d954       __ismbbkana_l              0052e954 f   LIBCMT:ismbbyte.obj
 0001:0012d9a9       __ismbbkana                0052e9a9 f   LIBCMT:ismbbyte.obj
 0001:0012d9bc       ___ascii_stricmp           0052e9bc f   LIBCMT:stricmp.obj
 0001:0012d9f5       __stricmp_l                0052e9f5 f   LIBCMT:stricmp.obj
 0001:0012dab5       __stricmp                  0052eab5 f   LIBCMT:stricmp.obj
 0001:0012dbb6       __itoa_s                   0052ebb6 f   LIBCMT:xtoas.obj
 0001:0012dbe0       __ltoa_s                   0052ebe0 f   LIBCMT:xtoas.obj
 0001:0012dc07       __ultoa_s                  0052ec07 f   LIBCMT:xtoas.obj
 0001:0012dd0d       __i64toa_s                 0052ed0d f   LIBCMT:xtoas.obj
 0001:0012dd42       __ui64toa_s                0052ed42 f   LIBCMT:xtoas.obj
 0001:0012dd61       _vprintf_helper            0052ed61 f   LIBCMT:vprintf.obj
 0001:0012dde6       __vprintf_l                0052ede6 f   LIBCMT:vprintf.obj
 0001:0012de03       __vprintf_s_l              0052ee03 f   LIBCMT:vprintf.obj
 0001:0012de20       __vprintf_p_l              0052ee20 f   LIBCMT:vprintf.obj
 0001:0012de3d       _vprintf                   0052ee3d f   LIBCMT:vprintf.obj
 0001:0012de59       _vprintf_s                 0052ee59 f   LIBCMT:vprintf.obj
 0001:0012de75       __vprintf_p                0052ee75 f   LIBCMT:vprintf.obj
 0001:0012de91       __chsize_nolock            0052ee91 f   LIBCMT:chsize.obj
 0001:0012e047       __chsize_s                 0052f047 f   LIBCMT:chsize.obj
 0001:0012e12e       __chsize                   0052f12e f   LIBCMT:chsize.obj
 0001:0012e14a       __setmode_nolock           0052f14a f   LIBCMT:setmode.obj
 0001:0012e205       __set_fmode                0052f205 f   LIBCMT:setmode.obj
 0001:0012e247       __get_fmode                0052f247 f   LIBCMT:setmode.obj
 0001:0012e274       __setmode                  0052f274 f   LIBCMT:setmode.obj
 0001:0012e35f       ___addl                    0052f35f f i LIBCMT:_intrncvt_.obj
 0001:0012e383       __ZeroTail                 0052f383 f i LIBCMT:_intrncvt_.obj
 0001:0012e3cc       __IncMan                   0052f3cc f i LIBCMT:_intrncvt_.obj
 0001:0012e439       __RoundMan                 0052f439 f i LIBCMT:_intrncvt_.obj
 0001:0012e525       __CopyMan                  0052f525 f i LIBCMT:_intrncvt_.obj
 0001:0012e544       __FillZeroMan              0052f544 f i LIBCMT:_intrncvt_.obj
 0001:0012e555       __IsZeroMan                0052f555 f i LIBCMT:_intrncvt_.obj
 0001:0012e574       __ShrMan                   0052f574 f i LIBCMT:_intrncvt_.obj
 0001:0012e60c       __ld12cvt                  0052f60c f i LIBCMT:_intrncvt_.obj
 0001:0012eb5b       __ld12tod                  0052fb5b f   LIBCMT:_intrncvt_.obj
 0001:0012f0ac       __ld12tof                  005300ac f   LIBCMT:_intrncvt_.obj
 0001:0012f5fd       __ld12told                 005305fd f   LIBCMT:_intrncvt_.obj
 0001:0012f6da       ___shl_12                  005306da f i LIBCMT:_strgtold_.obj
 0001:0012f70d       ___shr_12                  0053070d f i LIBCMT:_strgtold_.obj
 0001:0012f73f       ___ld12mul                 0053073f f i LIBCMT:_strgtold_.obj
 0001:0012f9ba       ___multtenpow12            005309ba f i LIBCMT:_strgtold_.obj
 0001:0012fcb9       ___strgtold12_l            00530cb9 f   LIBCMT:_strgtold_.obj
 0001:00130395       ___STRINGTOLD_L            00531395 f   LIBCMT:_strgtold_.obj
 0001:001303f0       ___add_12                  005313f0 f i LIBCMT:_x10fout_.obj
 0001:00130461       _$I10_OUTPUT               00531461 f   LIBCMT:_x10fout_.obj
 0001:00130d59       __set_controlfp            00531d59 f   LIBCMT:_ieee87_.obj
 0001:001310cb       __statusfp                 005320cb f   LIBCMT:_ieee87_.obj
 0001:0013115d       __fpreset                  0053215d f   LIBCMT:_ieee87_.obj
 0001:00131396       __statusfp2                00532396 f   LIBCMT:_ieee87_.obj
 0001:001313f0       __clearfp                  005323f0 f   LIBCMT:_ieee87_.obj
 0001:001314c9       ___control87_2             005324c9 f   LIBCMT:_ieee87_.obj
 0001:001317e0       __control87                005327e0 f i LIBCMT:_ieee87_.obj
 0001:00131af2       __controlfp                00532af2 f   LIBCMT:_ieee87_.obj
 0001:00131e07       __copysign                 00532e07 f   LIBCMT:_ieeemisc_.obj
 0001:00131e2f       __chgsign                  00532e2f f   LIBCMT:_ieeemisc_.obj
 0001:00131e5c       __scalb                    00532e5c f   LIBCMT:_ieeemisc_.obj
 0001:00131e76       __logb                     00532e76 f   LIBCMT:_ieeemisc_.obj
 0001:00131f5f       __nextafter                00532f5f f   LIBCMT:_ieeemisc_.obj
 0001:00132211       __finite                   00533211 f   LIBCMT:_ieeemisc_.obj
 0001:0013222d       __isnan                    0053322d f   LIBCMT:_ieeemisc_.obj
 0001:00132265       __fpclass                  00533265 f   LIBCMT:_ieeemisc_.obj
 0001:00132302       ___initconout              00533302 f   LIBCMT:initcon.obj
 0001:00132321       ___termconout              00533321 f   LIBCMT:initcon.obj
 0001:00132338       ___mtold12                 00533338 f   LIBCMT:_mantold_.obj
 0001:0013251c       _ldexp                     0053351c f   LIBCMT:_ldexp_.obj
 0001:001326ce       _InterlockedIncrement@4    005336ce f   kernel32:KERNEL32.dll
 0001:001326d4       _InterlockedDecrement@4    005336d4 f   kernel32:KERNEL32.dll
 0001:001326da       _InterlockedExchange@8     005336da f   kernel32:KERNEL32.dll
 0001:001326e0       _InitializeCriticalSection@4 005336e0 f   kernel32:KERNEL32.dll
 0001:001326e6       _DeleteCriticalSection@4   005336e6 f   kernel32:KERNEL32.dll
 0001:001326ec       _EnterCriticalSection@4    005336ec f   kernel32:KERNEL32.dll
 0001:001326f2       _LeaveCriticalSection@4    005336f2 f   kernel32:KERNEL32.dll
 0001:001326f8       _EncodePointer@4           005336f8 f   kernel32:KERNEL32.dll
 0001:001326fe       _DecodePointer@4           005336fe f   kernel32:KERNEL32.dll
 0001:00132704       _RaiseException@16         00533704 f   kernel32:KERNEL32.dll
 0001:0013270a       _RtlUnwind@16              0053370a f   kernel32:KERNEL32.dll
 0001:00132710       _GetSystemTimeAsFileTime@4 00533710 f   kernel32:KERNEL32.dll
 0001:00132716       _GetLastError@0            00533716 f   kernel32:KERNEL32.dll
 0001:0013271c       _WideCharToMultiByte@32    0053371c f   kernel32:KERNEL32.dll
 0001:00132722       _CreateDirectoryA@8        00533722 f   kernel32:KERNEL32.dll
 0001:00132728       _GetFileAttributesA@4      00533728 f   kernel32:KERNEL32.dll
 0001:0013272e       _GetCommandLineA@0         0053372e f   kernel32:KERNEL32.dll
 0001:00132734       _HeapSetInformation@16     00533734 f   kernel32:KERNEL32.dll
 0001:0013273a       _GetStartupInfoW@4         0053373a f   kernel32:KERNEL32.dll
 0001:00132740       _LCMapStringW@24           00533740 f   kernel32:KERNEL32.dll
 0001:00132746       _MultiByteToWideChar@24    00533746 f   kernel32:KERNEL32.dll
 0001:0013274c       _GetCPInfo@8               0053374c f   kernel32:KERNEL32.dll
 0001:00132752       _IsProcessorFeaturePresent@4 00533752 f   kernel32:KERNEL32.dll
 0001:00132758       _UnhandledExceptionFilter@4 00533758 f   kernel32:KERNEL32.dll
 0001:0013275e       _SetUnhandledExceptionFilter@4 0053375e f   kernel32:KERNEL32.dll
 0001:00132764       _IsDebuggerPresent@0       00533764 f   kernel32:KERNEL32.dll
 0001:0013276a       _TerminateProcess@8        0053376a f   kernel32:KERNEL32.dll
 0001:00132770       _SetHandleCount@4          00533770 f   kernel32:KERNEL32.dll
 0001:00132776       _GetStdHandle@4            00533776 f   kernel32:KERNEL32.dll
 0001:0013277c       _InitializeCriticalSectionAndSpinCount@8 0053377c f   kernel32:KERNEL32.dll
 0001:00132782       _GetFileType@4             00533782 f   kernel32:KERNEL32.dll
 0001:00132788       _TlsAlloc@0                00533788 f   kernel32:KERNEL32.dll
 0001:0013278e       _TlsGetValue@4             0053378e f   kernel32:KERNEL32.dll
 0001:00132794       _TlsSetValue@8             00533794 f   kernel32:KERNEL32.dll
 0001:0013279a       _TlsFree@4                 0053379a f   kernel32:KERNEL32.dll
 0001:001327a0       _GetModuleHandleW@4        005337a0 f   kernel32:KERNEL32.dll
 0001:001327a6       _SetLastError@4            005337a6 f   kernel32:KERNEL32.dll
 0001:001327ac       _GetCurrentThreadId@0      005337ac f   kernel32:KERNEL32.dll
 0001:001327b2       _GetCurrentThread@0        005337b2 f   kernel32:KERNEL32.dll
 0001:001327b8       _HeapSize@12               005337b8 f   kernel32:KERNEL32.dll
 0001:001327be       _ExitProcess@4             005337be f   kernel32:KERNEL32.dll
 0001:001327c4       _GetACP@0                  005337c4 f   kernel32:KERNEL32.dll
 0001:001327ca       _GetOEMCP@0                005337ca f   kernel32:KERNEL32.dll
 0001:001327d0       _IsValidCodePage@4         005337d0 f   kernel32:KERNEL32.dll
 0001:001327d6       _GetConsoleCP@0            005337d6 f   kernel32:KERNEL32.dll
 0001:001327dc       _GetConsoleMode@8          005337dc f   kernel32:KERNEL32.dll
 0001:001327e2       _HeapCreate@12             005337e2 f   kernel32:KERNEL32.dll
 0001:001327e8       _HeapDestroy@4             005337e8 f   kernel32:KERNEL32.dll
 0001:001327ee       _GetModuleFileNameW@12     005337ee f   kernel32:KERNEL32.dll
 0001:001327f4       _GetLocaleInfoW@16         005337f4 f   kernel32:KERNEL32.dll
 0001:001327fa       _GetModuleFileNameA@12     005337fa f   kernel32:KERNEL32.dll
 0001:00132800       _FreeEnvironmentStringsW@4 00533800 f   kernel32:KERNEL32.dll
 0001:00132806       _GetEnvironmentStringsW@0  00533806 f   kernel32:KERNEL32.dll
 0001:0013280c       _QueryPerformanceCounter@4 0053380c f   kernel32:KERNEL32.dll
 0001:00132812       _GetTickCount@0            00533812 f   kernel32:KERNEL32.dll
 0001:00132818       _GetStringTypeW@16         00533818 f   kernel32:KERNEL32.dll
 0001:0013281e       _HeapReAlloc@16            0053381e f   kernel32:KERNEL32.dll
 0001:00132824       _FatalAppExitA@8           00533824 f   kernel32:KERNEL32.dll
 0001:0013282a       _GetUserDefaultLCID@0      0053382a f   kernel32:KERNEL32.dll
 0001:00132830       _GetLocaleInfoA@16         00533830 f   kernel32:KERNEL32.dll
 0001:00132836       _EnumSystemLocalesA@8      00533836 f   kernel32:KERNEL32.dll
 0001:0013283c       _IsValidLocale@8           0053383c f   kernel32:KERNEL32.dll
 0001:00132842       _SetConsoleCtrlHandler@8   00533842 f   kernel32:KERNEL32.dll
 0001:00132848       _SetStdHandle@8            00533848 f   kernel32:KERNEL32.dll
 0001:0013284e       _FlushFileBuffers@4        0053384e f   kernel32:KERNEL32.dll
 0001:00132854       _LoadLibraryW@4            00533854 f   kernel32:KERNEL32.dll
 0001:0013285a       _WriteConsoleW@20          0053385a f   kernel32:KERNEL32.dll
 0001:00132860       _SetEndOfFile@4            00533860 f   kernel32:KERNEL32.dll
 0001:00132866       _CreateFileW@28            00533866 f   kernel32:KERNEL32.dll
 0002:00000000       ___xc_a                    00548000     LIBCMT:crt0init.obj
 0002:00000460       ___xc_z                    00548460     LIBCMT:crt0init.obj
 0002:00000564       ___xi_a                    00548564     LIBCMT:crt0init.obj
 0002:00000884       ___xi_z                    00548884     LIBCMT:crt0init.obj
 0002:00000988       ___xp_a                    00548988     LIBCMT:crt0init.obj
 0002:00000c94       ___xp_z                    00548c94     LIBCMT:crt0init.obj
 0002:00000d98       ___xt_a                    00548d98     LIBCMT:crt0init.obj
 0002:00000e9c       ___xt_z                    00548e9c     LIBCMT:crt0init.obj
 0002:00000fbc       ?has_denorm@_Num_base@std@@2W4float_denorm_style@2@B 00548fbc     buffer.obj
 0002:00000fc0       ?has_denorm_loss@_Num_base@std@@2_NB 00548fc0     buffer.obj
 0002:00000fc1       ?has_infinity@_Num_base@std@@2_NB 00548fc1     buffer.obj
 0002:00000fc2       ?has_quiet_NaN@_Num_base@std@@2_NB 00548fc2     buffer.obj
 0002:00000fc3       ?has_signaling_NaN@_Num_base@std@@2_NB 00548fc3     buffer.obj
 0002:00000fc4       ?is_bounded@_Num_base@std@@2_NB 00548fc4     buffer.obj
 0002:00000fc5       ?is_exact@_Num_base@std@@2_NB 00548fc5     buffer.obj
 0002:00000fc6       ?is_iec559@_Num_base@std@@2_NB 00548fc6     buffer.obj
 0002:00000fc7       ?is_integer@_Num_base@std@@2_NB 00548fc7     buffer.obj
 0002:00000fc8       ?is_modulo@_Num_base@std@@2_NB 00548fc8     buffer.obj
 0002:00000fc9       ?is_signed@_Num_base@std@@2_NB 00548fc9     buffer.obj
 0002:00000fca       ?is_specialized@_Num_base@std@@2_NB 00548fca     buffer.obj
 0002:00000fcb       ?tinyness_before@_Num_base@std@@2_NB 00548fcb     buffer.obj
 0002:00000fcc       ?traps@_Num_base@std@@2_NB 00548fcc     buffer.obj
 0002:00000fd0       ?round_style@_Num_base@std@@2W4float_round_style@2@B 00548fd0     buffer.obj
 0002:00000fd4       ?digits@_Num_base@std@@2HB 00548fd4     buffer.obj
 0002:00000fd8       ?digits10@_Num_base@std@@2HB 00548fd8     buffer.obj
 0002:00000fdc       ?max_digits10@_Num_base@std@@2HB 00548fdc     buffer.obj
 0002:00000fe0       ?max_exponent@_Num_base@std@@2HB 00548fe0     buffer.obj
 0002:00000fe4       ?max_exponent10@_Num_base@std@@2HB 00548fe4     buffer.obj
 0002:00000fe8       ?min_exponent@_Num_base@std@@2HB 00548fe8     buffer.obj
 0002:00000fec       ?min_exponent10@_Num_base@std@@2HB 00548fec     buffer.obj
 0002:00000ff0       ?radix@_Num_base@std@@2HB  00548ff0     buffer.obj
 0002:00000ff4       ?is_bounded@_Num_int_base@std@@2_NB 00548ff4     buffer.obj
 0002:00000ff5       ?is_exact@_Num_int_base@std@@2_NB 00548ff5     buffer.obj
 0002:00000ff6       ?is_integer@_Num_int_base@std@@2_NB 00548ff6     buffer.obj
 0002:00000ff7       ?is_modulo@_Num_int_base@std@@2_NB 00548ff7     buffer.obj
 0002:00000ff8       ?is_specialized@_Num_int_base@std@@2_NB 00548ff8     buffer.obj
 0002:00000ffc       ?radix@_Num_int_base@std@@2HB 00548ffc     buffer.obj
 0002:00001000       ?has_denorm@_Num_float_base@std@@2W4float_denorm_style@2@B 00549000     buffer.obj
 0002:00001004       ?has_denorm_loss@_Num_float_base@std@@2_NB 00549004     buffer.obj
 0002:00001005       ?has_infinity@_Num_float_base@std@@2_NB 00549005     buffer.obj
 0002:00001006       ?has_quiet_NaN@_Num_float_base@std@@2_NB 00549006     buffer.obj
 0002:00001007       ?has_signaling_NaN@_Num_float_base@std@@2_NB 00549007     buffer.obj
 0002:00001008       ?is_bounded@_Num_float_base@std@@2_NB 00549008     buffer.obj
 0002:00001009       ?is_exact@_Num_float_base@std@@2_NB 00549009     buffer.obj
 0002:0000100a       ?is_iec559@_Num_float_base@std@@2_NB 0054900a     buffer.obj
 0002:0000100b       ?is_integer@_Num_float_base@std@@2_NB 0054900b     buffer.obj
 0002:0000100c       ?is_modulo@_Num_float_base@std@@2_NB 0054900c     buffer.obj
 0002:0000100d       ?is_signed@_Num_float_base@std@@2_NB 0054900d     buffer.obj
 0002:0000100e       ?is_specialized@_Num_float_base@std@@2_NB 0054900e     buffer.obj
 0002:0000100f       ?tinyness_before@_Num_float_base@std@@2_NB 0054900f     buffer.obj
 0002:00001010       ?traps@_Num_float_base@std@@2_NB 00549010     buffer.obj
 0002:00001014       ?round_style@_Num_float_base@std@@2W4float_round_style@2@B 00549014     buffer.obj
 0002:00001018       ?radix@_Num_float_base@std@@2HB 00549018     buffer.obj
 0002:0000101c       ?is_signed@?$numeric_limits@D@std@@2_NB 0054901c     buffer.obj
 0002:00001020       ?digits@?$numeric_limits@D@std@@2HB 00549020     buffer.obj
 0002:00001024       ?digits10@?$numeric_limits@D@std@@2HB 00549024     buffer.obj
 0002:00001028       ?max_digits10@?$numeric_limits@D@std@@2HB 00549028     buffer.obj
 0002:0000102c       ?is_signed@?$numeric_limits@_W@std@@2_NB 0054902c     buffer.obj
 0002:00001030       ?digits@?$numeric_limits@_W@std@@2HB 00549030     buffer.obj
 0002:00001034       ?digits10@?$numeric_limits@_W@std@@2HB 00549034     buffer.obj
 0002:00001038       ?max_digits10@?$numeric_limits@_W@std@@2HB 00549038     buffer.obj
 0002:0000103c       ?is_modulo@?$numeric_limits@_N@std@@2_NB 0054903c     buffer.obj
 0002:0000103d       ?is_signed@?$numeric_limits@_N@std@@2_NB 0054903d     buffer.obj
 0002:00001040       ?digits@?$numeric_limits@_N@std@@2HB 00549040     buffer.obj
 0002:00001044       ?digits10@?$numeric_limits@_N@std@@2HB 00549044     buffer.obj
 0002:00001048       ?max_digits10@?$numeric_limits@_N@std@@2HB 00549048     buffer.obj
 0002:0000104c       ?is_signed@?$numeric_limits@C@std@@2_NB 0054904c     buffer.obj
 0002:00001050       ?digits@?$numeric_limits@C@std@@2HB 00549050     buffer.obj
 0002:00001054       ?digits10@?$numeric_limits@C@std@@2HB 00549054     buffer.obj
 0002:00001058       ?max_digits10@?$numeric_limits@C@std@@2HB 00549058     buffer.obj
 0002:0000105c       ?is_signed@?$numeric_limits@E@std@@2_NB 0054905c     buffer.obj
 0002:00001060       ?digits@?$numeric_limits@E@std@@2HB 00549060     buffer.obj
 0002:00001064       ?digits10@?$numeric_limits@E@std@@2HB 00549064     buffer.obj
 0002:00001068       ?max_digits10@?$numeric_limits@E@std@@2HB 00549068     buffer.obj
 0002:0000106c       ?is_signed@?$numeric_limits@F@std@@2_NB 0054906c     buffer.obj
 0002:00001070       ?digits@?$numeric_limits@F@std@@2HB 00549070     buffer.obj
 0002:00001074       ?digits10@?$numeric_limits@F@std@@2HB 00549074     buffer.obj
 0002:00001078       ?max_digits10@?$numeric_limits@F@std@@2HB 00549078     buffer.obj
 0002:0000107c       ?is_signed@?$numeric_limits@G@std@@2_NB 0054907c     buffer.obj
 0002:00001080       ?digits@?$numeric_limits@G@std@@2HB 00549080     buffer.obj
 0002:00001084       ?digits10@?$numeric_limits@G@std@@2HB 00549084     buffer.obj
 0002:00001088       ?max_digits10@?$numeric_limits@G@std@@2HB 00549088     buffer.obj
 0002:0000108c       ?is_signed@?$numeric_limits@H@std@@2_NB 0054908c     buffer.obj
 0002:00001090       ?digits@?$numeric_limits@H@std@@2HB 00549090     buffer.obj
 0002:00001094       ?digits10@?$numeric_limits@H@std@@2HB 00549094     buffer.obj
 0002:00001098       ?max_digits10@?$numeric_limits@H@std@@2HB 00549098     buffer.obj
 0002:0000109c       ?is_signed@?$numeric_limits@I@std@@2_NB 0054909c     buffer.obj
 0002:000010a0       ?digits@?$numeric_limits@I@std@@2HB 005490a0     buffer.obj
 0002:000010a4       ?digits10@?$numeric_limits@I@std@@2HB 005490a4     buffer.obj
 0002:000010a8       ?max_digits10@?$numeric_limits@I@std@@2HB 005490a8     buffer.obj
 0002:000010ac       ?is_signed@?$numeric_limits@J@std@@2_NB 005490ac     buffer.obj
 0002:000010b0       ?digits@?$numeric_limits@J@std@@2HB 005490b0     buffer.obj
 0002:000010b4       ?digits10@?$numeric_limits@J@std@@2HB 005490b4     buffer.obj
 0002:000010b8       ?max_digits10@?$numeric_limits@J@std@@2HB 005490b8     buffer.obj
 0002:000010bc       ?is_signed@?$numeric_limits@K@std@@2_NB 005490bc     buffer.obj
 0002:000010c0       ?digits@?$numeric_limits@K@std@@2HB 005490c0     buffer.obj
 0002:000010c4       ?digits10@?$numeric_limits@K@std@@2HB 005490c4     buffer.obj
 0002:000010c8       ?max_digits10@?$numeric_limits@K@std@@2HB 005490c8     buffer.obj
 0002:000010cc       ?is_signed@?$numeric_limits@_J@std@@2_NB 005490cc     buffer.obj
 0002:000010d0       ?digits@?$numeric_limits@_J@std@@2HB 005490d0     buffer.obj
 0002:000010d4       ?digits10@?$numeric_limits@_J@std@@2HB 005490d4     buffer.obj
 0002:000010d8       ?max_digits10@?$numeric_limits@_J@std@@2HB 005490d8     buffer.obj
 0002:000010dc       ?is_signed@?$numeric_limits@_K@std@@2_NB 005490dc     buffer.obj
 0002:000010e0       ?digits@?$numeric_limits@_K@std@@2HB 005490e0     buffer.obj
 0002:000010e4       ?digits10@?$numeric_limits@_K@std@@2HB 005490e4     buffer.obj
 0002:000010e8       ?max_digits10@?$numeric_limits@_K@std@@2HB 005490e8     buffer.obj
 0002:000010ec       ?digits@?$numeric_limits@M@std@@2HB 005490ec     buffer.obj
 0002:000010f0       ?digits10@?$numeric_limits@M@std@@2HB 005490f0     buffer.obj
 0002:000010f4       ?max_digits10@?$numeric_limits@M@std@@2HB 005490f4     buffer.obj
 0002:000010f8       ?max_exponent@?$numeric_limits@M@std@@2HB 005490f8     buffer.obj
 0002:000010fc       ?max_exponent10@?$numeric_limits@M@std@@2HB 005490fc     buffer.obj
 0002:00001100       ?min_exponent@?$numeric_limits@M@std@@2HB 00549100     buffer.obj
 0002:00001104       ?min_exponent10@?$numeric_limits@M@std@@2HB 00549104     buffer.obj
 0002:00001108       ?digits@?$numeric_limits@N@std@@2HB 00549108     buffer.obj
 0002:0000110c       ?digits10@?$numeric_limits@N@std@@2HB 0054910c     buffer.obj
 0002:00001110       ?max_digits10@?$numeric_limits@N@std@@2HB 00549110     buffer.obj
 0002:00001114       ?max_exponent@?$numeric_limits@N@std@@2HB 00549114     buffer.obj
 0002:00001118       ?max_exponent10@?$numeric_limits@N@std@@2HB 00549118     buffer.obj
 0002:0000111c       ?min_exponent@?$numeric_limits@N@std@@2HB 0054911c     buffer.obj
 0002:00001120       ?min_exponent10@?$numeric_limits@N@std@@2HB 00549120     buffer.obj
 0002:00001124       ?digits@?$numeric_limits@O@std@@2HB 00549124     buffer.obj
 0002:00001128       ?digits10@?$numeric_limits@O@std@@2HB 00549128     buffer.obj
 0002:0000112c       ?max_digits10@?$numeric_limits@O@std@@2HB 0054912c     buffer.obj
 0002:00001130       ?max_exponent@?$numeric_limits@O@std@@2HB 00549130     buffer.obj
 0002:00001134       ?max_exponent10@?$numeric_limits@O@std@@2HB 00549134     buffer.obj
 0002:00001138       ?min_exponent@?$numeric_limits@O@std@@2HB 00549138     buffer.obj
 0002:0000113c       ?min_exponent10@?$numeric_limits@O@std@@2HB 0054913c     buffer.obj
 0002:00001140       ?value@?$integral_constant@_N$0A@@tr1@std@@2_NB 00549140     buffer.obj
 0002:00001141       ?value@?$integral_constant@_N$00@tr1@std@@2_NB 00549141     buffer.obj
 0002:00001144       ?value@?$integral_constant@I$0A@@tr1@std@@2IB 00549144     buffer.obj
 0002:00001148       ?_Rank@?$_Arithmetic_traits@_N@std@@2HB 00549148     buffer.obj
 0002:0000114c       ?_Rank@?$_Arithmetic_traits@D@std@@2HB 0054914c     buffer.obj
 0002:00001150       ?_Rank@?$_Arithmetic_traits@C@std@@2HB 00549150     buffer.obj
 0002:00001154       ?_Rank@?$_Arithmetic_traits@E@std@@2HB 00549154     buffer.obj
 0002:00001158       ?_Rank@?$_Arithmetic_traits@F@std@@2HB 00549158     buffer.obj
 0002:0000115c       ?_Rank@?$_Arithmetic_traits@G@std@@2HB 0054915c     buffer.obj
 0002:00001160       ?_Rank@?$_Arithmetic_traits@H@std@@2HB 00549160     buffer.obj
 0002:00001164       ?_Rank@?$_Arithmetic_traits@I@std@@2HB 00549164     buffer.obj
 0002:00001168       ?_Rank@?$_Arithmetic_traits@J@std@@2HB 00549168     buffer.obj
 0002:0000116c       ?_Rank@?$_Arithmetic_traits@K@std@@2HB 0054916c     buffer.obj
 0002:00001170       ?_Rank@?$_Arithmetic_traits@_J@std@@2HB 00549170     buffer.obj
 0002:00001174       ?_Rank@?$_Arithmetic_traits@_K@std@@2HB 00549174     buffer.obj
 0002:00001178       ?_Rank@?$_Arithmetic_traits@M@std@@2HB 00549178     buffer.obj
 0002:0000117c       ?_Rank@?$_Arithmetic_traits@N@std@@2HB 0054917c     buffer.obj
 0002:00001180       ?_Rank@?$_Arithmetic_traits@O@std@@2HB 00549180     buffer.obj
 0002:00001184       ?collate@?$_Locbase@H@std@@2HB 00549184     buffer.obj
 0002:00001188       ?ctype@?$_Locbase@H@std@@2HB 00549188     buffer.obj
 0002:0000118c       ?monetary@?$_Locbase@H@std@@2HB 0054918c     buffer.obj
 0002:00001190       ?numeric@?$_Locbase@H@std@@2HB 00549190     buffer.obj
 0002:00001194       ?time@?$_Locbase@H@std@@2HB 00549194     buffer.obj
 0002:00001198       ?messages@?$_Locbase@H@std@@2HB 00549198     buffer.obj
 0002:0000119c       ?all@?$_Locbase@H@std@@2HB 0054919c     buffer.obj
 0002:000011a0       ?none@?$_Locbase@H@std@@2HB 005491a0     buffer.obj
 0002:000011a4       ?table_size@?$ctype@D@std@@2IB 005491a4     buffer.obj
 0002:000011a8       ?skipws@?$_Iosb@H@std@@2W4_Fmtflags@12@B 005491a8     buffer.obj
 0002:000011ac       ?unitbuf@?$_Iosb@H@std@@2W4_Fmtflags@12@B 005491ac     buffer.obj
 0002:000011b0       ?uppercase@?$_Iosb@H@std@@2W4_Fmtflags@12@B 005491b0     buffer.obj
 0002:000011b4       ?showbase@?$_Iosb@H@std@@2W4_Fmtflags@12@B 005491b4     buffer.obj
 0002:000011b8       ?showpoint@?$_Iosb@H@std@@2W4_Fmtflags@12@B 005491b8     buffer.obj
 0002:000011bc       ?showpos@?$_Iosb@H@std@@2W4_Fmtflags@12@B 005491bc     buffer.obj
 0002:000011c0       ?left@?$_Iosb@H@std@@2W4_Fmtflags@12@B 005491c0     buffer.obj
 0002:000011c4       ?right@?$_Iosb@H@std@@2W4_Fmtflags@12@B 005491c4     buffer.obj
 0002:000011c8       ?internal@?$_Iosb@H@std@@2W4_Fmtflags@12@B 005491c8     buffer.obj
 0002:000011cc       ?dec@?$_Iosb@H@std@@2W4_Fmtflags@12@B 005491cc     buffer.obj
 0002:000011d0       ?oct@?$_Iosb@H@std@@2W4_Fmtflags@12@B 005491d0     buffer.obj
 0002:000011d4       ?hex@?$_Iosb@H@std@@2W4_Fmtflags@12@B 005491d4     buffer.obj
 0002:000011d8       ?scientific@?$_Iosb@H@std@@2W4_Fmtflags@12@B 005491d8     buffer.obj
 0002:000011dc       ?fixed@?$_Iosb@H@std@@2W4_Fmtflags@12@B 005491dc     buffer.obj
 0002:000011e0       ?hexfloat@?$_Iosb@H@std@@2W4_Fmtflags@12@B 005491e0     buffer.obj
 0002:000011e4       ?boolalpha@?$_Iosb@H@std@@2W4_Fmtflags@12@B 005491e4     buffer.obj
 0002:000011e8       ?_Stdio@?$_Iosb@H@std@@2W4_Fmtflags@12@B 005491e8     buffer.obj
 0002:000011ec       ?adjustfield@?$_Iosb@H@std@@2W4_Fmtflags@12@B 005491ec     buffer.obj
 0002:000011f0       ?basefield@?$_Iosb@H@std@@2W4_Fmtflags@12@B 005491f0     buffer.obj
 0002:000011f4       ?floatfield@?$_Iosb@H@std@@2W4_Fmtflags@12@B 005491f4     buffer.obj
 0002:000011f8       ?goodbit@?$_Iosb@H@std@@2W4_Iostate@12@B 005491f8     buffer.obj
 0002:000011fc       ?eofbit@?$_Iosb@H@std@@2W4_Iostate@12@B 005491fc     buffer.obj
 0002:00001200       ?failbit@?$_Iosb@H@std@@2W4_Iostate@12@B 00549200     buffer.obj
 0002:00001204       ?badbit@?$_Iosb@H@std@@2W4_Iostate@12@B 00549204     buffer.obj
 0002:00001208       ?_Hardfail@?$_Iosb@H@std@@2W4_Iostate@12@B 00549208     buffer.obj
 0002:0000120c       ?in@?$_Iosb@H@std@@2W4_Openmode@12@B 0054920c     buffer.obj
 0002:00001210       ?out@?$_Iosb@H@std@@2W4_Openmode@12@B 00549210     buffer.obj
 0002:00001214       ?ate@?$_Iosb@H@std@@2W4_Openmode@12@B 00549214     buffer.obj
 0002:00001218       ?app@?$_Iosb@H@std@@2W4_Openmode@12@B 00549218     buffer.obj
 0002:0000121c       ?trunc@?$_Iosb@H@std@@2W4_Openmode@12@B 0054921c     buffer.obj
 0002:00001220       ?_Nocreate@?$_Iosb@H@std@@2W4_Openmode@12@B 00549220     buffer.obj
 0002:00001224       ?_Noreplace@?$_Iosb@H@std@@2W4_Openmode@12@B 00549224     buffer.obj
 0002:00001228       ?binary@?$_Iosb@H@std@@2W4_Openmode@12@B 00549228     buffer.obj
 0002:0000122c       ?beg@?$_Iosb@H@std@@2W4_Seekdir@12@B 0054922c     buffer.obj
 0002:00001230       ?cur@?$_Iosb@H@std@@2W4_Seekdir@12@B 00549230     buffer.obj
 0002:00001234       ?end@?$_Iosb@H@std@@2W4_Seekdir@12@B 00549234     buffer.obj
 0002:0000123c       ??_7CCharInfo@@6B@         0054923c     CharInfo.obj
 0002:00001248       ??_7CCurse@@6B@            00549248     Curse.obj
 0002:00001250       ??_C@_01KDCPPGHE@r?$AA@    00549250     Curse.obj
 0002:00001254       ??_C@_07MDIPJLCH@?7?5_?9?4?3?$FO?$AA@ 00549254     Curse.obj
 0002:00001260       ??_C@_0O@ENNKNBPH@ReinforceGem3?$AA@ 00549260     Guild.obj
 0002:00001270       ??_C@_0O@FEMBOALG@ReinforceGem2?$AA@ 00549270     Guild.obj
 0002:00001280       ??_C@_0O@HPOMLDHF@ReinforceGem1?$AA@ 00549280     Guild.obj
 0002:00001290       ??_C@_0N@KAAFNHIM@DiamondGem14?$AA@ 00549290     Guild.obj
 0002:000012a0       ??_C@_0M@PPEDLLBM@DiamondGem8?$AA@ 005492a0     Guild.obj
 0002:000012b0       ??_C@_0M@FDPGPEBA@DiamondGem4?$AA@ 005492b0     Guild.obj
 0002:000012c0       ??_C@_09DGILHLBK@VampGem20?$AA@ 005492c0     Guild.obj
 0002:000012cc       ??_C@_09DEMNMFED@VampGem10?$AA@ 005492cc     Guild.obj
 0002:000012d8       ??_C@_08OBKJEKMB@VampGem5?$AA@ 005492d8     Guild.obj
 0002:000012e4       ??_C@_08IDAPCMHD@CritGem4?$AA@ 005492e4     Guild.obj
 0002:000012f0       ??_C@_08NFFFILPF@CritGem2?$AA@ 005492f0     Guild.obj
 0002:000012fc       ??_C@_08POHINIDG@CritGem1?$AA@ 005492fc     Guild.obj
 0002:00001308       ??_C@_08OAJIOBNG@PsnGem20?$AA@ 00549308     Guild.obj
 0002:00001314       ??_C@_08JPKJKLMK@PsnGem15?$AA@ 00549314     Guild.obj
 0002:00001320       ??_C@_08OCNOFPIP@PsnGem10?$AA@ 00549320     Guild.obj
 0002:0000132c       ??_C@_09NEOAAEGE@VortexGem?$AA@ 0054932c     Guild.obj
 0002:00001338       ??_C@_0N@HGKLHCNO@TacticalGem7?$AA@ 00549338     Guild.obj
 0002:00001348       ??_C@_0N@EEJNBAFM@TacticalGem5?$AA@ 00549348     Guild.obj
 0002:00001358       ??_C@_0N@BCMHLHNK@TacticalGem3?$AA@ 00549358     Guild.obj
 0002:00001368       ??_C@_0O@ENNNMOLN@EnchantedGem6?$AA@ 00549368     Guild.obj
 0002:00001378       ??_C@_0O@HPOLKMDP@EnchantedGem4?$AA@ 00549378     Guild.obj
 0002:00001388       ??_C@_0O@CJLBALLJ@EnchantedGem2?$AA@ 00549388     Guild.obj
 0002:00001398       ??_C@_0L@MFGDBDAE@ArmorGem21?$AA@ 00549398     Guild.obj
 0002:000013a8       ??_C@_0L@LKFCFJBI@ArmorGem14?$AA@ 005493a8     Guild.obj
 0002:000013b8       ??_C@_09PFIBEOMH@ArmorGem7?$AA@ 005493b8     Guild.obj
 0002:000013c4       ??_C@_09FGBICNGC@MindGem21?$AA@ 005493c4     Guild.obj
 0002:000013d0       ??_C@_09CJCJGHHO@MindGem14?$AA@ 005493d0     Guild.obj
 0002:000013dc       ??_C@_08IHEALFEK@MindGem7?$AA@ 005493dc     Guild.obj
 0002:000013e8       ??_C@_0L@EPBOEFCM@BloodGem21?$AA@ 005493e8     Guild.obj
 0002:000013f8       ??_C@_0L@DACPAPDA@BloodGem14?$AA@ 005493f8     Guild.obj
 0002:00001408       ??_C@_09ONBOIKNM@BloodGem7?$AA@ 00549408     Guild.obj
 0002:00001414       ??_C@_09CDGKJNJD@RejuGem21?$AA@ 00549414     Guild.obj
 0002:00001420       ??_C@_09FMFLNHIP@RejuGem14?$AA@ 00549420     Guild.obj
 0002:0000142c       ??_C@_08JPFDNIII@RejuGem7?$AA@ 0054942c     Guild.obj
 0002:00001438       ??_C@_04CGFJFPFD@none?$AA@ 00549438     Guild.obj
 0002:00001440       ??_C@_0BK@OMHOJAOO@Bleeding?5Island?5Guild?5War?$AA@ 00549440     Guild.obj
 0002:00001460       ??_C@_0L@CLHOAHDA@Apocalypse?$AA@ 00549460     Guild.obj
 0002:00001470       ??_C@_07HHGLEOIP@Crusade?$AA@ 00549470     Guild.obj
 0002:0000147c       ??_C@_0BD@KCEJNKEN@Destroy?5the?5Shield?$AA@ 0054947c     Guild.obj
 0002:00001494       ??_C@_0BC@MKPOMNKP@Capture?5the?5Relic?$AA@ 00549494     Guild.obj
 0002:000014a9       ??_C@_00CNPNBAHC@?$AA@     005494a9     Guild.obj
 0002:000014ac       ??_C@_06MIDCOLBF@Istria?$AA@ 005494ac     Guild.obj
 0002:000014b4       ??_C@_06GBOJGBFA@Elvine?$AA@ 005494b4     Guild.obj
 0002:000014bc       ??_C@_07ODHAAIKH@Aresden?$AA@ 005494bc     Guild.obj
 0002:000014c8       ??_C@_09MHDIEBHN@Traveller?$AA@ 005494c8     Guild.obj
 0002:000014d4       ??_C@_09DHLNBDO@cmdhall_2?$AA@ 005494d4     Guild.obj
 0002:000014e0       ??_C@_09CIFGICPN@cmdhall_1?$AA@ 005494e0     Guild.obj
 0002:000014ec       ??_C@_07CKBLCHBA@astoria?$AA@ 005494ec     Guild.obj
 0002:000014f8       ??_C@_08FFPGIDPP@default2?$AA@ 005494f8     Guild.obj
 0002:00001504       ??_C@_06OFOBBBOI@Bsmith?$AA@ 00549504     Guild.obj
 0002:0000150c       ??_C@_09BCHKKBAE@Barracks2?$AA@ 0054950c     Guild.obj
 0002:00001518       ??_C@_09DJFHPCMH@Barracks1?$AA@ 00549518     Guild.obj
 0002:00001524       ??_C@_07BPOAFNKC@cmdhall?$AA@ 00549524     Guild.obj
 0002:00001530       ??_C@_08OPPNHFLA@hrampart?$AA@ 00549530     Guild.obj
 0002:0000153c       ??_C@_04JDHAMGLJ@godh?$AA@ 0054953c     Guild.obj
 0002:00001544       ??_C@_07BGBPBBMF@btfield?$AA@ 00549544     Guild.obj
 0002:00001550       ??_C@_07DJBOHKGN@abaddon?$AA@ 00549550     Guild.obj
 0002:0000155c       ??_C@_08OJLHCHLF@procella?$AA@ 0054955c     Guild.obj
 0002:00001568       ??_C@_04JKAJFJBM@maze?$AA@ 00549568     Guild.obj
 0002:00001570       ??_C@_09MHLAHJIE@inferniaB?$AA@ 00549570     Guild.obj
 0002:0000157c       ??_C@_09OMJNCKEH@inferniaA?$AA@ 0054957c     Guild.obj
 0002:00001588       ??_C@_0L@EEIFEFGK@druncncity?$AA@ 00549588     Guild.obj
 0002:00001598       ??_C@_07NBCGADJA@Unknown?$AA@ 00549598     Guild.obj
 0002:000015a4       ??_C@_08CPLLEOFO@icebound?$AA@ 005495a4     Guild.obj
 0002:000015b0       ??_C@_09PEFIFODD@2ndmiddle?$AA@ 005495b0     Guild.obj
 0002:000015bc       ??_C@_07ENONGNIK@elvjail?$AA@ 005495bc     Guild.obj
 0002:000015c8       ??_C@_07HLAEPENG@arejail?$AA@ 005495c8     Guild.obj
 0002:000015d4       ??_C@_04OEGFFGBA@toh3?$AA@ 005495d4     Guild.obj
 0002:000015dc       ??_C@_04PNHOGHFB@toh2?$AA@ 005495dc     Guild.obj
 0002:000015e4       ??_C@_04NGFDDEJC@toh1?$AA@ 005495e4     Guild.obj
 0002:000015ec       ??_C@_09KHIDHHMH@middled1n?$AA@ 005495ec     Guild.obj
 0002:000015f8       ??_C@_09LLBLMCBA@middled1x?$AA@ 005495f8     Guild.obj
 0002:00001604       ??_C@_06BICOPPOH@elvuni?$AA@ 00549604     Guild.obj
 0002:0000160c       ??_C@_06PCPNFFEN@areuni?$AA@ 0054960c     Guild.obj
 0002:00001614       ??_C@_07GKJBEFLB@resurr2?$AA@ 00549614     Guild.obj
 0002:00001620       ??_C@_07EBLMBGHC@resurr1?$AA@ 00549620     Guild.obj
 0002:0000162c       ??_C@_05GMOMBHOD@dglv4?$AA@ 0054962c     Guild.obj
 0002:00001634       ??_C@_0BC@NGFPAJAJ@Elvine?9Middle?5DMZ?$AA@ 00549634     Guild.obj
 0002:0000164c       ??_C@_0BD@CMHNCCJO@Aresden?9Middle?5DMZ?$AA@ 0054964c     Guild.obj
 0002:00001664       ??_C@_06GDDFAOBJ@cath_2?$AA@ 00549664     Guild.obj
 0002:0000166c       ??_C@_06EIBIFNNK@cath_1?$AA@ 0054966c     Guild.obj
 0002:00001674       ??_C@_08DKHBKOOL@elvwrhus?$AA@ 00549674     Guild.obj
 0002:00001680       ??_C@_08FIJKFKKN@arewrhus?$AA@ 00549680     Guild.obj
 0002:0000168c       ??_C@_07GBDAKJBL@wrhus_2?$AA@ 0054968c     Guild.obj
 0002:00001698       ??_C@_07EKBNPKNI@wrhus_1?$AA@ 00549698     Guild.obj
 0002:000016a4       ??_C@_08FPLKIGAA@wzdtwr_2?$AA@ 005496a4     Guild.obj
 0002:000016b0       ??_C@_08HEJHNFMD@wzdtwr_1?$AA@ 005496b0     Guild.obj
 0002:000016bc       ??_C@_07IDBJLDEJ@gshop_2?$AA@ 005496bc     Guild.obj
 0002:000016c8       ??_C@_07KIDEOAIK@gshop_1?$AA@ 005496c8     Guild.obj
 0002:000016d4       ??_C@_09BNOLGFAH@gldhall_2?$AA@ 005496d4     Guild.obj
 0002:000016e0       ??_C@_09DGMGDGME@gldhall_1?$AA@ 005496e0     Guild.obj
 0002:000016ec       ??_C@_0L@LCLPLIIE@cityhall_2?$AA@ 005496ec     Guild.obj
 0002:000016fc       ??_C@_0L@JJJCOLEH@cityhall_1?$AA@ 005496fc     Guild.obj
 0002:0000170c       ??_C@_08PEHGADKI@bsmith_2?$AA@ 0054970c     Guild.obj
 0002:00001718       ??_C@_08NPFLFAGL@bsmith_1?$AA@ 00549718     Guild.obj
 0002:00001724       ??_C@_09CGCDKHBB@huntzone4?$AA@ 00549724     Guild.obj
 0002:00001730       ??_C@_09GJGCDBNG@huntzone3?$AA@ 00549730     Guild.obj
 0002:0000173c       ??_C@_09HAHJAAJH@huntzone2?$AA@ 0054973c     Guild.obj
 0002:00001748       ??_C@_09FLFEFDFE@huntzone1?$AA@ 00549748     Guild.obj
 0002:00001754       ??_C@_0L@PPELDOKE@middleland?$AA@ 00549754     Guild.obj
 0002:00001764       ??_C@_05LPOOEHOF@bisle?$AA@ 00549764     Guild.obj
 0002:0000176c       ??_C@_05CDKNIBCE@dglv3?$AA@ 0054976c     Guild.obj
 0002:00001774       ??_C@_05DKLGLAGF@dglv2?$AA@ 00549774     Guild.obj
 0002:0000177c       ??_C@_06KOFEFIMM@elvine?$AA@ 0054977c     Guild.obj
 0002:00001784       ??_C@_09CJEDCGPC@aresdend1?$AA@ 00549784     Guild.obj
 0002:00001790       ??_C@_07BKAGGKPB@aresden?$AA@ 00549790     Guild.obj
 0002:0000179c       ??_C@_08ILHMILJO@elvined1?$AA@ 0054979c     Guild.obj
 0002:000017a8       ??_C@_0L@IHKFEPD@fightzone9?$AA@ 005497a8     Guild.obj
 0002:000017b8       ??_C@_0L@BBGBGFLC@fightzone8?$AA@ 005497b8     Guild.obj
 0002:000017c8       ??_C@_0L@JGPJHJHN@fightzone7?$AA@ 005497c8     Guild.obj
 0002:000017d8       ??_C@_0L@IPOCEIDM@fightzone6?$AA@ 005497d8     Guild.obj
 0002:000017e8       ??_C@_0L@KEMPBLPP@fightzone5?$AA@ 005497e8     Guild.obj
 0002:000017f8       ??_C@_0L@LNNECKLO@fightzone4?$AA@ 005497f8     Guild.obj
 0002:00001808       ??_C@_0L@PCJFLMHJ@fightzone3?$AA@ 00549808     Guild.obj
 0002:00001818       ??_C@_0L@OLIOINDI@fightzone2?$AA@ 00549818     Guild.obj
 0002:00001828       ??_C@_0L@MAKDNOPL@fightzone1?$AA@ 00549828     Guild.obj
 0002:00001838       ??_C@_08OHGIHHCM@elvbrk22?$AA@ 00549838     Guild.obj
 0002:00001844       ??_C@_08MMEFCEOP@elvbrk21?$AA@ 00549844     Guild.obj
 0002:00001850       ??_C@_08OFCOMJHF@elvbrk12?$AA@ 00549850     Guild.obj
 0002:0000185c       ??_C@_08MOADJKLG@elvbrk11?$AA@ 0054985c     Guild.obj
 0002:00001868       ??_C@_08IFIDIDGK@arebrk22?$AA@ 00549868     Guild.obj
 0002:00001874       ??_C@_08KOKONAKJ@arebrk21?$AA@ 00549874     Guild.obj
 0002:00001880       ??_C@_08IHMFDNDD@arebrk12?$AA@ 00549880     Guild.obj
 0002:0000188c       ??_C@_08KMOIGOPA@arebrk11?$AA@ 0054988c     Guild.obj
 0002:00001898       ??_C@_07DLHCIBDH@default?$AA@ 00549898     Guild.obj
 0002:000018a4       ??_C@_07IBHFPNFL@elvfarm?$AA@ 005498a4     Guild.obj
 0002:000018b0       ??_C@_07LHJMGEAH@arefarm?$AA@ 005498b0     Guild.obj
 0002:000018bc       ??_C@_04OKGDLNCL@NONE?$AA@ 005498bc     Guild.obj
 0002:000018c8       ??_7bad_alloc@std@@6B@     005498c8     Guild.obj
 0002:000018d4       ??_C@_0BI@CFPLBAOH@invalid?5string?5position?$AA@ 005498d4     Guild.obj
 0002:000018f0       ??_C@_0BA@JFNIOLAK@string?5too?5long?$AA@ 005498f0     Guild.obj
 0002:00001904       ??_C@_0BD@OLBABOEK@vector?$DMT?$DO?5too?5long?$AA@ 00549904     Guild.obj
 0002:0000191c       __real@4f800000            0054991c     Guild.obj
 0002:00001920       ??_C@_0BB@MOGOBHAF@list?$DMT?$DO?5too?5long?$AA@ 00549920     Guild.obj
 0002:00001934       __real@3f800000            00549934     Guild.obj
 0002:00001938       ??_C@_0M@OHAFPKFE@Huntmasters?$AA@ 00549938     Guild.obj
 0002:00001948       ??_C@_0M@FBBJBBII@Raidmasters?$AA@ 00549948     Guild.obj
 0002:00001958       ??_C@_09KOIICFFA@Captaincy?$AA@ 00549958     Guild.obj
 0002:00001964       ??_C@_09NGEHBOBO@Warehouse?$AA@ 00549964     Guild.obj
 0002:00001974       ??_7CMagic@@6B@            00549974     Magic.obj
 0002:00001980       ??_7CSkill@@6B@            00549980     Skill.obj
 0002:0000198c       ??_7CBuildItem@@6B@        0054998c     BuildItem.obj
 0002:00001994       ??_C@_07JJGGFMH@Recruit?$AA@ 00549994     Item.obj
 0002:000019a0       ??_C@_09PKFIPHI@Guildsman?$AA@ 005499a0     Item.obj
 0002:000019ac       ??_C@_0M@PPHFFOJC@Raid?5Master?$AA@ 005499ac     Item.obj
 0002:000019bc       ??_C@_0M@EJGJLFEO@Hunt?5Master?$AA@ 005499bc     Item.obj
 0002:000019cc       ??_C@_07CIJMMPOH@Captain?$AA@ 005499cc     Item.obj
 0002:000019d8       ??_C@_0M@KMFDCEKE@Guildmaster?$AA@ 005499d8     Item.obj
 0002:000019ec       ??_7CItem@@6B@             005499ec     Item.obj
 0002:000019f4       ??_C@_0BA@NNHEELDI@BarbarianHammer?$AA@ 005499f4     Item.obj
 0002:00001a08       ??_C@_0O@MCBILKMI@?$CL?$CFd?5Endurance?$AA@ 00549a08     Item.obj
 0002:00001a18       ??_C@_0BD@KHJIDFHC@?$CL?$CFd?5True?5Hit?5Ratio?$AA@ 00549a18     Item.obj
 0002:00001a30       ??_C@_0BB@LMNAPBNA@?$CL?$CFd?$CF?$CF?5Life?5Leech?$AA@ 00549a30     Item.obj
 0002:00001a44       ??_C@_0BE@DGMPADAN@?$CL?$CFd?5Critical?5Damage?$AA@ 00549a44     Item.obj
 0002:00001a5c       ??_C@_0BC@NCIDPHEM@?$CL?$CFd?5Poison?5Damage?$AA@ 00549a5c     Item.obj
 0002:00001a74       ??_C@_0CB@LAJAMHCI@?$CL?$CFd?$CF?$CF?5Global?5Physical?5Absorption@ 00549a74     Item.obj
 0002:00001a9c       ??_C@_0BH@DHBOENDP@?$CL?$CFd?$CF?$CF?5Magic?5Absorption?$AA@ 00549a9c     Item.obj
 0002:00001ab8       ??_C@_0BC@NPHECDKM@?$CL?$CFd?5Defense?5Ratio?$AA@ 00549ab8     Item.obj
 0002:00001ad0       ??_C@_0BH@MGGGLEEN@?$CL?$CFd?$CF?$CF?5Magic?5Resistance?$AA@ 00549ad0     Item.obj
 0002:00001aec       ??_C@_0BC@BLMOGGDC@?$CL?$CFd?$CF?$CF?5HP?5Recovery?$AA@ 00549aec     Item.obj
 0002:00001b04       ??_C@_0BC@IDGNBBCC@?$CL?$CFd?$CF?$CF?5MP?5Recovery?$AA@ 00549b04     Item.obj
 0002:00001b20       ??_7CItemName@@6B@         00549b20     ItemName.obj
 0002:00001b2c       ??_7DXC_ddraw@@6B@         00549b2c     DXC_ddraw.obj
 0002:00001b34       ??_C@_0N@EENMFBFK@Trebuchet?5MS?$AA@ 00549b34     DXC_ddraw.obj
 0002:00001b44       ??_C@_0O@CMFIFLIJ@Comic?5Sans?5MS?$AA@ 00549b44     DXC_ddraw.obj
 0002:00001b54       ??_C@_0BD@KKDKCIL@Screenshot?5error?$AN?6?$AA@ 00549b54     DXC_ddraw.obj
 0002:00001b6c       ??_C@_0BH@LGKKNBIG@Screenshot?5error?5?$CD?$CFi?$AN?6?$AA@ 00549b6c     DXC_ddraw.obj
 0002:00001b88       ??_C@_0BF@CKKDLFNC@Screenshot?5Success?$AN?6?$AA@ 00549b88     DXC_ddraw.obj
 0002:00001ba8       __real@3fd0000000000000    00549ba8     DXC_ddraw.obj
 0002:00001bb8       __real@3fe0000000000000    00549bb8     DXC_ddraw.obj
 0002:00001bc8       __real@3fe6666660000000    00549bc8     DXC_ddraw.obj
 0002:00001bd8       ??_7DXC_dinput@@6B@        00549bd8     DXC_dinput.obj
 0002:00001be4       ??_7DXC_dsound@@6B@        00549be4     DXC_dsound.obj
 0002:00001bf0       ??_7CEffect@@6B@           00549bf0     Effect.obj
 0002:00001bf8       ??_C@_0P@MCECNMNE@sprites?2?$CFs?4pak?$AA@ 00549bf8     Mydib.obj
 0002:00001c0c       ??_C@_0P@MFGJPNLE@sprites?2?$CFs?4lpk?$AA@ 00549c0c     Mydib.obj
 0002:00001c24       ??_7CSoundBuffer@@6B@      00549c24     SoundBuffer.obj
 0002:00001c2c       ??_C@_02JDPG@rb?$AA@       00549c2c     SoundBuffer.obj
 0002:00001c34       ??_7CSprite@@6B@           00549c34     Sprite.obj
 0002:00001c40       ??_7CTileSpr@@6B@          00549c40     TileSpr.obj
 0002:00001c4c       ??_7YWSound@@6B@           00549c4c     YWSound.obj
 0002:00001c54       ??_C@_0BM@LDPIDACN@DirectSoundCreate?5error?4?4?4?6?$AA@ 00549c54     YWSound.obj
 0002:00001c7c       ??_7CMapData@@6B@          00549c7c     MapData.obj
 0002:00001c84       ??_C@_08JGKICCFE@MAPSIZEY?$AA@ 00549c84     MapData.obj
 0002:00001c90       ??_C@_08IPLDBDBF@MAPSIZEX?$AA@ 00549c90     MapData.obj
 0002:00001c9c       ??_C@_05CIMCKGKI@?$DN?5?0?7?6?$AA@ 00549c9c     MapData.obj
 0002:00001ca8       __real@3fc0a3d70a3d70a4    00549ca8     MapData.obj
 0002:00001cb8       ??_7CTile@@6B@             00549cb8     Tile.obj
 0002:00001cc0       __real@4020000000000000    00549cc0     DialogBox.obj
 0002:00001cd0       ??_7CMouseInterface@@6B@   00549cd0     MouseInterface.obj
 0002:00001cd8       ??_C@_0BH@IALNMIKF@Helbreath?5Legion?5?$CFu?4?$CFu?$AA@ 00549cd8     Wmain.obj
 0002:00001cf4       ??_C@_01CLKCMJKC@?5?$AA@   00549cf4     Wmain.obj
 0002:00001cf8       ??_C@_02PIGFKFFE@?$CF1?$AA@ 00549cf8     Wmain.obj
 0002:00001cfc       ??_C@_04JHCLOCAN@?$CC?$CF1?$CC?$AA@ 00549cfc     Wmain.obj
 0002:00001d04       ??_C@_0BE@IPCPJOJE@?2shell?2open?2command?$AA@ 00549d04     Wmain.obj
 0002:00001d1c       ??_C@_04DKBFJDAN@?4htm?$AA@ 00549d1c     Wmain.obj
 0002:00001d24       ??_C@_04PMOCAHAA@open?$AA@ 00549d24     Wmain.obj
 0002:00001d2c       ??_C@_0CA@LDEOKNLH@http?3?1?1www?4helbreathlegion?4net?1?$AA@ 00549d2c     Wmain.obj
 0002:00001d54       ??_C@_0L@HMJMFIBO@WpeSpy?4dll?$AA@ 00549d54     Wmain.obj
 0002:00001d64       ??_C@_0DA@MOKGMEND@Winsock?9V1?41?5not?5found?$CB?5Cannot?5e@ 00549d64     Wmain.obj
 0002:00001da0       ??_C@_05MBDEGLCK@ERROR?$AA@ 00549da0     Wmain.obj
 0002:00001da8       ??_C@_08LANNCJNO@CRCCHECK?$AA@ 00549da8     Wmain.obj
 0002:00001db4       ??_C@_0CO@MIOCPNKM@File?5checksum?5error?$CB?5Get?5Update?5@ 00549db4     Wmain.obj
 0002:00001dec       ??_C@_06BNCHPKAP@ERROR1?$AA@ 00549dec     Wmain.obj
 0002:00001df4       ??_C@_0DA@BBJKCKPK@Logout?5was?5canceled?5because?5your@ 00549df4     Wmain.obj
 0002:00001e30       ??_C@_0L@NDKCOCOG@Client?9I?$CFd?$AA@ 00549e30     Wmain.obj
 0002:00001e40       ??_C@_0CL@FBOIMBGO@Only?5one?5Helbreath?5client?5progra@ 00549e40     Wmain.obj
 0002:00001e74       ??_C@_0N@LJPHGPKF@0643kjg3j30?$CF?$AA@ 00549e74     Wmain.obj
 0002:00001e84       ??_C@_0BG@EAKCENFG@can?8t?5find?5search?4dll?$AA@ 00549e84     Wmain.obj
 0002:00001ea0       ??_C@_0BD@FCMHNLPE@__FindHackingDll__?$AA@ 00549ea0     Wmain.obj
 0002:00001eb8       ??_C@_0BG@PGLEHPKG@don?8t?5find?5search?4dll?$AA@ 00549eb8     Wmain.obj
 0002:00001ed4       ??_C@_0L@NDCFGFK@rd?$GAqbg?9ckk?$AA@ 00549ed4     Wmain.obj
 0002:00001ee4       ??_C@_0BO@KJLMGIAC@Cannot?5mask?5process?5affinity?$CB?$AA@ 00549ee4     Wmain.obj
 0002:00001f08       ??_C@_06FHOFOIFO@ERROR?$CB?$AA@ 00549f08     Wmain.obj
 0002:00001f14       ??_7CMsg@@6B@              00549f14     Msg.obj
 0002:00001f20       ??_7XSocket@@6B@           00549f20     XSocket.obj
 0002:00001f28       ??_C@_0BJ@KPKMKCHI@?$CF02x?$CF02x?$CF02x?$CF02x?$CF02x?$CF02x?$AA@ 00549f28     XSocket.obj
 0002:00001f48       ??_C@_0BB@GFCDPMPH@?$CK?5?5?5?5?5?5?5?5?5?5?5?5?5?5?5?$AA@ 00549f48     XSocket.obj
 0002:00001f5c       ??_C@_0BF@CKGEMONO@Rejuvenation?5Gem?5?$CI7?$CJ?$AA@ 00549f5c     Game.obj
 0002:00001f78       ??_C@_0O@FGFEBBPG@Blood?5Gem?5?$CI7?$CJ?$AA@ 00549f78     Game.obj
 0002:00001f88       ??_C@_0BB@IMGAOLGG@ResurWand?$CIMS?410?$CJ?$AA@ 00549f88     Game.obj
 0002:00001f9c       ??_C@_0CE@FFDABBG@Resurrection?5Wand?5?$CIMS?410?$CJ?5?$CI10?5us@ 00549f9c     Game.obj
 0002:00001fc8       ??_C@_0BA@DOOFMBAO@RingofGrandMage?$AA@ 00549fc8     Game.obj
 0002:00001fdc       ??_C@_0CC@PFKLPKED@Ring?5of?5Grand?5Mage?5?$CI5000?5charges@ 00549fdc     Game.obj
 0002:00002004       ??_C@_0BC@FLBNKNOF@RingofDragonpower?$AA@ 0054a004     Game.obj
 0002:0000201c       ??_C@_0CE@FLIGBEIC@Ring?5of?5Dragon?5Power?5?$CI5000?5charg@ 0054a01c     Game.obj
 0002:00002048       ??_C@_0L@CGPGIEK@RingofMage?$AA@ 0054a048     Game.obj
 0002:00002058       ??_C@_0BM@PJOCNJJF@Ring?5of?5Mage?5?$CI5000?5charges?$CJ?$AA@ 0054a058     Game.obj
 0002:0000207c       ??_C@_0BB@HPDMHOGL@RingofDemonpower?$AA@ 0054a07c     Game.obj
 0002:00002090       ??_C@_0CD@MEHCIBFP@Ring?5of?5Demon?5Power?5?$CI5000?5charge@ 0054a090     Game.obj
 0002:000020bc       ??_C@_0BE@EKHDDLIO@MagicNecklace?$CIDM?$CL3?$CJ?$AA@ 0054a0bc     Game.obj
 0002:000020d4       ??_C@_0CF@LIDGJCPG@Magic?5Necklace?5?$CIDM?$CL3?$CJ?5?$CI5000?5char@ 0054a0d4     Game.obj
 0002:00002100       ??_C@_0BE@IIEHOCNL@MagicNecklace?$CIMS14?$CJ?$AA@ 0054a100     Game.obj
 0002:00002118       ??_C@_0CG@KHOJGHMN@Magic?5Necklace?5?$CIMS?414?$CJ?5?$CI5000?5cha@ 0054a118     Game.obj
 0002:00002148       ??_C@_0CD@ECKGLJFL@Trade?5100?5EKs?5for?5200?5Contributi@ 0054a148     Game.obj
 0002:00002174       ??_C@_0CC@NBMIINGL@Trade?550?5EKs?5for?5100?5Contributio@ 0054a174     Game.obj
 0002:0000219c       ??_C@_0CB@OHKFOHPI@Trade?525?5EKs?5for?550?5Contribution@ 0054a19c     Game.obj
 0002:000021c4       ??_C@_0CB@GEEBACAH@Trade?510?5EKs?5for?520?5Contribution@ 0054a1c4     Game.obj
 0002:000021ec       ??_C@_0CC@EIAMKJMF@Convert?5100?5Contribution?5to?5Ball@ 0054a1ec     Game.obj
 0002:00002214       ??_C@_0CB@PELMLIEF@Convert?550?5Contribution?5to?5Balls@ 0054a214     Game.obj
 0002:0000223c       ??_C@_0CB@NCMPLPJF@Convert?525?5Contribution?5to?5Balls@ 0054a23c     Game.obj
 0002:00002264       ??_C@_0M@PONBCEFO@ContribBall?$AA@ 0054a264     Game.obj
 0002:00002274       ??_C@_0CB@PABPCLO@Convert?510?5Contribution?5to?5Balls@ 0054a274     Game.obj
 0002:0000229c       ??_C@_0BD@KMJFIDFN@SlayerScaleMail?$CIW?$CJ?$AA@ 0054a29c     Game.obj
 0002:000022b4       ??_C@_0BG@DFJACGNL@Slayer?5Scale?5Mail?5?$CIW?$CJ?$AA@ 0054a2b4     Game.obj
 0002:000022d0       ??_C@_0BD@LNCEKFPL@SlayerScaleMail?$CIM?$CJ?$AA@ 0054a2d0     Game.obj
 0002:000022e8       ??_C@_0BG@CECBAAHN@Slayer?5Scale?5Mail?5?$CIM?$CJ?$AA@ 0054a2e8     Game.obj
 0002:00002304       ??_C@_0BD@NHMNEBA@SlayerChainMail?$CIW?$CJ?$AA@ 0054a304     Game.obj
 0002:0000231c       ??_C@_0BG@IFEIHCCN@Slayer?5Chain?5Mail?5?$CIW?$CJ?$AA@ 0054a31c     Game.obj
 0002:00002338       ??_C@_0BD@BMMNPCLG@SlayerChainMail?$CIM?$CJ?$AA@ 0054a338     Game.obj
 0002:00002350       ??_C@_0BG@JEPJFEIL@Slayer?5Chain?5Mail?5?$CIM?$CJ?$AA@ 0054a350     Game.obj
 0002:0000236c       ??_C@_0BB@HGHABCHC@SlayerLeather?$CIW?$CJ?$AA@ 0054a36c     Game.obj
 0002:00002380       ??_C@_0BD@IOFJHGKP@Slayer?5Leather?5?$CIW?$CJ?$AA@ 0054a380     Game.obj
 0002:00002398       ??_C@_0BB@GHMBDENE@SlayerLeather?$CIM?$CJ?$AA@ 0054a398     Game.obj
 0002:000023ac       ??_C@_0BD@JPOIFAAJ@Slayer?5Leather?5?$CIM?$CJ?$AA@ 0054a3ac     Game.obj
 0002:000023c4       ??_C@_0O@IEENNHJ@SlayerRobe?$CIW?$CJ?$AA@ 0054a3c4     Game.obj
 0002:000023d4       ??_C@_0BA@BIMCNIDL@Slayer?5Robe?5?$CIW?$CJ?$AA@ 0054a3d4     Game.obj
 0002:000023e8       ??_C@_0O@BJPFPLNP@SlayerRobe?$CIM?$CJ?$AA@ 0054a3e8     Game.obj
 0002:000023f8       ??_C@_0BA@JHDPOJN@Slayer?5Robe?5?$CIM?$CJ?$AA@ 0054a3f8     Game.obj
 0002:0000240c       ??_C@_0N@PKDJPHAG@SlayerHat?$CIW?$CJ?$AA@ 0054a40c     Game.obj
 0002:0000241c       ??_C@_0P@OEFAOHEA@Slayer?5Hat?5?$CIW?$CJ?$AA@ 0054a41c     Game.obj
 0002:00002430       ??_C@_0N@OLIINBKA@SlayerHat?$CIM?$CJ?$AA@ 0054a430     Game.obj
 0002:00002440       ??_C@_0P@PFOBMBOG@Slayer?5Hat?5?$CIM?$CJ?$AA@ 0054a440     Game.obj
 0002:00002454       ??_C@_0N@NLOAFDM@SlayerCap?$CIW?$CJ?$AA@ 0054a454     Game.obj
 0002:00002464       ??_C@_0P@CCKLLJAA@Slayer?5Cap?5?$CIW?$CJ?$AA@ 0054a464     Game.obj
 0002:00002478       ??_C@_0N@BMAPCDJK@SlayerCap?$CIM?$CJ?$AA@ 0054a478     Game.obj
 0002:00002488       ??_C@_0P@DDBKJPKG@Slayer?5Cap?5?$CIM?$CJ?$AA@ 0054a488     Game.obj
 0002:0000249c       ??_C@_0BD@FHLCLBPO@SlayerPlateMail?$CIW?$CJ?$AA@ 0054a49c     Game.obj
 0002:000024b4       ??_C@_0BG@HIGNGDFG@Slayer?5Plate?5Mail?5?$CIW?$CJ?$AA@ 0054a4b4     Game.obj
 0002:000024d0       ??_C@_0BD@EGADJHFI@SlayerPlateMail?$CIM?$CJ?$AA@ 0054a4d0     Game.obj
 0002:000024e8       ??_C@_0BG@GJNMEFPA@Slayer?5Plate?5Mail?5?$CIM?$CJ?$AA@ 0054a4e8     Game.obj
 0002:00002504       ??_C@_0BC@GBJGJLIO@SlayerFullHelm?$CIW?$CJ?$AA@ 0054a504     Game.obj
 0002:0000251c       ??_C@_0BF@PGDLMAHD@Slayer?5Full?5Helm?5?$CIW?$CJ?$AA@ 0054a51c     Game.obj
 0002:00002538       ??_C@_0BC@HACHLNCI@SlayerFullHelm?$CIM?$CJ?$AA@ 0054a538     Game.obj
 0002:00002550       ??_C@_0BF@OHIKOGNF@Slayer?5Full?5Helm?5?$CIM?$CJ?$AA@ 0054a550     Game.obj
 0002:0000256c       ??_C@_0BC@NNCODNBM@SlayerLeggings?$CIW?$CJ?$AA@ 0054a56c     Game.obj
 0002:00002584       ??_C@_0BK@EPDLAEBG@Slayer?5Plate?5Leggings?5?$CIW?$CJ?$AA@ 0054a584     Game.obj
 0002:000025a4       ??_C@_0BC@MMJPBLLK@SlayerLeggings?$CIM?$CJ?$AA@ 0054a5a4     Game.obj
 0002:000025bc       ??_C@_0BK@FOIKCCLA@Slayer?5Plate?5Leggings?5?$CIM?$CJ?$AA@ 0054a5bc     Game.obj
 0002:000025dc       ??_C@_0BB@JGEOEMEL@SlayerHauberk?$CIW?$CJ?$AA@ 0054a5dc     Game.obj
 0002:000025f0       ??_C@_0BD@NBLMMAPJ@Slayer?5Hauberk?5?$CIW?$CJ?$AA@ 0054a5f0     Game.obj
 0002:00002608       ??_C@_0BB@IHPPGKON@SlayerHauberk?$CIM?$CJ?$AA@ 0054a608     Game.obj
 0002:0000261c       ??_C@_0BD@MAANOGFP@Slayer?5Hauberk?5?$CIM?$CJ?$AA@ 0054a61c     Game.obj
 0002:00002634       ??_C@_0BE@EKOIHMIM@SlayerMagicWandMS20?$AA@ 0054a634     Game.obj
 0002:0000264c       ??_C@_0BI@OFBGLLOL@Slayer?5Magic?5Wand?$CIMS20?$CJ?$AA@ 0054a64c     Game.obj
 0002:00002668       ??_C@_0BD@PEBFLOLA@SlayerCompositeBow?$AA@ 0054a668     Game.obj
 0002:00002680       ??_C@_0BF@LFEKOALN@Slayer?5Composite?5Bow?$AA@ 0054a680     Game.obj
 0002:0000269c       ??_C@_0BA@GBFMELEE@SlayerBattleAxe?$AA@ 0054a69c     Game.obj
 0002:000026b0       ??_C@_0BC@KMCLBAKM@Slayer?5Battle?5Axe?$AA@ 0054a6b0     Game.obj
 0002:000026c8       ??_C@_0N@MNBMFHNM@SlayerWarAxe?$AA@ 0054a6c8     Game.obj
 0002:000026d8       ??_C@_0P@LOGBJOIH@Slayer?5War?5Axe?$AA@ 0054a6d8     Game.obj
 0002:000026ec       ??_C@_0BB@GGICLJKB@SlayerBarbHammer?$AA@ 0054a6ec     Game.obj
 0002:00002700       ??_C@_0BI@DJABLHLN@Slayer?5Barbarian?5Hammer?$AA@ 0054a700     Game.obj
 0002:0000271c       ??_C@_0BD@BNKLMOEM@SlayerBattleHammer?$AA@ 0054a71c     Game.obj
 0002:00002734       ??_C@_0BF@CNHECPJJ@Slayer?5Battle?5Hammer?$AA@ 0054a734     Game.obj
 0002:00002750       ??_C@_0N@EFKDBPJL@SlayerHammer?$AA@ 0054a750     Game.obj
 0002:00002760       ??_C@_0O@IIKFGIIH@Slayer?5Hammer?$AA@ 0054a760     Game.obj
 0002:00002770       ??_C@_0N@JBBPBIHP@SlayerRapier?$AA@ 0054a770     Game.obj
 0002:00002780       ??_C@_0O@FMBJGPGD@Slayer?5Rapier?$AA@ 0054a780     Game.obj
 0002:00002790       ??_C@_0N@EAEHBMDK@SlayerEsterk?$AA@ 0054a790     Game.obj
 0002:000027a0       ??_C@_0O@INEBGLCG@Slayer?5Esterk?$AA@ 0054a7a0     Game.obj
 0002:000027b0       ??_C@_0BC@HPHFKIDC@SlayerShadowSword?$AA@ 0054a7b0     Game.obj
 0002:000027c8       ??_C@_0BK@LBHFDPGF@Slayer?5Black?5Shadow?5Sword?$AA@ 0054a7c8     Game.obj
 0002:000027e8       ??_C@_0BB@GFDJBAOG@SlayerGiantSword?$AA@ 0054a7e8     Game.obj
 0002:000027fc       ??_C@_0BD@MKEJOGLM@Slayer?5Giant?5Sword?$AA@ 0054a7fc     Game.obj
 0002:00002814       ??_C@_0BB@HJDLFLIJ@SlayerFlameberge?$AA@ 0054a814     Game.obj
 0002:00002828       ??_C@_0BC@IBMFNEPA@Slayer?5Flameberge?$AA@ 0054a828     Game.obj
 0002:00002840       ??_C@_0BB@DOLLCJFJ@SlayerGreatSword?$AA@ 0054a840     Game.obj
 0002:00002854       ??_C@_0BD@JBMMMKJI@Slayer?5Great?5Sword?$AA@ 0054a854     Game.obj
 0002:0000286c       ??_C@_0BA@GMCEEJPL@SlayerDoubleAxe?$AA@ 0054a86c     Game.obj
 0002:00002880       ??_C@_0BC@PHPIMGLD@Slayer?5Double?5Axe?$AA@ 0054a880     Game.obj
 0002:00002898       ??_C@_0P@IEPGFNCN@SlayerClaymore?$AA@ 0054a898     Game.obj
 0002:000028ac       ??_C@_0BA@KMOACJOJ@Slayer?5Claymore?$AA@ 0054a8ac     Game.obj
 0002:000028c0       ??_C@_0BC@FPKCLAOB@SlayerBastadSword?$AA@ 0054a8c0     Game.obj
 0002:000028d8       ??_C@_0BE@POMMHLFI@Slayer?5Bastad?5Sword?$AA@ 0054a8d8     Game.obj
 0002:000028f0       ??_C@_0BB@LNBMJDEL@SlayerBroadSword?$AA@ 0054a8f0     Game.obj
 0002:00002904       ??_C@_0BD@GCPGBMGK@Slayer?5Broad?5Sword?$AA@ 0054a904     Game.obj
 0002:0000291c       ??_C@_0P@IMHPHEMK@SlayerFalchion?$AA@ 0054a91c     Game.obj
 0002:00002930       ??_C@_0BA@KEGJAAAO@Slayer?5Falchion?$AA@ 0054a930     Game.obj
 0002:00002944       ??_C@_0P@DDMFOMPL@SlayerScimitar?$AA@ 0054a944     Game.obj
 0002:00002958       ??_C@_0BA@BLNDJIDP@Slayer?5Scimitar?$AA@ 0054a958     Game.obj
 0002:0000296c       ??_C@_0O@NJNHFMCO@SlayerGradius?$AA@ 0054a96c     Game.obj
 0002:0000297c       ??_C@_0P@MNBLAGBG@Slayer?5Gradius?$AA@ 0054a97c     Game.obj
 0002:00002990       ??_C@_0N@KHAOINCK@SlayerDagger?$AA@ 0054a990     Game.obj
 0002:000029a0       ??_C@_0O@GKAIPKDG@Slayer?5Dagger?$AA@ 0054a9a0     Game.obj
 0002:000029b0       ??_C@_0BG@KPNKEBLD@Trade?5Valkyrie?5Manual?$AA@ 0054a9b0     Game.obj
 0002:000029cc       ??_C@_0CH@DGIGGCPI@unlearn?5Valkyrie?5and?5convert?5to?5@ 0054a9cc     Game.obj
 0002:000029fc       ??_C@_0BE@KGBKMJPA@Trade?5M?4I?4M?4?5Manual?$AA@ 0054a9fc     Game.obj
 0002:00002a14       ??_C@_0CF@DAHEMOAA@unlearn?5M?4I?4M?4?5and?5convert?5to?5ma@ 0054aa14     Game.obj
 0002:00002a40       ??_C@_0BD@OJGCPFOP@Trade?5E?4S?4W?5Manual?$AA@ 0054aa40     Game.obj
 0002:00002a58       ??_C@_0CE@BKOOFPBI@unlearn?5E?4S?4W?5and?5convert?5to?5man@ 0054aa58     Game.obj
 0002:00002a84       ??_C@_0BK@BMKNFAFD@Trade?5BloodyShockW?5Manual?$AA@ 0054aa84     Game.obj
 0002:00002aa4       ??_C@_0CE@BOOHKMEL@unlearn?5B?4S?4W?5and?5convert?5to?5man@ 0054aaa4     Game.obj
 0002:00002ad0       ??_C@_0BM@BEOHAPFH@Trade?5MassFireStrike?5Manual?$AA@ 0054aad0     Game.obj
 0002:00002af4       ??_C@_0CE@BJJMECJO@unlearn?5M?4F?4S?5and?5convert?5to?5man@ 0054aaf4     Game.obj
 0002:00002b20       ??_C@_0BG@DOGDIKB@Trade?5IceStorm?5Manual?$AA@ 0054ab20     Game.obj
 0002:00002b3c       ??_C@_0CC@DJIKHFBB@unlearn?5I?4S?5and?5convert?5to?5manua@ 0054ab3c     Game.obj
 0002:00002b64       ??_C@_0BD@HOHELAKE@Trade?5I?4M?4C?5Manual?$AA@ 0054ab64     Game.obj
 0002:00002b7c       ??_C@_0CE@MHFOAJJD@unlearn?5I?4M?4C?5and?5convert?5to?5man@ 0054ab7c     Game.obj
 0002:00002ba8       ??_C@_0BE@CKOHNGNE@Trade?5Cancel?5Manual?$AA@ 0054aba8     Game.obj
 0002:00002bc0       ??_C@_0CF@DKJEAGOL@unlearn?5Cancel?5and?5convert?5to?5ma@ 0054abc0     Game.obj
 0002:00002bec       ??_C@_0BM@MALAAEMC@Trade?5100?5Legion?5Coins?5Back?$AA@ 0054abec     Game.obj
 0002:00002c10       ??_C@_0BI@GDOJOEPD@Return?5100?5Legion?5Coins?$AA@ 0054ac10     Game.obj
 0002:00002c2c       ??_C@_0BL@BCALLOCL@Trade?510?5Legion?5Coins?5Back?$AA@ 0054ac2c     Game.obj
 0002:00002c4c       ??_C@_0BH@OJNPNAMN@Return?510?5Legion?5Coins?$AA@ 0054ac4c     Game.obj
 0002:00002c68       ??_C@_0BJ@CPDMNIHE@Trade?51?5Legion?5Coin?5Back?$AA@ 0054ac68     Game.obj
 0002:00002c88       ??_C@_0BF@DLDIPDHC@Return?51?5Legion?5Coin?$AA@ 0054ac88     Game.obj
 0002:00002ca4       ??_C@_0BB@KAJJEEIN@100?5Legion?5Coins?$AA@ 0054aca4     Game.obj
 0002:00002cb8       ??_C@_0BG@BHICNBDC@Take?5100?5Legion?5Coins?$AA@ 0054acb8     Game.obj
 0002:00002cd4       ??_C@_0BA@JFPBAPDA@10?5Legion?5Coins?$AA@ 0054acd4     Game.obj
 0002:00002ce8       ??_C@_0BF@DDDIILEO@Take?510?5Legion?5Coins?$AA@ 0054ace8     Game.obj
 0002:00002d04       ??_C@_0O@GJHCHDCB@1?5Legion?5Coin?$AA@ 0054ad04     Game.obj
 0002:00002d14       ??_C@_0BD@NAMIEKOD@Take?51?5Legion?5Coin?$AA@ 0054ad14     Game.obj
 0002:00002d2c       ??_C@_07IHPGELOG@20?5Cont?$AA@ 0054ad2c     Game.obj
 0002:00002d38       ??_C@_0BH@BCPELDPF@10?5Contribution?5points?$AA@ 0054ad38     Game.obj
 0002:00002d54       ??_C@_06CPMPAONI@2?5Cont?$AA@ 0054ad54     Game.obj
 0002:00002d5c       ??_C@_0BG@HOMJIPNB@2?5Contribution?5points?$AA@ 0054ad5c     Game.obj
 0002:00002d78       ??_C@_02MIBFNKDD@DG?$AA@   0054ad78     Game.obj
 0002:00002d7c       ??_C@_0M@MABGIGGO@Destroy?5Gem?$AA@ 0054ad7c     Game.obj
 0002:00002d8c       ??_C@_02MJNHLAAE@EG?$AA@   0054ad8c     Game.obj
 0002:00002d90       ??_C@_0M@CGBNGOFM@Extract?5Gem?$AA@ 0054ad90     Game.obj
 0002:00002da0       ??_C@_02OGMJIJNC@SR?$AA@   0054ada0     Game.obj
 0002:00002da4       ??_C@_0L@EKGIAIEP@Stat?5Reset?$AA@ 0054ada4     Game.obj
 0002:00002db4       ??_C@_02LAFPLMEH@TC?$AA@   0054adb4     Game.obj
 0002:00002db8       ??_C@_0M@LKMEOCMF@Town?5Change?$AA@ 0054adb8     Game.obj
 0002:00002dc8       ??_C@_02KBOOJKOB@NC?$AA@   0054adc8     Game.obj
 0002:00002dcc       ??_C@_0BG@HGDLPNLJ@Character?5Name?5Change?$AA@ 0054adcc     Game.obj
 0002:00002de8       ??_C@_09HHGPAPOC@100k?5Gold?$AA@ 0054ade8     Game.obj
 0002:00002df4       ??_C@_0N@IOLPNPLB@100?0000?5Gold?$AA@ 0054adf4     Game.obj
 0002:00002e04       ??_C@_08OCKGIOHP@10k?5Gold?$AA@ 0054ae04     Game.obj
 0002:00002e10       ??_C@_0M@LLFECHJJ@10?0000?5Gold?$AA@ 0054ae10     Game.obj
 0002:00002e20       ??_C@_03DGOKNLOO@SoX?$AA@  0054ae20     Game.obj
 0002:00002e24       ??_C@_0BA@POCBNCOB@Stone?5of?5Xelima?$AA@ 0054ae24     Game.obj
 0002:00002e38       ??_C@_03BFPDNPK@SoM?$AA@   0054ae38     Game.obj
 0002:00002e3c       ??_C@_0BA@JNJMAFBM@Stone?5of?5Merien?$AA@ 0054ae3c     Game.obj
 0002:00002e50       ??_C@_03OEEENDAE@Zem?$AA@  0054ae50     Game.obj
 0002:00002e54       ??_C@_0BG@KEGGCAPM@Zemstone?5of?5Sacrifice?$AA@ 0054ae54     Game.obj
 0002:00002e70       ??_C@_08LCIAOKEG@MP?5Slate?$AA@ 0054ae70     Game.obj
 0002:00002e7c       ??_C@_0L@OOOMJJCH@Mana?5Slate?$AA@ 0054ae7c     Game.obj
 0002:00002e8c       ??_C@_0L@LLPOEFLI@Zerk?5Slate?$AA@ 0054ae8c     Game.obj
 0002:00002e9c       ??_C@_0O@IHGJHJLL@Berserk?5Slate?$AA@ 0054ae9c     Game.obj
 0002:00002eac       ??_C@_09NBMCLEMG@Dye?5Black?$AA@ 0054aeac     Game.obj
 0002:00002eb8       ??_C@_0M@IMCLPLFG@Dye?5?$CIBlack?$CJ?$AA@ 0054aeb8     Game.obj
 0002:00002ec8       ??_C@_08ENMIHGJB@Dye?5Pink?$AA@ 0054aec8     Game.obj
 0002:00002ed4       ??_C@_0L@KIPEHNLL@Dye?5?$CIPink?$CJ?$AA@ 0054aed4     Game.obj
 0002:00002ee4       ??_C@_0BA@MBNPCFMO@Dye?5Crimson?5Red?$AA@ 0054aee4     Game.obj
 0002:00002ef8       ??_C@_0BC@DLHIBLDC@Dye?5?$CICrimson?9Red?$CJ?$AA@ 0054aef8     Game.obj
 0002:00002f10       ??_C@_08DOHPKKHO@Dye?5Gold?$AA@ 0054af10     Game.obj
 0002:00002f1c       ??_C@_0L@JIDCDFIO@Dye?5?$CIGold?$CJ?$AA@ 0054af1c     Game.obj
 0002:00002f2c       ??_C@_07HNJPCIBE@Sex?5Pot?$AA@ 0054af2c     Game.obj
 0002:00002f38       ??_C@_0BC@GJINPHJM@Sex?5Change?5Potion?$AA@ 0054af38     Game.obj
 0002:00002f50       ??_C@_0N@GALFGMLF@Pandoras?5Key?$AA@ 0054af50     Game.obj
 0002:00002f60       ??_C@_0BC@NECLHIAD@The?5Pandora?8s?5Key?$AA@ 0054af60     Game.obj
 0002:00002f78       ??_C@_0BG@OGLMGFOG@LegionHornHelm?5Gold35?$AA@ 0054af78     Game.obj
 0002:00002f94       ??_C@_0CF@ELLNCBMN@Golden?5Horn?5Helmet?$CIGold?530?$CF?5End?5@ 0054af94     Game.obj
 0002:00002fc0       ??_C@_0BE@FIGMGCMP@LegionWizHat?5Gold35?$AA@ 0054afc0     Game.obj
 0002:00002fd8       ??_C@_0CB@FNOMJPCH@Golden?5Wiz?5Hat?$CIGold?530?$CF?5End?535?$CF?$CJ@ 0054afd8     Game.obj
 0002:00003000       ??_C@_0BE@CGKBLEIH@LegionWizCap?5Gold35?$AA@ 0054b000     Game.obj
 0002:00003018       ??_C@_0CB@JDDKPPDO@Golden?5Wiz?5Cap?$CIGold?530?$CF?5End?535?$CF?$CJ@ 0054b018     Game.obj
 0002:00003040       ??_C@_0BG@GHFJEPBJ@LegionWingHelm?5Gold35?$AA@ 0054b040     Game.obj
 0002:0000305c       ??_C@_0CF@JLENHKOI@Golden?5Wing?5Helmet?$CIGold?530?$CF?5End?5@ 0054b05c     Game.obj
 0002:00003088       ??_C@_0BF@HMLIOHDN@LegionHauberk?5Gold35?$AA@ 0054b088     Game.obj
 0002:000030a4       ??_C@_0CC@HBGBBHJN@Golden?5Hauberk?5?$CIGold?530?$CF?5End?535?$CF@ 0054b0a4     Game.obj
 0002:000030cc       ??_C@_0BH@EGBIPNMM@LegionPlateLegs?5Gold35?$AA@ 0054b0cc     Game.obj
 0002:000030e8       ??_C@_0CF@FHDGPCCB@Golden?5Plate?5Legs?5?$CIGold?530?$CF?5End?5@ 0054b0e8     Game.obj
 0002:00003114       ??_C@_0BD@IGEILLAN@LegionChain?5Gold35?$AA@ 0054b114     Game.obj
 0002:0000312c       ??_C@_0CF@ENGKGBID@Golden?5Chain?5Mail?5?$CIGold?530?$CF?5End?5@ 0054b12c     Game.obj
 0002:00003158       ??_C@_0BD@NMIGNOOD@LegionPlate?5Gold35?$AA@ 0054b158     Game.obj
 0002:00003170       ??_C@_0CF@BKAMNHNH@Golden?5Plate?5Mail?5?$CIGold?530?$CF?5End?5@ 0054b170     Game.obj
 0002:0000319c       ??_C@_0BL@MJIOJGIN@Wing?5Helm?5?$CIMP?521?$CF?5End?521?$CF?$CJ?$AA@ 0054b19c     Game.obj
 0002:000031bc       ??_C@_0BL@LDNHELJL@Wing?5Helm?5?$CIHP?521?$CF?5End?521?$CF?$CJ?$AA@ 0054b1bc     Game.obj
 0002:000031dc       ??_C@_0BF@GCCNIGJP@Cap?5?$CIMP?521?$CF?5End?521?$CF?$CJ?$AA@ 0054b1dc     Game.obj
 0002:000031f8       ??_C@_0BF@BIHEFLIJ@Cap?5?$CIHP?521?$CF?5End?521?$CF?$CJ?$AA@ 0054b1f8     Game.obj
 0002:00003214       ??_C@_0BM@FCHANIEE@Chain?5Hose?5?$CIMP?521?$CF?5End?521?$CF?$CJ?$AA@ 0054b214     Game.obj
 0002:00003238       ??_C@_0BM@CICJAFFC@Chain?5Hose?5?$CIHP?521?$CF?5End?521?$CF?$CJ?$AA@ 0054b238     Game.obj
 0002:0000325c       ??_C@_0BJ@GCDDOCMN@Hauberk?5?$CIMP?521?$CF?5End?521?$CF?$CJ?$AA@ 0054b25c     Game.obj
 0002:0000327c       ??_C@_0BJ@BIGKDPNL@Hauberk?5?$CIHP?521?$CF?5End?521?$CF?$CJ?$AA@ 0054b27c     Game.obj
 0002:0000329c       ??_C@_0L@MLKHMMJG@Chain?5MP21?$AA@ 0054b29c     Game.obj
 0002:000032ac       ??_C@_0BM@KDKGLFPC@Chain?5Mail?5?$CIMP?521?$CF?5End?521?$CF?$CJ?$AA@ 0054b2ac     Game.obj
 0002:000032d0       ??_C@_0L@DEHEDOG@Chain?5HP21?$AA@ 0054b2d0     Game.obj
 0002:000032e0       ??_C@_0BM@NJPPGIOE@Chain?5Mail?5?$CIHP?521?$CF?5End?521?$CF?$CJ?$AA@ 0054b2e0     Game.obj
 0002:00003304       ??_C@_0L@BAOBLOCG@Plate?5MP21?$AA@ 0054b304     Game.obj
 0002:00003314       ??_C@_0BM@HLFPPDPK@Plate?5Mail?5?$CIMP?521?$CF?5End?521?$CF?$CJ?$AA@ 0054b314     Game.obj
 0002:00003338       ??_C@_0L@NIABDBFG@Plate?5HP21?$AA@ 0054b338     Game.obj
 0002:00003348       ??_C@_0BM@BAGCOOM@Plate?5Mail?5?$CIHP?521?$CF?5End?521?$CF?$CJ?$AA@ 0054b348     Game.obj
 0002:00006132       ?value@?$is_bind_expression@PAVCGame@@@tr1@std@@2_NB 0054e132     Game.obj
 0002:00006134       ?value@?$is_placeholder@PAVCGame@@@tr1@std@@2HB 0054e134     Game.obj
 0002:00006138       ?_Value@?$_Result_of1@V?$mem_fun_t@XVCGame@@@std@@AAU_Nil@tr1@2@@tr1@std@@2_NB 0054e138     Game.obj
 0002:00006140       ??_7runtime_error@std@@6B@ 0054e140     Game.obj
 0002:00006150       ??_7facet@locale@std@@6B@  0054e150     Game.obj
 0002:0000615c       ??_7ctype_base@std@@6B@    0054e15c     Game.obj
 0002:00006168       ??_7ios_base@std@@6B@      0054e168     Game.obj
 0002:00006170       __real@c000000000000000    0054e170     Game.obj
 0002:00006180       __real@0000000000000000    0054e180     Game.obj
 0002:00006190       __real@3ff0000000000000    0054e190     Game.obj
 0002:000061a0       __real@40dfffc000000000    0054e1a0     Game.obj
 0002:000061b0       __real@4008000000000000    0054e1b0     Game.obj
 0002:000061bc       ??_C@_0O@NEMFEMFM@SavedPassword?$AA@ 0054e1bc     Game.obj
 0002:000061cc       ??_C@_0O@OMNABCNI@SavedUsername?$AA@ 0054e1cc     Game.obj
 0002:000061dc       ??_C@_0CN@HHENHEAF@Software?2Siementech?2HelbreathLeg@ 0054e1dc     Game.obj
 0002:00006214       ??_C@_0DA@POLKFNGH@Software?2Siementech?2HelbreathLeg@ 0054e214     Game.obj
 0002:00006250       ??_C@_0P@GIILHJEB@SOUNDS?2E38?4WAV?$AA@ 0054e250     Game.obj
 0002:00006264       ??_C@_0O@DJGKFOIK@SOUNDS?2C8?4WAV?$AA@ 0054e264     Game.obj
 0002:00006274       ??_C@_0BD@OHOJDBDI@SPRITES?2TREES1?4PAK?$AA@ 0054e274     Game.obj
 0002:0000628c       ??_C@_0N@FDJBEJFH@50?497?4101?434?$AA@ 0054e28c     Game.obj
 0002:0000629c       ??_C@_0BB@LOHNJDDH@game?9server?9mode?$AA@ 0054e29c     Game.obj
 0002:000062b0       ??_C@_0BA@FLPOJKBO@log?9server?9port?$AA@ 0054e2b0     Game.obj
 0002:000062c4       ??_C@_0BD@HBJHLJMO@log?9server?9address?$AA@ 0054e2c4     Game.obj
 0002:000062dc       ??_C@_08EOEBLMHH@INTERNET?$AA@ 0054e2dc     Game.obj
 0002:000062e8       ??_C@_08DBONICFA@internet?$AA@ 0054e2e8     Game.obj
 0002:000062f4       ??_C@_02BMJICGCB@rt?$AA@   0054e2f4     Game.obj
 0002:000062f8       ??_C@_04LCMACLFG@?4txt?$AA@ 0054e2f8     Game.obj
 0002:00006300       ??_C@_01KICIPPFI@?2?$AA@   0054e300     Game.obj
 0002:00006304       ??_C@_08ODCIAOPM@contents?$AA@ 0054e304     Game.obj
 0002:00006310       ??_C@_0L@GAKGEKDG@contents?$CFd?$AA@ 0054e310     Game.obj
 0002:00006320       ??_C@_0CB@LMCCCLHL@Time?5left?5for?5?$CFs?5to?5win?3?5?$CFu?3?$CF?42u@ 0054e320     Game.obj
 0002:00006348       ??_C@_0O@JIOMHDNC@?$CFs?5Shield?3?5?$CFd?$AA@ 0054e348     Game.obj
 0002:00006358       ??_C@_06GBEGMGE@?$CFs?3?5?$CFd?$AA@ 0054e358     Game.obj
 0002:00006360       ??_C@_0BI@DAELPJDF@Contrib?3?5?$CF3?42f?5?1?5100?400?$AA@ 0054e360     Game.obj
 0002:00006380       __real@4024000000000000    0054e380     Game.obj
 0002:0000638c       ??_C@_09MABJODIH@?$CFs?$CI?$CFd?0?$CFd?$CJ?$AA@ 0054e38c     Game.obj
 0002:00006398       ??_C@_09JMOGBLCC@?$CFd?$CF?$CF?5Full?$AA@ 0054e398     Game.obj
 0002:000063a4       ??_C@_07KHIHFBFN@Options?$AA@ 0054e3a4     Game.obj
 0002:000063b0       ??_C@_0N@JNOEMAIN@Chat?5History?$AA@ 0054e3b0     Game.obj
 0002:000063c0       ??_C@_0L@KGNEMMCH@Skill?5List?$AA@ 0054e3c0     Game.obj
 0002:000063d0       ??_C@_0L@NNJDPABL@Spell?5Book?$AA@ 0054e3d0     Game.obj
 0002:000063e0       ??_C@_09KNKLKLHB@Inventory?$AA@ 0054e3e0     Game.obj
 0002:000063ec       ??_C@_0P@JDFJOFK@Character?5Menu?$AA@ 0054e3ec     Game.obj
 0002:00006400       ??_C@_07JMLPIAPI@?$CF3?42f?$CF?$CF?$AA@ 0054e400     Game.obj
 0002:0000640c       ??_C@_02DPKJAMEF@?$CFd?$AA@ 0054e40c     Game.obj
 0002:00006410       ??_C@_08HOOBKJKN@Poisoned?$AA@ 0054e410     Game.obj
 0002:0000641c       ??_C@_04FEBIMPDM@?$CI?$CFd?$CJ?$AA@ 0054e41c     Game.obj
 0002:00006424       ??_C@_0CH@DNNHPMEF@?5cityhall?5and?5change?5to?5civilian@ 0054e424     Game.obj
 0002:00006454       ??_C@_0CE@LMKGLALN@To?5play?5the?5game?5in?5safe?0?5go?5to?5@ 0054e454     Game.obj
 0002:00006480       ??_C@_0CG@FFGHFOFA@cannot?5protected?5from?5others?8?5at@ 0054e480     Game.obj
 0002:000064b0       ??_C@_0CD@MNMHBMAP@This?5is?5a?5dangerous?5area?5where?5y@ 0054e4b0     Game.obj
 0002:000064dc       ??_C@_0BN@GHLLILNA@?5?$CK?$CK?5This?5is?5a?5battle?5area?5?$CK?$CK?$AA@ 0054e4dc     Game.obj
 0002:00006500       ??_C@_04MDFHGMOB@Next?$AA@ 0054e500     Game.obj
 0002:00006508       ??_C@_0P@PLMNPDMB@?$CF02d?3?$CF02d?3?$CF02d?$AA@ 0054e508     Game.obj
 0002:00006520       ??_C@_0EB@EPMCONIO@You?5can?5only?5summon?5war?5units?5in@ 0054e520     Game.obj
 0002:00006570       ??_C@_0BM@JLCIHMPN@Construction?5quantity?5limit?$AA@ 0054e570     Game.obj
 0002:00006594       ??_C@_0O@CFGNKHPB@?$CFs?5XY?$CI?$CFd?0?5?$CFd?$CJ?$AA@ 0054e594     Game.obj
 0002:000065a8       ??_C@_0FG@NLEIAJHO@You?5can?5only?5construct?5the?5build@ 0054e5a8     Game.obj
 0002:00006610       ??_C@_0EB@HCHIPOC@You?5are?5too?5close?5with?5the?5other@ 0054e610     Game.obj
 0002:00006660       ??_C@_07NPKILPG@?$CFd?5?5?5?$CFd?$AA@ 0054e660     Game.obj
 0002:0000666c       ??_C@_0N@PPJCCHJB@LegionTokens?$AA@ 0054e66c     Game.obj
 0002:0000667c       ??_C@_04PABHPHAJ@Gold?$AA@ 0054e67c     Game.obj
 0002:00006684       ??_C@_0P@GNCPONOH@?$CFd?5?$CFd?5?$CFd?5?$CFd?5?$CFd?$AA@ 0054e684     Game.obj
 0002:00006698       ??_C@_0BG@BFGCGNFC@contents?2ItemName?4cfg?$AA@ 0054e698     Game.obj
 0002:000066b4       ??_C@_02NGOCLIKE@?$DN?6?$AA@ 0054e6b4     Game.obj
 0002:000066b8       ??_C@_05KABNCBHK@?$CFd?0?$CFd?$AA@ 0054e6b8     Game.obj
 0002:000066c0       __real@4085400000000000    0054e6c0     Game.obj
 0002:000066d0       __real@4087800000000000    0054e6d0     Game.obj
 0002:000066dc       ??_C@_0CG@NKALFJ@You?5were?5successful?5on?5booking?5a@ 0054e6dc     Game.obj
 0002:0000670c       ??_C@_0BJ@PPHBMEDA@Failed?5on?5booking?5arena?4?$AA@ 0054e70c     Game.obj
 0002:0000672c       ??_C@_07NDGNEFEG@Astoria?$AA@ 0054e72c     Game.obj
 0002:00006738       ??_C@_0BF@GOPEFBDN@Begginers?5Blacksmith?$AA@ 0054e738     Game.obj
 0002:00006754       ??_C@_0BB@GCJDBDPO@Barracks?5Level?52?$AA@ 0054e754     Game.obj
 0002:00006768       ??_C@_0BB@EJLOEADN@Barracks?5Level?51?$AA@ 0054e768     Game.obj
 0002:0000677c       ??_C@_0N@IAODDMDB@Command?5Hall?$AA@ 0054e77c     Game.obj
 0002:0000678c       ??_C@_0M@HJGHOPNI@Elvine?5Jail?$AA@ 0054e78c     Game.obj
 0002:0000679c       ??_C@_0N@DOCKKCKK@Aresden?5Jail?$AA@ 0054e79c     Game.obj
 0002:000067ac       ??_C@_07MPHFCPBO@Arena?59?$AA@ 0054e7ac     Game.obj
 0002:000067b8       ??_C@_07NGGOBOFP@Arena?58?$AA@ 0054e7b8     Game.obj
 0002:000067c4       ??_C@_07FBPGACJA@Arena?57?$AA@ 0054e7c4     Game.obj
 0002:000067d0       ??_C@_07EIONDDNB@Arena?56?$AA@ 0054e7d0     Game.obj
 0002:000067dc       ??_C@_07GDMAGABC@Arena?55?$AA@ 0054e7dc     Game.obj
 0002:000067e8       ??_C@_07HKNLFBFD@Arena?54?$AA@ 0054e7e8     Game.obj
 0002:000067f4       ??_C@_07DFJKMHJE@Arena?53?$AA@ 0054e7f4     Game.obj
 0002:00006800       ??_C@_07CMIBPGNF@Arena?52?$AA@ 0054e800     Game.obj
 0002:0000680c       ??_C@_07HKMKFBG@Arena?51?$AA@ 0054e80c     Game.obj
 0002:00006818       ??_C@_0BB@KFDLEDAH@Elvine?5Barrack?52?$AA@ 0054e818     Game.obj
 0002:0000682c       ??_C@_0BB@IOBGBAME@Elvine?5Barrack?51?$AA@ 0054e82c     Game.obj
 0002:00006840       ??_C@_0BC@IICNLHBJ@Aresden?5Barrack?52?$AA@ 0054e840     Game.obj
 0002:00006858       ??_C@_0BC@KDAAOENK@Aresden?5Barrack?51?$AA@ 0054e858     Game.obj
 0002:00006870       ??_C@_0N@INKOOHHP@Revival?5Zone?$AA@ 0054e870     Game.obj
 0002:00006880       ??_C@_0BA@EEFPBKBB@Eldiniel?5Church?$AA@ 0054e880     Game.obj
 0002:00006894       ??_C@_0P@OHFADPGI@Aresien?5Church?$AA@ 0054e894     Game.obj
 0002:000068a8       ??_C@_0M@MABOFAKD@Magic?5Tower?$AA@ 0054e8a8     Game.obj
 0002:000068b8       ??_C@_0BB@PPMGMPE@Elvine?5Warehouse?$AA@ 0054e8b8     Game.obj
 0002:000068cc       ??_C@_0BC@CCOKJIOK@Aresden?5Warehouse?$AA@ 0054e8cc     Game.obj
 0002:000068e4       ??_C@_0M@ILGFHEEO@Elvine?5Shop?$AA@ 0054e8e4     Game.obj
 0002:000068f4       ??_C@_0N@MMCIDJDM@Aresden?5Shop?$AA@ 0054e8f4     Game.obj
 0002:00006904       ??_C@_0BC@FJKKMFEO@Elvine?5Blacksmith?$AA@ 0054e904     Game.obj
 0002:0000691c       ??_C@_0BD@KDIIOONJ@Aresden?5Blacksmith?$AA@ 0054e91c     Game.obj
 0002:00006934       ??_C@_0BB@LBBGBFGI@Elvine?5Guildhall?$AA@ 0054e934     Game.obj
 0002:00006948       ??_C@_0BC@JMAAOBHG@Aresden?5Guildhall?$AA@ 0054e948     Game.obj
 0002:00006960       ??_C@_0BA@MKDCELNO@Elvine?5Cityhall?$AA@ 0054e960     Game.obj
 0002:00006974       ??_C@_0BB@NOCJNICB@Aresden?5Cityhall?$AA@ 0054e974     Game.obj
 0002:00006988       ??_C@_0BC@JJIBGKDD@Heldenian?5Rampart?$AA@ 0054e988     Game.obj
 0002:000069a0       ??_C@_0BA@LBBLPLNI@God?8s?5Heldenian?$AA@ 0054e9a0     Game.obj
 0002:000069b4       ??_C@_0N@MDJCDLAB@Battle?5Field?$AA@ 0054e9b4     Game.obj
 0002:000069c4       ??_C@_07MAGIBIDL@Abaddon?$AA@ 0054e9c4     Game.obj
 0002:000069d0       ??_C@_08GLEGKFBG@Procella?$AA@ 0054e9d0     Game.obj
 0002:000069dc       ??_C@_04FLMIHGBI@Maze?$AA@ 0054e9dc     Game.obj
 0002:000069e4       ??_C@_0L@OFJCEKFO@Infernia?5B?$AA@ 0054e9e4     Game.obj
 0002:000069f4       ??_C@_0L@MOLPBJJN@Infernia?5A?$AA@ 0054e9f4     Game.obj
 0002:00006a04       ??_C@_0P@MHNGBMOC@Druncnian?5City?$AA@ 0054ea04     Game.obj
 0002:00006a18       ??_C@_07IAPNEGME@Ice?5Map?$AA@ 0054ea18     Game.obj
 0002:00006a24       ??_C@_0M@EFECBMMM@Promiseland?$AA@ 0054ea24     Game.obj
 0002:00006a34       ??_C@_0BD@GDLDMFAE@Middleland?5Dungeon?$AA@ 0054ea34     Game.obj
 0002:00006a4c       ??_C@_0BA@NGKFAKGF@Middleland?5Mine?$AA@ 0054ea4c     Game.obj
 0002:00006a60       ??_C@_0BA@PDCDMHBG@Tower?5of?5Hell?53?$AA@ 0054ea60     Game.obj
 0002:00006a74       ??_C@_0BA@OKDIPGFH@Tower?5of?5Hell?52?$AA@ 0054ea74     Game.obj
 0002:00006a88       ??_C@_0BA@MBBFKFJE@Tower?5of?5Hell?51?$AA@ 0054ea88     Game.obj
 0002:00006a9c       ??_C@_0BA@GIMBELGJ@Bleeding?5Island?$AA@ 0054ea9c     Game.obj
 0002:00006ab0       ??_C@_0BA@MLKGKJHG@Aresden?5Dungeon?$AA@ 0054eab0     Game.obj
 0002:00006ac4       ??_C@_0P@NBGJBJGK@Elvine?5Dungeon?$AA@ 0054eac4     Game.obj
 0002:00006ad8       ??_C@_0L@MILAKGLK@Dungeon?5L4?$AA@ 0054ead8     Game.obj
 0002:00006ae8       ??_C@_0L@IHPBDAHN@Dungeon?5L3?$AA@ 0054eae8     Game.obj
 0002:00006af8       ??_C@_0L@JOOKABDM@Dungeon?5L2?$AA@ 0054eaf8     Game.obj
 0002:00006b08       ??_C@_0N@NFMFDOAD@Aresden?5City?$AA@ 0054eb08     Game.obj
 0002:00006b18       ??_C@_0P@KBJFEFNE@Aresien?5Garden?$AA@ 0054eb18     Game.obj
 0002:00006b2c       ??_C@_0O@EKOELDEL@Eternal?5Field?$AA@ 0054eb2c     Game.obj
 0002:00006b3c       ??_C@_0M@EIPPKMHD@Silent?5Wood?$AA@ 0054eb3c     Game.obj
 0002:00006b4c       ??_C@_0O@BOOGLMPK@Beginner?5Zone?$AA@ 0054eb4c     Game.obj
 0002:00006b5c       ??_C@_0N@PCLCDCHL@Aresden?5Farm?$AA@ 0054eb5c     Game.obj
 0002:00006b6c       ??_C@_0M@LFPPHPAJ@Elvine?5Farm?$AA@ 0054eb6c     Game.obj
 0002:00006b7c       ??_C@_0M@JCIIHDHB@Elvine?5City?$AA@ 0054eb7c     Game.obj
 0002:00006b8c       ??_C@_0BA@CJKGAKN@Eldiniel?5Garden?$AA@ 0054eb8c     Game.obj
 0002:00006ba0       ??_C@_0P@GIGJCECE@Rocky?5Highland?$AA@ 0054eba0     Game.obj
 0002:00006bb4       ??_C@_0N@FDAFGNFJ@Death?5Valley?$AA@ 0054ebb4     Game.obj
 0002:00006bc4       ??_C@_0L@HJNHLBHD@Middleland?$AA@ 0054ebc4     Game.obj
 0002:00006bd4       ??_C@_0BP@KONNBKJ@Item?5transaction?5not?5finished?4?$AA@ 0054ebd4     Game.obj
 0002:00006bfc       ??_C@_0BO@NLCHEMM@You?5cannot?5use?5it?5right?5here?4?$AA@ 0054ebfc     Game.obj
 0002:00006c20       ??_C@_0CE@KHKBBNPK@You?8re?5already?5using?5another?5sla@ 0054ec20     Game.obj
 0002:00006c4c       ??_C@_0O@JPOMAIKJ@Air?5Elemental?$AA@ 0054ec4c     Game.obj
 0002:00006c5c       ??_C@_0P@PKGHOMLG@Astoria?5Shield?$AA@ 0054ec5c     Game.obj
 0002:00006c70       ??_C@_0BH@PLGICJHN@Guild?5Warehouse?5Keeper?$AA@ 0054ec70     Game.obj
 0002:00006c8c       ??_C@_04BLOGEDLD@Gate?$AA@ 0054ec8c     Game.obj
 0002:00006c94       ??_C@_04NONKMINJ@Gail?$AA@ 0054ec94     Game.obj
 0002:00006c9c       ??_C@_0BF@GHOPPIBN@Ancient?5Giant?5Cannon?$AA@ 0054ec9c     Game.obj
 0002:00006cb8       ??_C@_09ILIBCODF@Barbarian?$AA@ 0054ecb8     Game.obj
 0002:00006cc4       ??_C@_0BA@LKHFGGBH@Crossbow?5Turret?$AA@ 0054ecc4     Game.obj
 0002:00006cd8       ??_C@_0BC@DKHLOJOD@Heavy?5Battle?5Tank?$AA@ 0054ecd8     Game.obj
 0002:00006cf0       ??_C@_0BD@IIFHGNKB@Dark?5Shadow?5Knight?$AA@ 0054ecf0     Game.obj
 0002:00006d08       ??_C@_0L@MBPNPCBF@Elf?5Master?$AA@ 0054ed08     Game.obj
 0002:00006d18       ??_C@_0BG@LHBNPDEA@Ancient?5Temple?5Knight?$AA@ 0054ed18     Game.obj
 0002:00006d34       ??_C@_09BMNBPCGJ@Sorceress?$AA@ 0054ed34     Game.obj
 0002:00006d40       ??_C@_08IOMPDIEM@Tentocle?$AA@ 0054ed40     Game.obj
 0002:00006d4c       ??_C@_05LEEDAPMJ@Nizie?$AA@ 0054ed4c     Game.obj
 0002:00006d54       ??_C@_08BLFPFJAA@Minotaur?$AA@ 0054ed54     Game.obj
 0002:00006d60       ??_C@_0BA@EELDKGLG@Master?5Mage?5Orc?$AA@ 0054ed60     Game.obj
 0002:00006d74       ??_C@_0L@INDICMJA@Giant?5Tree?$AA@ 0054ed74     Game.obj
 0002:00006d84       ??_C@_0N@EFIPMOKJ@Giant?5Lizard?$AA@ 0054ed84     Game.obj
 0002:00006d94       ??_C@_0P@OLLENJMP@Giant?5Crayfish?$AA@ 0054ed94     Game.obj
 0002:00006da8       ??_C@_0M@HBONBDFM@Fire?5Wyvern?$AA@ 0054eda8     Game.obj
 0002:00006db8       ??_C@_0M@HIPFIDHP@Claw?5Turtle?$AA@ 0054edb8     Game.obj
 0002:00006dc8       ??_C@_07BGEEIPFG@Centaur?$AA@ 0054edc8     Game.obj
 0002:00006dd4       ??_C@_06COGLIGFC@Dragon?$AA@ 0054edd4     Game.obj
 0002:00006ddc       ??_C@_06DBPEAEFA@Devlin?$AA@ 0054eddc     Game.obj
 0002:00006de4       ??_C@_05HLNPLIAA@Perry?$AA@ 0054ede4     Game.obj
 0002:00006dec       ??_C@_0BF@ELEPBOJL@Auction?5House?5Keeper?$AA@ 0054edec     Game.obj
 0002:00006e08       ??_C@_06HOKNEDPI@Wyvern?$AA@ 0054ee08     Game.obj
 0002:00006e10       ??_C@_09KKACBPBD@Ice?5Golem?$AA@ 0054ee10     Game.obj
 0002:00006e1c       ??_C@_04ILAMLHIH@Crop?$AA@ 0054ee1c     Game.obj
 0002:00006e24       ??_C@_07EPCKAKBK@Ginseng?$AA@ 0054ee24     Game.obj
 0002:00006e30       ??_C@_08JIDDBKHJ@Mushroom?$AA@ 0054ee30     Game.obj
 0002:00006e3c       ??_C@_0L@GCKLPFLF@Blue?5Grape?$AA@ 0054ee3c     Game.obj
 0002:00006e4c       ??_C@_06CALGBKCD@Grapes?$AA@ 0054ee4c     Game.obj
 0002:00006e54       ??_C@_06BPAOMENE@Tomato?$AA@ 0054ee54     Game.obj
 0002:00006e5c       ??_C@_06HKDCKOAA@Melone?$AA@ 0054ee5c     Game.obj
 0002:00006e64       ??_C@_0BE@FJDFDJKO@Chinese?5Bell?5Flower?$AA@ 0054ee64     Game.obj
 0002:00006e7c       ??_C@_04OJMADHDJ@Corn?$AA@ 0054ee7c     Game.obj
 0002:00006e84       ??_C@_06MEHOFKEC@Radish?$AA@ 0054ee84     Game.obj
 0002:00006e8c       ??_C@_06JOCEHIMN@Carrot?$AA@ 0054ee8c     Game.obj
 0002:00006e94       ??_C@_06DAKMKIEO@Barley?$AA@ 0054ee94     Game.obj
 0002:00006e9c       ??_C@_06NLKDIEFG@Garlic?$AA@ 0054ee9c     Game.obj
 0002:00006ea4       ??_C@_07GMEMBGBD@Pumpkin?$AA@ 0054eea4     Game.obj
 0002:00006eb0       ??_C@_0L@JOHKHHPO@WaterMelon?$AA@ 0054eeb0     Game.obj
 0002:00006ec0       ??_C@_05GKIPIJCM@Frost?$AA@ 0054eec0     Game.obj
 0002:00006ec8       ??_C@_08KCEJCEDK@Direboar?$AA@ 0054eec8     Game.obj
 0002:00006ed4       ??_C@_07DDKMEHDF@Rudolph?$AA@ 0054eed4     Game.obj
 0002:00006ee0       ??_C@_05JEPBAGFJ@Plant?$AA@ 0054eee0     Game.obj
 0002:00006ee8       ??_C@_05EFNPACMB@Ettin?$AA@ 0054eee8     Game.obj
 0002:00006ef0       ??_C@_0P@CEBFKJLE@Mountain?5Giant?$AA@ 0054eef0     Game.obj
 0002:00006f04       ??_C@_04EGGPLMGB@Frog?$AA@ 0054ef04     Game.obj
 0002:00006f0c       ??_C@_06GLPJFDBI@Rabbit?$AA@ 0054ef0c     Game.obj
 0002:00006f14       ??_C@_07MMFBLIBC@Darkelf?$AA@ 0054ef14     Game.obj
 0002:00006f20       ??_C@_08ILPBDJKF@Beholder?$AA@ 0054ef20     Game.obj
 0002:00006f2c       ??_C@_08IFFAHJHG@Gargoyle?$AA@ 0054ef2c     Game.obj
 0002:00006f38       ??_C@_08JGIKGCKG@Catapult?$AA@ 0054ef38     Game.obj
 0002:00006f44       ??_C@_0L@MDOPBEND@Tiger?5Worm?$AA@ 0054ef44     Game.obj
 0002:00006f54       ??_C@_07EABEFOKN@Helclaw?$AA@ 0054ef54     Game.obj
 0002:00006f60       ??_C@_07HJALAEIF@Stalker?$AA@ 0054ef60     Game.obj
 0002:00006f6c       ??_C@_0N@CEJFNCEI@Battle?5Golem?$AA@ 0054ef6c     Game.obj
 0002:00006f7c       ??_C@_0O@CEAPGFOA@Temple?5Knight?$AA@ 0054ef7c     Game.obj
 0002:00006f8c       ??_C@_0BC@HGLALOAM@God?8s?5Hand?5Knight?$AA@ 0054ef8c     Game.obj
 0002:00006fa4       ??_C@_0BB@DBFFCALH@Light?5War?5Beetle?$AA@ 0054efa4     Game.obj
 0002:00006fb8       ??_C@_0L@EPBCBEPB@Mana?5Stone?$AA@ 0054efb8     Game.obj
 0002:00006fc8       ??_C@_0BG@INHPHMJ@Grand?5Magic?5Generator?$AA@ 0054efc8     Game.obj
 0002:00006fe4       ??_C@_0BI@PADBBJKL@Energy?5Shield?5Generator?$AA@ 0054efe4     Game.obj
 0002:00007000       ??_C@_08CGNANAGL@Detector?$AA@ 0054f000     Game.obj
 0002:0000700c       ??_C@_0N@LDBKLJLF@Detector?5Kit?$AA@ 0054f00c     Game.obj
 0002:0000701c       ??_C@_0P@MPAELAAN@Mana?5Collector?$AA@ 0054f01c     Game.obj
 0002:00007030       ??_C@_0BD@NJACIAIN@Mana?5Collector?5Kit?$AA@ 0054f030     Game.obj
 0002:00007048       ??_C@_0BD@JDNOHCNP@Cannon?5Guard?5Tower?$AA@ 0054f048     Game.obj
 0002:00007060       ??_C@_0BH@NOHOIDPL@Cannon?5Guard?5Tower?5Kit?$AA@ 0054f060     Game.obj
 0002:0000707c       ??_C@_0BC@JGHNHJBK@Arrow?5Guard?5Tower?$AA@ 0054f07c     Game.obj
 0002:00007094       ??_C@_0BG@GGPIGJIL@Arrow?5Guard?5Tower?5Kit?$AA@ 0054f094     Game.obj
 0002:000070b0       ??_C@_0O@GMODNHDL@Energy?5Sphere?$AA@ 0054f0b0     Game.obj
 0002:000070c0       ??_C@_05JMHIMMIL@Dummy?$AA@ 0054f0c0     Game.obj
 0002:000070c8       ??_C@_08OONNBDDF@Werewolf?$AA@ 0054f0c8     Game.obj
 0002:000070d4       ??_C@_07GCLFKEMB@Unicorn?$AA@ 0054f0d4     Game.obj
 0002:000070e0       ??_C@_05PKJPALPB@Demon?$AA@ 0054f0e0     Game.obj
 0002:000070e8       ??_C@_05NFFINMOA@Liche?$AA@ 0054f0e8     Game.obj
 0002:000070f0       ??_C@_04KHACLBM@Ogre?$AA@  0054f0f0     Game.obj
 0002:000070f8       ??_C@_05LBPAFGKI@Troll?$AA@ 0054f0f8     Game.obj
 0002:00007100       ??_C@_08EIFNLHIM@Helhound?$AA@ 0054f100     Game.obj
 0002:0000710c       ??_C@_0BC@PJOMFGGE@Guildhall?5Officer?$AA@ 0054f10c     Game.obj
 0002:00007124       ??_C@_0BB@MINOBBOA@Cityhall?5Officer?$AA@ 0054f124     Game.obj
 0002:00007138       ??_C@_0BC@HJEJJMNO@BlackSmith?5Keeper?$AA@ 0054f138     Game.obj
 0002:00007150       ??_C@_0L@MBDDHNBB@Clay?5Golem?$AA@ 0054f150     Game.obj
 0002:00007160       ??_C@_05DNLHMGGM@Snake?$AA@ 0054f160     Game.obj
 0002:00007168       ??_C@_05LICMIJMM@Guard?$AA@ 0054f168     Game.obj
 0002:00007170       ??_C@_0BB@GJGKHBEG@Warehouse?5Keeper?$AA@ 0054f170     Game.obj
 0002:00007184       ??_C@_08GNIEBKJG@Sorcerer?$AA@ 0054f184     Game.obj
 0002:00007190       ??_C@_06LDJFMIMO@Zombie?$AA@ 0054f190     Game.obj
 0002:00007198       ??_C@_0P@GBFLLOCF@Giant?5Scorpion?$AA@ 0054f198     Game.obj
 0002:000071ac       ??_C@_09CMNLCOGB@Giant?5Ant?$AA@ 0054f1ac     Game.obj
 0002:000071b8       ??_C@_0M@HLCMMNBL@Shop?5Keeper?$AA@ 0054f1b8     Game.obj
 0002:000071c8       ??_C@_07KFDLDCOI@Cyclops?$AA@ 0054f1c8     Game.obj
 0002:000071d4       ??_C@_0M@IEEPIMEH@Stone?5Golem?$AA@ 0054f1d4     Game.obj
 0002:000071e4       ??_C@_08HEGKIDKO@Skeleton?$AA@ 0054f1e4     Game.obj
 0002:000071f0       ??_C@_05IGEOMBFB@Slime?$AA@ 0054f1f0     Game.obj
 0002:000071f8       ??_C@_03JGJPCCHE@?$CL?$CFd?$AA@ 0054f1f8     Game.obj
 0002:000071fc       ??_C@_05OPAKFCFB@?$CFs?$CL?$CFd?$AA@ 0054f1fc     Game.obj
 0002:00007204       ??_C@_0L@HHHAINGE@?$CFs?5Tier?5?$CFd?$AA@ 0054f204     Game.obj
 0002:00007214       ??_C@_0L@NLNHNHIE@Eldiniel?8s?$AA@ 0054f214     Game.obj
 0002:00007224       ??_C@_09GKBDCIOC@Aresien?8s?$AA@ 0054f224     Game.obj
 0002:00007230       ??_C@_0BD@IKKBPBH@?$CL?$CFd?$CF?$CF?5Contribution?$AA@ 0054f230     Game.obj
 0002:00007248       ??_C@_0L@HLELNOGI@?$CL?$CFd?$CF?$CF?5Gold?$AA@ 0054f248     Game.obj
 0002:00007258       ??_C@_0BB@FBKPILCP@?$CL?$CFd?$CF?$CF?5Experience?$AA@ 0054f258     Game.obj
 0002:0000726c       ??_C@_0BI@MPKHDGLN@?$CL?$CFd?5Combo?5Attack?5Damage?$AA@ 0054f26c     Game.obj
 0002:00007288       ??_C@_0BC@GGEECPMA@?$CL?$CFd?$CF?$CF?5SP?5Recovery?$AA@ 0054f288     Game.obj
 0002:000072a0       ??_C@_0BI@DHHCHMJF@?$CL?$CFd?$CF?$CF?5Poison?5Resistance?$AA@ 0054f2a0     Game.obj
 0002:000072bc       ??_C@_0BI@LHDHCJEJ@?$CL?$CFd?$CF?$CF?5Critical?5Recharge?$AA@ 0054f2bc     Game.obj
 0002:000072d8       ??_C@_0BK@POJCHMNJ@Replace?5?$CFd?$CF?$CF?5Damage?5to?5MP?$AA@ 0054f2d8     Game.obj
 0002:000072f8       ??_C@_0BL@PBEAGAAJ@?$CL?$CFd?$CF?$CF?5Magic?5Casting?5Chance?$AA@ 0054f2f8     Game.obj
 0002:00007318       ??_C@_0BD@KBFGCKBI@Extra?5Damage?5added?$AA@ 0054f318     Game.obj
 0002:00007330       ??_C@_0BA@LFFFOABH@?$CL?$CFd?$CF?$CF?5Endurance?$AA@ 0054f330     Game.obj
 0002:00007344       ??_C@_0N@KAEKGHDG@Damage?5added?$AA@ 0054f344     Game.obj
 0002:00007354       ??_C@_0L@EKCMGNDF@?$CFd?$CF?$CF?5Light?$AA@ 0054f354     Game.obj
 0002:00007364       ??_C@_0BA@MAECOF@Attack?5Speed?5?91?$AA@ 0054f364     Game.obj
 0002:00007378       ??_C@_09MGJEFKFO@Critical?5?$AA@ 0054f378     Game.obj
 0002:00007384       ??_C@_0BB@MPOOGJON@Mana?5Converting?5?$AA@ 0054f384     Game.obj
 0002:00007398       ??_C@_08GKGGIKHI@Special?5?$AA@ 0054f398     Game.obj
 0002:000073a4       ??_C@_08MMIMNKFF@Ancient?5?$AA@ 0054f3a4     Game.obj
 0002:000073b0       ??_C@_07HDOBFOK@Strong?5?$AA@ 0054f3b0     Game.obj
 0002:000073bc       ??_C@_06DABICEIE@Sharp?5?$AA@ 0054f3bc     Game.obj
 0002:000073c4       ??_C@_06NNDPPBIB@Light?5?$AA@ 0054f3c4     Game.obj
 0002:000073cc       ??_C@_06KLFEBBEA@Agile?5?$AA@ 0054f3cc     Game.obj
 0002:000073d4       ??_C@_0L@GGPKHKGH@Righteous?5?$AA@ 0054f3d4     Game.obj
 0002:000073e4       ??_C@_0L@MGPCFDGL@Poisoning?5?$AA@ 0054f3e4     Game.obj
 0002:000073f4       ??_C@_05OPEIBKFE@?$CFd?5?$CFs?$AA@ 0054f3f4     Game.obj
 0002:000073fc       ??_C@_02DKCKIIND@?$CFs?$AA@ 0054f3fc     Game.obj
 0002:00007400       ??_C@_0BB@LKJNLPEJ@Completion?3?5?$CFd?$CF?$CF?$AA@ 0054f400     Game.obj
 0002:00007414       ??_C@_0N@LAKLMPOE@Purity?3?5?$CFd?$CF?$CF?$AA@ 0054f414     Game.obj
 0002:00007424       ??_C@_0M@DDBCDPMO@Charges?3?5?$CFd?$AA@ 0054f424     Game.obj
 0002:00007434       ??_C@_0BA@MELLLADD@Activations?3?5?$CFd?$AA@ 0054f434     Game.obj
 0002:00007448       ??_C@_0L@KEJMOHJD@Corrupted?5?$AA@ 0054f448     Game.obj
 0002:00007458       ??_C@_0BJ@PEABENLL@?5?5?$CF2d?5?$HM?5?$CF2d?5?5?$HM?5?$CF3d?5?$HM?5?$CF2d?$AA@ 0054f458     Game.obj
 0002:00007478       ??_C@_0CA@PKMPMCDE@Towers?5?$HM?5Flags?5?$HM?5Kills?5?$HM?5Deaths?$AA@ 0054f478     Game.obj
 0002:000074a0       ??_C@_0BB@IAFHOMCH@music?2MainTm?4wav?$AA@ 0054f4a0     Game.obj
 0002:000074b4       ??_C@_0BC@JOCFCOOI@music?2astoria?4wav?$AA@ 0054f4b4     Game.obj
 0002:000074cc       ??_C@_0BB@FNKEMEAM@music?2istria?4wav?$AA@ 0054f4cc     Game.obj
 0002:000074e0       ??_C@_06HIPNCIJ@istria?$AA@ 0054f4e0     Game.obj
 0002:000074e8       ??_C@_0BC@JKNNFONB@music?2abaddon?4wav?$AA@ 0054f4e8     Game.obj
 0002:00007500       ??_C@_0BF@JPNFIMNJ@music?2druncncity?4wav?$AA@ 0054f500     Game.obj
 0002:0000751c       ??_C@_0BF@FICJACJJ@music?2middleland?4wav?$AA@ 0054f51c     Game.obj
 0002:00007538       ??_C@_08EOFLOKLL@middled1?$AA@ 0054f538     Game.obj
 0002:00007544       ??_C@_0BC@IBJPJPFP@music?2dungeon?4wav?$AA@ 0054f544     Game.obj
 0002:0000755c       ??_C@_0BA@IPNPBDPO@music?2bisle?4wav?$AA@ 0054f55c     Game.obj
 0002:00007570       ??_C@_0BB@NAAKPFMN@music?2elvine?4wav?$AA@ 0054f570     Game.obj
 0002:00007584       ??_C@_0BC@FBBBEKJG@music?2aresden?4wav?$AA@ 0054f584     Game.obj
 0002:0000759c       ??_C@_0BA@EONFJCMD@music?2Carol?4wav?$AA@ 0054f59c     Game.obj
 0002:000075b0       ??_C@_0CD@HDFLAGOM@HP?5has?5been?5increased?5by?5?$CFdpoint@ 0054f5b0     Game.obj
 0002:000075dc       ??_C@_0DJ@JLPBHJMJ@Logout?5count?5cancels?5if?5HP?5decre@ 0054f5dc     Game.obj
 0002:00007620       ??_C@_0CD@GIPGIFMN@HP?5has?5been?5decreased?5by?5?$CFdpoint@ 0054f620     Game.obj
 0002:0000764c       ??_C@_08EHINJMNN@Charisma?$AA@ 0054f64c     Game.obj
 0002:00007658       ??_C@_05PGIOBOGC@Magic?$AA@ 0054f658     Game.obj
 0002:00007660       ??_C@_0N@JMDJBAGL@Intelligence?$AA@ 0054f660     Game.obj
 0002:00007670       ??_C@_09MKECBNFJ@Dexterity?$AA@ 0054f670     Game.obj
 0002:0000767c       ??_C@_08LLHMGAAM@Vitality?$AA@ 0054f67c     Game.obj
 0002:00007688       ??_C@_08CHNCHBNG@Strength?$AA@ 0054f688     Game.obj
 0002:00007694       ??_C@_0P@LLKMCDDO@?$CK?5Points?5left?3?$AA@ 0054f694     Game.obj
 0002:000076a8       ??_C@_0BO@DNKENFKK@will?5be?5increased?5by?5setting?4?$AA@ 0054f6a8     Game.obj
 0002:000076cc       ??_C@_0CD@OKFHENKI@When?5level?5up?0?5your?5specific?5sta@ 0054f6cc     Game.obj
 0002:000076f8       ??_C@_0BA@EHHDLDGH@_______________?$AA@ 0054f6f8     Game.obj
 0002:0000770c       ??_C@_0O@LCGECHA@?9?5Quest?5Log?5?9?$AA@ 0054f70c     Game.obj
 0002:0000771c       ??_C@_07IFNDKGJF@?$CFs?5?3?5?$CFd?$AA@ 0054f71c     Game.obj
 0002:00007728       ??_C@_0CA@ENLEACGB@Do?5you?5really?5want?5to?5exchange?$DP?$AA@ 0054f728     Game.obj
 0002:00007750       ??_C@_0BI@MJGFKKAC@Waiting?5for?5response?4?4?4?$AA@ 0054f750     Game.obj
 0002:0000776c       ??_C@_08PPMGJHED@Try?5Now?$CB?$AA@ 0054f76c     Game.obj
 0002:00007778       ??_C@_05DKJOAIG@?$CFd?5?$CF?$CF?$AA@ 0054f778     Game.obj
 0002:00007780       ??_C@_0N@JBHGHMLD@Probability?3?$AA@ 0054f780     Game.obj
 0002:00007790       ??_C@_0P@GBJHGDPH@Value?3?5?$CFd?5Gold?$AA@ 0054f790     Game.obj
 0002:000077a4       ??_C@_0N@BDGEHPEM@?$CFs?5?$CI?$CFu?5left?$CJ?$AA@ 0054f7a4     Game.obj
 0002:000077b4       ??_C@_0BL@IFLBDMEC@What?5rank?5to?5assign?5to?5?$CFs?$DP?$AA@ 0054f7b4     Game.obj
 0002:000077d4       ??_C@_0CC@IMCLDMPN@You?5are?5not?5a?5guildsman?5any?5more@ 0054f7d4     Game.obj
 0002:000077fc       ??_C@_0BM@OMDCJJBH@?$CK?5Your?5guild?5was?5dismissed?4?$AA@ 0054f7fc     Game.obj
 0002:00007820       ??_C@_0BP@NBFMKMBC@Withdrawing?5from?5guild?5failed?3?$AA@ 0054f820     Game.obj
 0002:00007848       ??_C@_0BG@EKJLFBOO@are?5a?5normal?5citizen?4?$AA@ 0054f848     Game.obj
 0002:00007864       ??_C@_0CF@NIPJHBID@You?5are?5not?5a?5guildsman?5anymore?4@ 0054f864     Game.obj
 0002:00007890       ??_C@_0CI@MFOLBOCD@approval?5of?5withdrawing?5from?5the@ 0054f890     Game.obj
 0002:000078c0       ??_C@_0BP@PDOAODHD@refused?5to?5accept?5your?5submit?4?$AA@ 0054f8c0     Game.obj
 0002:000078e8       ??_C@_0CA@OEOMMCMG@?$CK?5The?5Guildmaster?5of?5this?5guild?$AA@ 0054f8e8     Game.obj
 0002:00007910       ??_C@_0BK@KBAMAPAF@Joining?5the?5guild?5failed?3?$AA@ 0054f910     Game.obj
 0002:00007930       ??_C@_0CC@LKDBGKOJ@submit?4?5You?5bacame?5the?5guildsman@ 0054f930     Game.obj
 0002:00007958       ??_C@_0CC@GHIAHCFA@?$CK?5Your?5guild?5master?5approved?5you@ 0054f958     Game.obj
 0002:00007980       ??_C@_0BP@JPFIANDD@approval?5of?5joining?5the?5guild?3?$AA@ 0054f980     Game.obj
 0002:000079a8       ??_C@_0CE@MKKIGJOK@?5he?5can?5withdraw?5from?5guild?5or?5n@ 0054f9a8     Game.obj
 0002:000079d4       ??_C@_0CK@HFJHMBMP@?$CK?5This?5player?5wants?5to?5withdraw?5@ 0054f9d4     Game.obj
 0002:00007a08       ??_C@_0BL@HLLLOEOP@Guild?5withdrawing?5request?3?$AA@ 0054fa08     Game.obj
 0002:00007a28       ??_C@_0BB@EBENJOCB@Make?5a?5decision?4?$AA@ 0054fa28     Game.obj
 0002:00007a3c       ??_C@_0BP@PDKKKJIK@?5he?5can?5join?5the?5guild?5or?5not?4?$AA@ 0054fa3c     Game.obj
 0002:00007a64       ??_C@_0CH@JMIJCAKN@?5You?0Guildmaster?5can?5decide?5whet@ 0054fa64     Game.obj
 0002:00007a94       ??_C@_0CJ@PKKIEEH@?$CK?5This?5player?5wants?5to?5join?5your@ 0054fa94     Game.obj
 0002:00007ac8       ??_C@_0BF@EDGMJADI@____________________?$AA@ 0054fac8     Game.obj
 0002:00007ae4       ??_C@_0BJ@LPEOLAKK@Guild?5admission?5request?3?$AA@ 0054fae4     Game.obj
 0002:00007b04       ??_C@_0BN@LGGDPNLO@BlackMageTemple?5ManaSave?528?$CF?$AA@ 0054fb04     Game.obj
 0002:00007b28       ??_C@_0BJ@KNIDOCKC@DMMagicWand?5ManaSave?525?$CF?$AA@ 0054fb28     Game.obj
 0002:00007b48       ??_C@_0BK@CEJJKIGP@DMMagicStaff?5ManaSave?522?$CF?$AA@ 0054fb48     Game.obj
 0002:00007b68       ??_C@_0CF@GMEJNGDD@Miscellaneous?5Wands?5Mana?5Save?5Va@ 0054fb68     Game.obj
 0002:00007b94       ??_C@_0CB@DEHDKPJI@MagicNecklace?$CIMS18?$CJ?5ManaSave?518?$CF@ 0054fb94     Game.obj
 0002:00007bbc       ??_C@_0CB@BOGPHEDJ@MagicNecklace?$CIMS16?$CJ?5ManaSave?516?$CF@ 0054fbbc     Game.obj
 0002:00007be4       ??_C@_0CB@JKELIFDE@MagicNecklace?$CIMS14?$CJ?5ManaSave?514?$CF@ 0054fbe4     Game.obj
 0002:00007c0c       ??_C@_0CB@MNFHJAGC@MagicNecklace?$CIMS12?$CJ?5ManaSave?512?$CF@ 0054fc0c     Game.obj
 0002:00007c34       ??_C@_0BP@HIHELOOF@MagicNecklace?5Mana?5Save?5Varies?$AA@ 0054fc34     Game.obj
 0002:00007c5c       ??_C@_0BE@GIJOLAJA@MagicWand?$CIMS30?9LLF?$CJ?$AA@ 0054fc5c     Game.obj
 0002:00007c74       ??_C@_0CE@MKHPPCAO@Wands?5?$CG?5Necklace?5With?530?$CF?5Mana?5S@ 0054fc74     Game.obj
 0002:00007ca0       ??_C@_0CF@MBNEDADL@ResurWand?$CIMS?420?$CJ?0?5WizMagicWand?$CIM@ 0054fca0     Game.obj
 0002:00007ccc       ??_C@_0CH@GFHIMIJG@BerserkWand?$CIMS?420?$CJ?0?5KlonessWand?$CI@ 0054fccc     Game.obj
 0002:00007cfc       ??_C@_0CB@KIFFIHJO@MagicWand?$CIMS20?$CJ?0?5NecklaceOfLiche@ 0054fcfc     Game.obj
 0002:00007d24       ??_C@_0CE@FHHABDHI@Wands?5?$CG?5Necklace?5With?520?$CF?5Mana?5S@ 0054fd24     Game.obj
 0002:00007d50       ??_C@_0CF@PLHALILD@KlonessWand?$CIMS?410?$CJ?0?5ResurWand?$CIMS@ 0054fd50     Game.obj
 0002:00007d7c       ??_C@_0CI@JPOHDNIA@MagicNecklace?$CIMS10?$CJ?0?5BerserkWand@ 0054fd7c     Game.obj
 0002:00007dac       ??_C@_0CE@CEBCCBIJ@MagicWand?$CIMS10?$CJ?0?5WizMagicWand?$CIMS@ 0054fdac     Game.obj
 0002:00007dd8       ??_C@_0CE@CLBBDGKD@Wands?5?$CG?5Necklace?5With?510?$CF?5Mana?5S@ 0054fdd8     Game.obj
 0002:00007e04       ??_C@_05BIKBEGBP@?$CFd?9?$CFd?$AA@ 0054fe04     Game.obj
 0002:00007e0c       ??_C@_06KGFFMMMJ@Damage?$AA@ 0054fe0c     Game.obj
 0002:00007e14       ??_C@_0CI@OJFPLGEO@Select?5a?5magic?5which?5you?5want?5to@ 0054fe14     Game.obj
 0002:00007e44       ??_C@_0BD@HJCEECKA@Spell?5Damage?5Chart?$AA@ 0054fe44     Game.obj
 0002:00007e5c       ??_C@_0BA@PHODLBBL@Mana?5Save?5Chart?$AA@ 0054fe5c     Game.obj
 0002:00007e70       ??_C@_03GOOLIKIF@?$CF3d?$AA@ 0054fe70     Game.obj
 0002:00007e74       ??_C@_04FICPKHNF@Cost?$AA@ 0054fe74     Game.obj
 0002:00007e7c       ??_C@_03DBLNGNIM@Int?$AA@  0054fe7c     Game.obj
 0002:00007e80       ??_C@_0L@MEGFGHEA@Mana?5Usage?$AA@ 0054fe80     Game.obj
 0002:00007e90       ??_C@_0L@GFLLJDMJ@Spell?5Name?$AA@ 0054fe90     Game.obj
 0002:00007ea0       ??_C@_0BN@FHNJILMN@We?5appreciate?5your?5patience?4?$AA@ 0054fea0     Game.obj
 0002:00007ec4       ??_C@_0CM@CEEAAPFJ@It?5will?5be?5back?5online?5as?5soon?5a@ 0054fec4     Game.obj
 0002:00007ef8       ??_C@_0CC@CKLOKAMC@?5GameServer?5will?5be?5offline?5soon@ 0054fef8     Game.obj
 0002:00007f20       ??_C@_0CL@NNLAEKAD@?5GameServer?5will?5be?5offline?5in?5?$CF@ 0054ff20     Game.obj
 0002:00007f54       ??_C@_0CG@OGIFNMNA@other?5people?0?5as?5you?5could?5lose?5@ 0054ff54     Game.obj
 0002:00007f84       ??_C@_0CH@LLHAPCKK@soon?4?5Don?8t?5drop?5items?5or?5give?5t@ 0054ff84     Game.obj
 0002:00007fb4       ??_C@_0CL@HGFIAGON@Your?5connection?5will?5be?5lost?5aut@ 0054ffb4     Game.obj
 0002:00007fe8       ??_C@_0BO@DGIKOEP@?5Server?5shutdown?5has?5started?$CB?$AA@ 0054ffe8     Game.obj
 0002:0000800c       ??_C@_0BD@BIAJKAAG@Magic?5Item?5Manager?$AA@ 0055000c     Game.obj
 0002:00008024       ??_C@_0P@PJFEDPAC@Recharge?5Rares?$AA@ 00550024     Game.obj
 0002:00008038       ??_C@_0M@CGBCEFIE@Add?5Charges?$AA@ 00550038     Game.obj
 0002:00008048       ??_C@_0N@NGFBCJFB@for?5?$CFd?5gold?$DP?$AA@ 00550048     Game.obj
 0002:00008058       ??_C@_0CH@PDACGGDD@Would?5you?5like?5me?5to?5repair?5your@ 00550058     Game.obj
 0002:00008088       ??_C@_0N@PDLEIKHC@Contribution?$AA@ 00550088     Game.obj
 0002:00008098       ??_C@_0BI@NCDGLMBC@www?4helbreathlegion?4net?$AA@ 00550098     Game.obj
 0002:000080b4       ??_C@_0BA@INLAGJFO@also?5listed?5on?5?$AA@ 005500b4     Game.obj
 0002:000080c8       ??_C@_0CN@LHBLCMAH@at?5the?5Help?5window?5?$CIF1?$CJ?4?5These?5f@ 005500c8     Game.obj
 0002:00008100       ??_C@_0CL@HJCOPCLC@?$JDContribution?$JE?5and?5?$JDSlayer?5syste@ 00550100     Game.obj
 0002:00008134       ??_C@_0CJ@KFGCCMPL@explanation?5of?5these?5changes?0?5re@ 00550134     Game.obj
 0002:00008168       ??_C@_0CG@MCNKJPEL@contribution?5systems?$CB?5For?5a?5deta@ 00550168     Game.obj
 0002:00008198       ??_C@_0CI@MKFNBECC@Be?5sure?5to?5check?5out?5the?5new?5sla@ 00550198     Game.obj
 0002:000081c8       ??_C@_0N@EJIBEJCK@____________?$AA@ 005501c8     Game.obj
 0002:000081d8       ??_C@_0M@IGECHCHI@Buy?5Outfits?$AA@ 005501d8     Game.obj
 0002:000081e8       ??_C@_09FPFEAKAA@Buy?5Misc?4?$AA@ 005501e8     Game.obj
 0002:000081f4       ??_C@_0M@FGPNHMNE@Buy?5Potions?$AA@ 005501f4     Game.obj
 0002:00008204       ??_C@_0BB@OOLCMGND@________________?$AA@ 00550204     Game.obj
 0002:00008218       ??_C@_0BC@MKDHNHCL@Blacksmith?5Keeper?$AA@ 00550218     Game.obj
 0002:00008230       ??_C@_0L@FNKOCFHN@Repair?5All?$AA@ 00550230     Game.obj
 0002:00008240       ??_C@_0L@NMKEKMAG@Sell?5Items?$AA@ 00550240     Game.obj
 0002:00008250       ??_C@_0O@KFNCLDOK@Buy?5?$CIW?$CJ?5Armor?$AA@ 00550250     Game.obj
 0002:00008260       ??_C@_0O@JMDMHLAF@Buy?5?$CIM?$CJ?5Armor?$AA@ 00550260     Game.obj
 0002:00008270       ??_C@_0BB@JHOPINIB@Buy?5Weapons?1Misc?$AA@ 00550270     Game.obj
 0002:00008284       ??_C@_0BI@LIHBCKC@Heldenian?5staff?5officer?$AA@ 00550284     Game.obj
 0002:000082a0       ??_C@_08FBLBJKHJ@Mcgaffin?$AA@ 005502a0     Game.obj
 0002:000082ac       ??_C@_07ILBLCBLB@Deposit?$AA@ 005502ac     Game.obj
 0002:000082b8       ??_C@_06KOKHNNIE@Repair?$AA@ 005502b8     Game.obj
 0002:000082c0       ??_C@_04MCBDKMCH@Sell?$AA@ 005502c0     Game.obj
 0002:000082c8       ??_C@_08IGAGGAPJ@Exchange?$AA@ 005502c8     Game.obj
 0002:000082d4       ??_C@_04NNNGLPDC@Give?$AA@ 005502d4     Game.obj
 0002:000082dc       ??_C@_08LCDAKNCA@?$CFd?5?$CFs?5to?$AA@ 005502dc     Game.obj
 0002:000082e8       ??_C@_04LABAHBKH@Talk?$AA@ 005502e8     Game.obj
 0002:000082f0       ??_C@_05IOPOMLGK@Trade?$AA@ 005502f0     Game.obj
 0002:000082f8       ??_C@_05EIOEAGAH@Learn?$AA@ 005502f8     Game.obj
 0002:00008300       ??_C@_08LIAOPCMN@Withdraw?$AA@ 00550300     Game.obj
 0002:0000830c       ??_C@_05OLBJNOGI@Offer?$AA@ 0055030c     Game.obj
 0002:00008314       ??_C@_0BJ@FEPLPHHJ@Repair?5Rare?5Item?5Charges?$AA@ 00550314     Game.obj
 0002:00008334       ??_C@_0BI@DPJFAICM@Heldenian?5Staff?5Officer?$AA@ 00550334     Game.obj
 0002:00008350       ??_C@_0BE@JMGNEJKF@__________?5?$CI0?5?$HO?5?$CFd?$CJ?$AA@ 00550350     Game.obj
 0002:00008368       ??_C@_0BF@FINOIAK@Decide?5the?5quantity?4?$AA@ 00550368     Game.obj
 0002:00008384       ??_C@_0BA@CKACOPAM@?$CFs?3?5give?5to?5?$CFs?4?$AA@ 00550384     Game.obj
 0002:00008398       ??_C@_0O@JJOCCCOC@?5Dropping?5?$CFs?4?$AA@ 00550398     Game.obj
 0002:000083a8       ??_C@_0BJ@KIKDKMM@?5You?5are?5not?5on?5a?5quest?4?$AA@ 005503a8     Game.obj
 0002:000083c8       ??_C@_0BG@CGCICJJB@Objective?3?5slay?5?$CFd?5?$CFs?$AA@ 005503c8     Game.obj
 0002:000083e4       ??_C@_0BC@LLKPFALN@Rest?5Monster?5?3?5?$CFd?$AA@ 005503e4     Game.obj
 0002:000083fc       ??_C@_0CP@JIDHHOMN@You?5accomplished?5the?5monster?5con@ 005503fc     Game.obj
 0002:00008434       ??_C@_0CH@FMADMLIC@You?5are?5on?5a?5monster?5conquering?5@ 00550434     Game.obj
 0002:00008464       ??_C@_0BB@PNDNBLOK@Contribution?3?5?$CFd?$AA@ 00550464     Game.obj
 0002:00008478       ??_C@_0CB@IFNGMCLC@Position?3?5?$CFd?0?5?$CFd?5Range?3?5?$CFd?5block@ 00550478     Game.obj
 0002:000084a0       ??_C@_08LAJJNLBO@Map?5?3?5?$CFs?$AA@ 005504a0     Game.obj
 0002:000084ac       ??_C@_0BE@MCANOCLM@Location?5?3?5Anywhere?$AA@ 005504ac     Game.obj
 0002:000084c4       ??_C@_0BN@FJJIIBPC@Objective?3?5Observe?5the?5enemy?$AA@ 005504c4     Game.obj
 0002:000084e8       ??_C@_0L@ECMPJFGL@Client?3?5?$CFs?$AA@ 005504e8     Game.obj
 0002:000084f8       ??_C@_0CE@BONNBOBH@You?5accomplished?5observation?5que@ 005504f8     Game.obj
 0002:00008524       ??_C@_0CA@IEIDIMLF@You?5are?5on?5an?5observation?5quest?$AA@ 00550524     Game.obj
 0002:0000854c       ??_C@_0BP@FLCHCHFO@Your?5quest?5has?5been?5cancelled?4?$AA@ 0055054c     Game.obj
 0002:00008574       ??_C@_0CB@LIKBAOHI@?$CK?5Drop?5the?5items?5to?5sell?5here?$CB?5?$CK@ 00550574     Game.obj
 0002:0000859c       ??_C@_0BM@BKJCEKOD@click?5the?5name?5of?5the?5item?4?$AA@ 0055059c     Game.obj
 0002:000085c0       ??_C@_0BL@NMCIFDOF@ected?5item?5from?5the?5list?0?5?$AA@ 005505c0     Game.obj
 0002:000085e0       ??_C@_0BL@DNANMFAL@If?5you?5want?5to?5remove?5sel?9?$AA@ 005505e0     Game.obj
 0002:00008600       ??_C@_0CB@FFFMOFCO@You?5cannot?5sell?5exhausted?5items?4@ 00550600     Game.obj
 0002:00008628       ??_C@_0BP@NNMKDHCM@up?5to?550?5items?5simultaneously?4?$AA@ 00550628     Game.obj
 0002:00008650       ??_C@_0CB@CFGGBDBA@sell?5from?5your?5bag?4?5You?5can?5sell@ 00550650     Game.obj
 0002:00008678       ??_C@_0BP@NEEAFOCC@Drag?5the?5item?5that?5you?5want?5to?$AA@ 00550678     Game.obj
 0002:000086a0       ??_C@_06PCMPEPAO@?$CI?$CFs?$CFs?$CJ?$AA@ 005506a0     Game.obj
 0002:000086a8       ??_C@_08HIHLJBMJ@?$CI?$CFs?0?5?$CFs?$CJ?$AA@ 005506a8     Game.obj
 0002:000086b4       ??_C@_08GDBDNFEB@?$CFs?$CI?$CFs?$CFs?$CJ?$AA@ 005506b4     Game.obj
 0002:000086c0       ??_C@_0L@BPEACJIF@?$CFs?$CI?$CFs?0?5?$CFs?$CJ?$AA@ 005506c0     Game.obj
 0002:000086d0       ??_C@_0BG@GFDELCOD@until?5this?5finishes?4?5?$AA@ 005506d0     Game.obj
 0002:000086ec       ??_C@_0BI@DMKOFDLB@You?5cannot?5give?5or?5sell?$AA@ 005506ec     Game.obj
 0002:00008708       ??_C@_0BP@FJLOPGIO@?5Processing?5the?5item?5repair?4?4?4?$AA@ 00550708     Game.obj
 0002:00008730       ??_C@_0BM@OHIMODCP@?5Processing?5the?5item?5sale?4?4?$AA@ 00550730     Game.obj
 0002:00008754       ??_C@_0BH@FMJOCEPM@Do?5you?5want?5to?5repair?$DP?$AA@ 00550754     Game.obj
 0002:00008770       ??_C@_07JKNENOIP@?$CFd?5Gold?$AA@ 00550770     Game.obj
 0002:0000877c       ??_C@_05NDEINHIF@Cost?3?$AA@ 0055077c     Game.obj
 0002:00008784       ??_C@_0BF@MHLGHEND@Do?5you?5want?5to?5sell?$DP?$AA@ 00550784     Game.obj
 0002:000087a0       ??_C@_0O@FBHMPPGH@Endurance?3?5?$CFd?$AA@ 005507a0     Game.obj
 0002:000087b0       ??_C@_05JNOMDMDH@?$CF3d?$CF?$CF?$AA@ 005507b0     Game.obj
 0002:000087b8       ??_C@_0BG@HGPFDGID@Helbreath?5Legion?5Beta?$AA@ 005507b8     Game.obj
 0002:000087d4       ??_C@_03LOLNDGA@WS2?$AA@   005507d4     Game.obj
 0002:000087d8       ??_C@_0BB@LABBHEBJ@Helbreath?5Legion?$AA@ 005507d8     Game.obj
 0002:000087ec       ??_C@_03CAMGIAKD@WS1?$AA@  005507ec     Game.obj
 0002:000087f0       ??_C@_0P@CPPBEIEB@?$CFd?3?$CFd?3?$CFd?3?$CFd?3?$CFd?$AA@ 005507f0     Game.obj
 0002:00008804       ??_C@_0O@FOMCMIJM@Extended?5menu?$AA@ 00550804     Game.obj
 0002:00008814       ??_C@_09PMNGDHEA@Guide?5Map?$AA@ 00550814     Game.obj
 0002:00008820       ??_C@_0BI@PEPBHACO@Dialog?5Box?5Transparency?$AA@ 00550820     Game.obj
 0002:0000883c       ??_C@_0N@IBGIBGEC@Music?5Volume?$AA@ 0055083c     Game.obj
 0002:0000884c       ??_C@_0N@EHKOAFEG@Sound?5Volume?$AA@ 0055084c     Game.obj
 0002:0000885c       ??_C@_05BHEJOJJF@Shout?$AA@ 0055085c     Game.obj
 0002:00008864       ??_C@_07NEMEKOGF@Whisper?$AA@ 00550864     Game.obj
 0002:00008870       ??_C@_05LMJFOPOI@Music?$AA@ 00550870     Game.obj
 0002:00008878       ??_C@_08BEHKFNNO@disabled?$AA@ 00550878     Game.obj
 0002:00008884       ??_C@_03GCDBBDDL@Off?$AA@  00550884     Game.obj
 0002:00008888       ??_C@_02IAAGKKDJ@On?$AA@   00550888     Game.obj
 0002:0000888c       ??_C@_05MAHMNMLO@Sound?$AA@ 0055088c     Game.obj
 0002:00008894       ??_C@_04PHMMJPOJ@High?$AA@ 00550894     Game.obj
 0002:0000889c       ??_C@_06EFAGIKOH@Normal?$AA@ 0055089c     Game.obj
 0002:000088a4       ??_C@_03CMIMKEEK@Low?$AA@  005508a4     Game.obj
 0002:000088a8       ??_C@_0N@BFOBEMPK@Detail?5Level?$AA@ 005508a8     Game.obj
 0002:000088b8       ??_C@_0CI@EGJJLBDI@There?5is?5no?5more?5space?5for?5ingre@ 005508b8     Game.obj
 0002:000088e8       ??_C@_0BO@ICMPGNMF@Crafting?5the?5item?5in?5progress?$AA@ 005508e8     Game.obj
 0002:00008910       ??_C@_0EG@FHJJJMFG@There?5is?5not?5enough?5crafting?5mat@ 00550910     Game.obj
 0002:00008964       ??_C@_0BD@DPEJHGN@Mixing?5a?5potion?4?4?4?$AA@ 00550964     Game.obj
 0002:0000897c       ??_C@_0BL@LBBBIKJC@?4?4?4?4?4?4?4?4?4?4?4?4?4?4?4?4?4?4?4?4?4?4?4?4?4?4?$AA@ 0055097c     Game.obj
 0002:0000899c       ??_C@_0CA@MPGDFGGB@You?5need?5more?5gold?5to?5teleport?4?$AA@ 0055099c     Game.obj
 0002:000089c4       ??_C@_0CH@GPHIJPPM@You?5may?5not?5teleport?5to?5the?5same@ 005509c4     Game.obj
 0002:000089f4       ??_C@_0CB@GEAIOBFC@Criminals?5cannot?5go?5to?5the?5area?4@ 005509f4     Game.obj
 0002:00008a1c       ??_C@_0CC@DCJMLGGB@Travellers?5cannot?5go?5to?5the?5area@ 00550a1c     Game.obj
 0002:00008a44       ??_C@_0CB@DGAFGNBG@Civilians?5cannot?5go?5to?5the?5area?4@ 00550a44     Game.obj
 0002:00008a6c       ??_C@_0CJ@DJOLCELJ@Your?5level?5is?5too?5low?5to?5go?5to?5t@ 00550a6c     Game.obj
 0002:00008aa0       ??_C@_0DI@CADJLJFJ@?$CFd?5?$CFs?3?5dropped?5to?5the?5ground?4?5Un@ 00550aa0     Game.obj
 0002:00008ae4       ??_C@_0DF@EPOFCFLM@?$CFs?3?5dropped?5to?5the?5ground?4?5Unabl@ 00550ae4     Game.obj
 0002:00008b24       ??_C@_0CE@GJDBHFJA@You?5threw?5?$CFd?5?$CFs?5away?5on?5the?5grou@ 00550b24     Game.obj
 0002:00008b50       ??_C@_0CA@LLPCKAJM@You?5gave?5?$CFu?5gold?5to?5your?5guild?4?$AA@ 00550b50     Game.obj
 0002:00008b78       ??_C@_0CP@IJCALICH@You?5gave?5?$CFu?5contribution?5points?5@ 00550b78     Game.obj
 0002:00008bb0       ??_C@_0P@NFHDCKDJ@Guild?5is?5full?4?$AA@ 00550bb0     Game.obj
 0002:00008bc4       ??_C@_0BK@LJEIJAGA@?$CFs?5cannot?5join?5our?5guild?4?$AA@ 00550bc4     Game.obj
 0002:00008be4       ??_C@_0CB@GHKEGPJK@?$CFs?5has?5withdrawn?5from?5our?5guild?4@ 00550be4     Game.obj
 0002:00008c0c       ??_C@_0DB@PBFILBAC@You?5can?5evaluate?5other?5players?5a@ 00550c0c     Game.obj
 0002:00008c48       ??_C@_0DK@JLHPNFAF@You?5must?5be?5a?5friendly?5citizen?5t@ 00550c48     Game.obj
 0002:00008c90       ??_C@_0CN@PFFJFHEH@Item?5?$CFs?3?5You?5don?8t?5have?5to?5repai@ 00550c90     Game.obj
 0002:00008cc8       ??_C@_0CK@PAMCFPFK@Item?5?$CFs?3?5You?5can?8t?5repair?5this?5i@ 00550cc8     Game.obj
 0002:00008cfc       ??_C@_0CO@DNNHFNBJ@Try?5again?5after?5removing?5weight?5@ 00550cfc     Game.obj
 0002:00008d34       ??_C@_0DH@DBICDKC@You?5can?8t?5sell?5anymore?5items?5bec@ 00550d34     Game.obj
 0002:00008d78       ??_C@_0DA@FGPLLIE@You?5should?5get?5a?5citizenship?5to?5@ 00550d78     Game.obj
 0002:00008db4       ??_C@_0CD@CDGNMNGN@Item?5?$CFs?3?5You?5can?8t?5sell?5this?5ite@ 00550db4     Game.obj
 0002:00008de0       ??_C@_0CL@LMPFGLGI@Item?5?$CFs?3?5You?5can?8t?5sell?5an?5exhau@ 00550de0     Game.obj
 0002:00008e14       ??_C@_0CI@HKEEMMJC@Item?5?$CFs?3?5You?5can?8t?5sell?5this?5ite@ 00550e14     Game.obj
 0002:00008e44       ??_C@_0CE@BFLLDMEP@CHR?5has?5been?5decreased?5by?5?$CFdpoin@ 00550e44     Game.obj
 0002:00008e70       ??_C@_0CE@OBGLPGO@CHR?5has?5been?5increased?5by?5?$CFdpoin@ 00550e70     Game.obj
 0002:00008e9c       ??_C@_0DB@FEPNNMBL@Enemy?9Kill?9Count?5has?5been?5increa@ 00550e9c     Game.obj
 0002:00008ed8       ??_C@_0DB@EPFAFPDK@Enemy?9Kill?9Count?5has?5been?5decrea@ 00550ed8     Game.obj
 0002:00008f14       ??_C@_0BO@JMCDKPED@You?5killed?5?$CFs?5?$CFs?5of?5?$CFs?5guild?$CB?$AA@ 00550f14     Game.obj
 0002:00008f38       ??_C@_0BJ@MKPPNCMB@You?5killed?5the?5enemy?5?$CFs?$CB?$AA@ 00550f38     Game.obj
 0002:00008f58       ??_C@_07BDNLLECC@?$CFs?5?$CL?$CFd?$CB?$AA@ 00550f58     Game.obj
 0002:00008f64       ??_C@_0BJ@ODKGIEIC@All?5out?5war?5contribution?$AA@ 00550f64     Game.obj
 0002:00008f88       ??_C@_0EM@JKMEIHC@You?5are?5forced?5to?5logout?5from?5ou@ 00550f88     Game.obj
 0002:00008fe4       ??_C@_0BG@MFNFOLFH@You?5gave?5?$CFd?5?$CFs?5to?5?$CFs?4?$AA@ 00550fe4     Game.obj
 0002:00009000       ??_C@_0BF@OOOIHEEF@You?5gave?5a?5?$CFs?5to?5?$CFs?4?$AA@ 00551000     Game.obj
 0002:0000901c       ??_C@_0CK@COCNPCHM@All?5the?5attack?5is?5invalidate?5in?5@ 0055101c     Game.obj
 0002:00009050       ??_C@_0CK@IEMDPGKE@Attack?5prohibition?5mode?5has?5been@ 00551050     Game.obj
 0002:00009084       ??_C@_0CL@NJPGMHEF@Attack?5prohibition?5mode?5has?5been@ 00551084     Game.obj
 0002:000090b8       ??_C@_0CC@KLHBPKBO@Warning?$CB?5HP?5is?5very?5low?4?5Danger?$CB@ 005510b8     Game.obj
 0002:000090e0       ??_C@_0DL@ODCEOGMG@Logout?5count?5cancels?5if?5HP?5decre@ 005510e0     Game.obj
 0002:00009128       ??_C@_0BN@GEKEMGIE@You?5are?5starving?5to?5death?$CB?$CB?$CB?$AA@ 00551128     Game.obj
 0002:0000914c       ??_C@_0BE@JNOCIMHN@You?5are?5starving?4?4?4?$AA@ 0055114c     Game.obj
 0002:00009164       ??_C@_0BH@CCLIEIOO@You?5are?5very?5hungry?4?4?4?$AA@ 00551164     Game.obj
 0002:00009180       ??_C@_0BC@KJCGJFHB@You?5are?5hungry?4?4?4?$AA@ 00551180     Game.obj
 0002:00009198       ??_C@_0BK@INCIHBKK@You?5are?5feeling?5hungry?4?4?4?$AA@ 00551198     Game.obj
 0002:000091b8       ??_C@_0BK@LFOBJBAL@Item?5?$CFs?3?5can?5not?5be?5dyed?4?$AA@ 005511b8     Game.obj
 0002:000091d8       ??_C@_0N@BHJMFBMM@You?5dyed?5?$CFs?4?$AA@ 005511d8     Game.obj
 0002:000091e8       ??_C@_0BK@PPOBJFHF@You?5added?5a?5socket?5to?5?$CFs?4?$AA@ 005511e8     Game.obj
 0002:00009208       ??_C@_0BD@PMJDNOPH@Item?5?$CFs?3?5repaired?4?$AA@ 00551208     Game.obj
 0002:00009220       ??_C@_0BN@HCNKJPE@Item?5?$CFs?3?5partially?5repaired?4?$AA@ 00551220     Game.obj
 0002:00009244       ??_C@_0CA@EKADNBL@Item?5?$CFd?5?$CFs?3?5put?5in?5safekeeping?4?$AA@ 00551244     Game.obj
 0002:0000926c       ??_C@_0BN@HJDEPABI@Item?5?$CFs?3?5put?5in?5safekeeping?4?$AA@ 0055126c     Game.obj
 0002:00009290       ??_C@_09HMOICCB@Level?5up?$CB?$AA@ 00551290     Game.obj
 0002:0000929c       ??_C@_0BG@OHHNDIE@Level?5up?$CB?$CB?$CB?5Level?5?$CFd?$CB?$AA@ 0055129c     Game.obj
 0002:000092b8       ??_C@_0BM@GFIALCKC@Your?5stat?5has?5been?5changed?4?$AA@ 005512b8     Game.obj
 0002:000092dc       ??_C@_0BI@EOGAOAMO@Freeze?5effect?5released?4?$AA@ 005512dc     Game.obj
 0002:000092f8       ??_C@_0CG@HMEPNKMI@Transformation?5magic?5effect?5rele@ 005512f8     Game.obj
 0002:00009328       ??_C@_0BH@JLPEKOAG@Berserk?5mode?5released?4?$AA@ 00551328     Game.obj
 0002:00009344       ??_C@_0BB@JNHHGNH@Poisoning?5cured?$CB?$AA@ 00551344     Game.obj
 0002:00009358       ??_C@_0CB@JPEDBAJI@At?5last?0?5you?5gather?5your?5senses?4@ 00551358     Game.obj
 0002:00009380       ??_C@_0BN@BLMGGCFP@Illusion?5magic?5has?5vanished?4?$AA@ 00551380     Game.obj
 0002:000093a4       ??_C@_0BO@BHIGJMHN@Confusion?5magic?5has?5vanished?4?$AA@ 005513a4     Game.obj
 0002:000093c8       ??_C@_0CM@ONOEMNJI@Language?5confuse?5magic?5effect?5ha@ 005513c8     Game.obj
 0002:000093fc       ??_C@_0CI@EOBNKJIG@Invisibility?5magic?5effect?5has?5va@ 005513fc     Game.obj
 0002:0000942c       ??_C@_0CH@CBKOOJKD@Hold?5person?5magic?5effect?5has?5van@ 0055142c     Game.obj
 0002:0000945c       ??_C@_0CF@EKFAJNKH@Paralysis?5magic?5effect?5has?5vanis@ 0055145c     Game.obj
 0002:00009488       ??_C@_0CN@DJPDBLKB@Absolute?5Magic?5Protection?5has?5be@ 00551488     Game.obj
 0002:000094c0       ??_C@_0CE@HBNNAGNK@Defense?5shield?5effect?5has?5vanish@ 005514c0     Game.obj
 0002:000094ec       ??_C@_0CE@HCGCOPAO@Protection?5from?5magic?5has?5vanish@ 005514ec     Game.obj
 0002:00009518       ??_C@_0CF@BBNEGHAE@Protection?5from?5arrows?5has?5vanis@ 00551518     Game.obj
 0002:00009544       ??_C@_0CF@JIFNBEJC@You?5regained?5you?5knowledge?5of?5ma@ 00551544     Game.obj
 0002:00009570       ??_C@_0DG@DDABMEJM@You?5have?5been?5frozen?$CB?5Your?5movem@ 00551570     Game.obj
 0002:000095b0       ??_C@_0DG@LGPPOILO@You?5have?5been?5frozen?$CB?5Your?5movem@ 005515b0     Game.obj
 0002:000095f0       ??_C@_0CE@HNENEHOG@You?5were?5resurrected?5from?5the?5de@ 005515f0     Game.obj
 0002:00009620       ??_C@_0EE@BHHGDGGI@Transformation?5magic?5effect?0?5you@ 00551620     Game.obj
 0002:00009674       ??_C@_0BG@PFGKHAFC@Berserk?5Magic?5Casted?$CB?$AA@ 00551674     Game.obj
 0002:00009690       ??_C@_0BD@DNCHJPGB@You?5were?5poisoned?$CB?$AA@ 00551690     Game.obj
 0002:000096a8       ??_C@_0DP@OPMANPEM@You?5are?5thrown?5into?5confusion?0?5a@ 005516a8     Game.obj
 0002:000096f4       ??_C@_0DG@EKDMJIDB@Illusion?5magic?5casted?0?5impossibl@ 005516f4     Game.obj
 0002:00009738       ??_C@_0ED@FAKKLOCK@Confusion?5magic?5casted?0?5impossib@ 00551738     Game.obj
 0002:00009788       ??_C@_0DM@LCPFPMAK@No?5one?5understands?5you?5because?5o@ 00551788     Game.obj
 0002:000097d0       ??_C@_0CL@ENLAAJCJ@You?5are?5now?5invisible?0?5no?5one?5ca@ 005517d0     Game.obj
 0002:00009804       ??_C@_0DJ@GFOPBFJF@You?5were?5bounded?5by?5a?5Hold?5Perso@ 00551804     Game.obj
 0002:00009848       ??_C@_0DH@GNCKOOBI@You?5were?5bounded?5by?5a?5Paralysis?5@ 00551848     Game.obj
 0002:0000988c       ??_C@_0CJ@GOIKPJL@You?5are?5completely?5protected?5fro@ 0055188c     Game.obj
 0002:000098c0       ??_C@_0CL@IGAPKKFM@Defense?5ratio?5increased?5by?5a?5mag@ 005518c0     Game.obj
 0002:000098f4       ??_C@_0BO@MEECJJEL@You?5are?5protected?5from?5magic?$CB?$AA@ 005518f4     Game.obj
 0002:00009918       ??_C@_0CK@IGMFHIAC@You?5are?5completely?5protected?5fro@ 00551918     Game.obj
 0002:0000994c       ??_C@_0DP@HIECJOK@Cancellation?5magic?5casted?0?5you?5a@ 0055194c     Game.obj
 0002:00009998       ??_C@_0EB@NAGEBHGD@Inhibition?5magic?5casted?0?5you?5for@ 00551998     Game.obj
 0002:000099e8       ??_C@_0CD@DOIKOAGE@INT?5must?5be?5more?5than?5?$CFd?5to?5lear@ 005519e8     Game.obj
 0002:00009a14       ??_C@_0CB@DAMHAICL@Magic?5?$CI?$CFs?$CJ?3?5You?5failed?5learning?$CB@ 00551a14     Game.obj
 0002:00009a40       ??_C@_0EC@BJLJKDKC@Magic?5?$CI?$CFs?$CJ?5?3You?5failed?5learning?5@ 00551a40     Game.obj
 0002:00009a90       ??_C@_0BO@LHDMLPPA@Corrupted?5Magic?$CI?$CFs?$CJ?3?5learned?$CB?$AA@ 00551a90     Game.obj
 0002:00009ab4       ??_C@_0BE@GCKLHKAO@Magic?$CI?$CFs?$CJ?3?5learned?$CB?$AA@ 00551ab4     Game.obj
 0002:00009acc       ??_C@_0CJ@EKMBMOHI@Your?5MP?5has?5been?5decreased?5by?5?$CFd@ 00551acc     Game.obj
 0002:00009b00       ??_C@_0CJ@GLDHDKF@Your?5MP?5has?5been?5increased?5by?5?$CFd@ 00551b00     Game.obj
 0002:00009b34       ??_C@_0BK@DDFCGCBM@?$CFs?5has?5joined?5your?5guild?4?$AA@ 00551b34     Game.obj
 0002:00009b54       ??_C@_0DG@GFIOMNGL@Level?5?$CFd?5win?5in?5a?5battle?5against@ 00551b54     Game.obj
 0002:00009b98       ??_C@_0EO@HGAFADPO@You?5received?5a?5PK?5penalty?5becaus@ 00551b98     Game.obj
 0002:00009bf8       ??_C@_0DJ@NABKKLOI@You?5gave?5?$CFs?5a?5penalty?5that?5he?5ca@ 00551bf8     Game.obj
 0002:00009c3c       ??_C@_0DF@MAKCNDFC@You?5got?5a?5penalty?5that?5you?5can?8t@ 00551c3c     Game.obj
 0002:00009c7c       ??_C@_0CO@NLPDENHO@Player?5?$CFs?5is?5not?5connected?5to?5th@ 00551c7c     Game.obj
 0002:00009cb4       ??_C@_0CJ@JEFGMHP@Player?5?$CFs?5is?5connected?5to?5the?5?$CFs@ 00551cb4     Game.obj
 0002:00009ce8       ??_C@_0CL@ILIDKEGE@Player?5?$CFs?5is?5connected?5to?5the?5ga@ 00551ce8     Game.obj
 0002:00009d1c       ??_C@_0CB@HOEBHNAA@You?5gave?5a?5bad?5evaluation?5to?5?$CFs?$CB@ 00551d1c     Game.obj
 0002:00009d44       ??_C@_0CC@BEBIPHAB@You?5gave?5a?5good?5evaluation?5to?5?$CFs@ 00551d44     Game.obj
 0002:00009d6c       ??_C@_0CL@CEPBHANN@Another?5player?5gave?5you?5a?5good?5e@ 00551d6c     Game.obj
 0002:00009da0       ??_C@_02IACPMDCA@55?$AA@   00551da0     Game.obj
 0002:00009da4       ??_C@_08OMNAABHG@?$CFs?5?9?$CFd?$CF?$CF?$AA@ 00551da4     Game.obj
 0002:00009db0       ??_C@_0BN@LJNGIIB@Skill?5?$CFs?3?5decreased?5by?5?$CFd?$CF?$CF?4?$AA@ 00551db0     Game.obj
 0002:00009dd4       ??_C@_08DKIJOCGL@?$CFs?5?$CL?$CFd?$CF?$CF?$AA@ 00551dd4     Game.obj
 0002:00009de0       ??_C@_0BN@MBGBILNA@Skill?5?$CFs?3?5increased?5by?5?$CFd?$CF?$CF?4?$AA@ 00551de0     Game.obj
 0002:00009e08       ??_C@_0EG@HJPIDKLH@Skill?$CI?$CFs?$CJ?3?5You?5have?5learned?5a?5ne@ 00551e08     Game.obj
 0002:00009e5c       ??_C@_0CA@KABHMCFP@You?5failed?5the?5ability?5attempt?4?$AA@ 00551e5c     Game.obj
 0002:00009e84       ??_C@_0CE@BFLDOBEA@You?5succeeded?5in?5using?5the?5abili@ 00551e84     Game.obj
 0002:00009eb0       ??_C@_0CE@GBEEIECC@SP?5has?5been?5decreased?5by?5?$CFd?5poin@ 00551eb0     Game.obj
 0002:00009edc       ??_C@_0CE@CNDGDJPP@SP?5has?5been?5increased?5by?5?$CFd?5poin@ 00551edc     Game.obj
 0002:00009f08       ??_C@_0BN@CHBLPEDD@Total?5players?5connected?3?5?$CFd?4?$AA@ 00551f08     Game.obj
 0002:00009f2c       ??_C@_0CE@NNIANOGL@The?5relic?5was?5placed?5in?5?$CFs?8s?5alt@ 00551f2c     Game.obj
 0002:00009f58       ??_C@_0BN@CFKFNJGO@The?5relic?5was?5grabbed?5by?5?$CFs?$CB?$AA@ 00551f58     Game.obj
 0002:00009f80       ??_C@_0FF@EDGKNFKB@As?5a?5citizen?5of?5the?5winning?5nati@ 00551f80     Game.obj
 0002:00009fe8       ??_C@_0CJ@IKJKNAAD@until?5the?5next?5Destroy?5the?5Shiel@ 00551fe8     Game.obj
 0002:0000a01c       ??_C@_0DO@NCOHDLCN@until?5the?5next?5Destroy?5the?5Shiel@ 0055201c     Game.obj
 0002:0000a068       ??_C@_0FF@ONKPFGDL@As?5a?5citizen?5of?5the?5winning?5nati@ 00552068     Game.obj
 0002:0000a0d0       ??_C@_0BF@LHBDJDKG@?$CFs?5won?5the?5?$CFs?5event?$CB?$AA@ 005520d0     Game.obj
 0002:0000a0ec       ??_C@_0CL@EDHCDBE@The?5Bleeding?5Island?5Guild?5Event?5@ 005520ec     Game.obj
 0002:0000a120       ??_C@_0EK@BCFFPENB@The?5Bleeding?5Island?5Guild?5Event?5@ 00552120     Game.obj
 0002:0000a178       ??_C@_0DB@PHMNLEOD@?5Go?5to?5your?5nation?8s?5command?8s?5h@ 00552178     Game.obj
 0002:0000a1b4       ??_C@_0CB@ENPIPCH@A?5?$CFs?5event?5has?5begun?5in?5Astoria?$CB@ 005521b4     Game.obj
 0002:0000a1dc       ??_C@_0BK@NPNIDAEM@Whispering?5mode?5disabled?4?$AA@ 005521dc     Game.obj
 0002:0000a1fc       ??_C@_0BN@NHEDOMGD@Whispering?5mode?5set?5with?5?$CFs?4?$AA@ 005521fc     Game.obj
 0002:0000a220       ??_C@_04DDFEFHOJ@Help?$AA@ 00552220     Game.obj
 0002:0000a228       ??_C@_0BM@FIHKOMHJ@for?5a?5detailed?5assignments?4?$AA@ 00552228     Game.obj
 0002:0000a24c       ??_C@_0CF@NCHFBBAD@?5Click?5the?5Help?5button?5at?5the?5bo@ 0055224c     Game.obj
 0002:0000a278       ??_C@_0M@GKLEJKJI@Constructor?$AA@ 00552278     Game.obj
 0002:0000a288       ??_C@_07DKDFFMCF@Soldier?$AA@ 00552288     Game.obj
 0002:0000a294       ??_C@_09EJFGJKCI@Commander?$AA@ 00552294     Game.obj
 0002:0000a2a0       ??_C@_0BO@FIKKBDL@Click?5the?5assignment?5you?5want?$AA@ 005522a0     Game.obj
 0002:0000a2c4       ??_C@_0O@KAPPOOLF@at?5the?5bottom?$AA@ 005522c4     Game.obj
 0002:0000a2d4       ??_C@_0BN@PIBDBHLE@The?5assignments?5is?5indicated?$AA@ 005522d4     Game.obj
 0002:0000a2f8       ??_C@_0CK@DJMIEFFF@Decides?5your?5assignments?5while?5p@ 005522f8     Game.obj
 0002:0000a32c       ??_C@_0CB@OAIHJNLF@go?5to?5look?5the?5cityhall?5officer?4@ 0055232c     Game.obj
 0002:0000a354       ??_C@_0CG@OBLHIAGB@If?5you?5want?5another?5assignment?5p@ 00552354     Game.obj
 0002:0000a384       ??_C@_0M@KCGBFCDP@Click?5here?4?$AA@ 00552384     Game.obj
 0002:0000a394       ??_C@_0BK@FBFIPNEA@For?5a?5detailed?5assignment?$AA@ 00552394     Game.obj
 0002:0000a3b4       ??_C@_0BB@HHOJEOIO@will?5be?5Soldier?4?$AA@ 005523b4     Game.obj
 0002:0000a3c8       ??_C@_0BF@HBLDOGBC@will?5be?5Constructor?4?$AA@ 005523c8     Game.obj
 0002:0000a3e4       ??_C@_0BD@DEEJNDLA@will?5be?5Commander?4?$AA@ 005523e4     Game.obj
 0002:0000a3fc       ??_C@_0CF@OHCCAKFK@While?5the?5portal?5war?5your?5assign@ 005523fc     Game.obj
 0002:0000a428       ??_C@_0BJ@DIDCHAH@You?5are?5using?5a?5skill?4?4?4?$AA@ 00552428     Game.obj
 0002:0000a448       ??_C@_0BB@NIGIMGCO@Beginner?8s?5Guide?$AA@ 00552448     Game.obj
 0002:0000a45c       ??_C@_06DLOJOANL@F?4A?4Q?4?$AA@ 0055245c     Game.obj
 0002:0000a464       ??_C@_08JNEOMACB@Commands?$AA@ 00552464     Game.obj
 0002:0000a470       ??_C@_0BE@IPEOJDLP@What?8s?5the?5Crusade?$DP?$AA@ 00552470     Game.obj
 0002:0000a488       ??_C@_0O@NHLIPMOP@Communication?$AA@ 00552488     Game.obj
 0002:0000a498       ??_C@_05CCNNDGIA@Items?$AA@ 00552498     Game.obj
 0002:0000a4a0       ??_C@_06BGMOODEK@Guilds?$AA@ 005524a0     Game.obj
 0002:0000a4a8       ??_C@_0BN@LMBONMFB@Specific?5Point?0?5Skill?5System?$AA@ 005524a8     Game.obj
 0002:0000a4cc       ??_C@_09JKPGEJCH@Interface?$AA@ 005524cc     Game.obj
 0002:0000a4d8       ??_C@_0BP@PLAFEEJG@Attack?0?5Defence?0?5Enemy?0?5Friend?$AA@ 005524d8     Game.obj
 0002:0000a500       ??_C@_0M@PPFEPPNL@How?5to?5move?$AA@ 00552500     Game.obj
 0002:0000a510       ??_C@_0BD@IAKOMMK@New?5Legion?5Systems?$AA@ 00552510     Game.obj
 0002:0000a528       ??_C@_04IHEKLNBL@News?$AA@ 00552528     Game.obj
 0002:0000a530       ??_C@_0BL@DBMNANNI@Weapon?1Armor?5Gem?5Socketing?$AA@ 00552530     Game.obj
 0002:0000a550       ??_C@_0BI@IKNDDNAH@Hero?5Set?5Upgrade?5System?$AA@ 00552550     Game.obj
 0002:0000a56c       ??_C@_0BM@GIPIHMKE@Bleeding?5Island?5Guild?5Event?$AA@ 0055256c     Game.obj
 0002:0000a590       ??_C@_0BE@POCDMIFJ@Slayer?5Items?5System?$AA@ 00552590     Game.obj
 0002:0000a5a8       ??_C@_0BE@LGEOJNKB@Contribution?5System?$AA@ 005525a8     Game.obj
 0002:0000a5c0       ??_C@_0M@PPJHKPMA@Patch?5Notes?$AA@ 005525c0     Game.obj
 0002:0000a5d0       __real@4059000000000000    005525d0     Game.obj
 0002:0000a5e0       __real@3ff199999999999a    005525e0     Game.obj
 0002:0000a5ec       ??_C@_0BE@ICDBPGIE@SlayerMagicWandMS28?$AA@ 005525ec     Game.obj
 0002:0000a604       ??_C@_0BE@COIELJII@SlayerMagicWandMS24?$AA@ 00552604     Game.obj
 0002:0000a61c       ??_C@_0BB@JONFEEII@ResurWand?$CIMS?420?$CJ?$AA@ 0055261c     Game.obj
 0002:0000a630       ??_C@_0BD@LBBBOPEM@KlonessWand?$CIMS?410?$CJ?$AA@ 00552630     Game.obj
 0002:0000a648       ??_C@_0BD@KDKEEAKC@KlonessWand?$CIMS?420?$CJ?$AA@ 00552648     Game.obj
 0002:0000a660       ??_C@_0BD@ONILIBF@BerserkWand?$CIMS?410?$CJ?$AA@ 00552660     Game.obj
 0002:0000a678       ??_C@_0BD@BMGNBHPL@BerserkWand?$CIMS?420?$CJ?$AA@ 00552678     Game.obj
 0002:0000a690       ??_C@_0BA@GGBPLIFH@NecklaceOfLiche?$AA@ 00552690     Game.obj
 0002:0000a6a4       ??_C@_0BA@BJPDAPGC@BlackMageTemple?$AA@ 005526a4     Game.obj
 0002:0000a6b8       ??_C@_0M@IKNOOOFE@DMMagicWand?$AA@ 005526b8     Game.obj
 0002:0000a6c8       ??_C@_0N@DHFNBJPO@DMMagicStaff?$AA@ 005526c8     Game.obj
 0002:0000a6d8       ??_C@_0BE@IBFNBLLP@MagicNecklace?$CIMS18?$CJ?$AA@ 005526d8     Game.obj
 0002:0000a6f0       ??_C@_0BE@ILMDDGLF@MagicNecklace?$CIMS16?$CJ?$AA@ 005526f0     Game.obj
 0002:0000a708       ??_C@_0BE@IMMKJOGJ@MagicNecklace?$CIMS12?$CJ?$AA@ 00552708     Game.obj
 0002:0000a720       ??_C@_0BE@IPEOEKAH@MagicNecklace?$CIMS10?$CJ?$AA@ 00552720     Game.obj
 0002:0000a738       ??_C@_0BD@DOBAAIPM@WizMagicWand?$CIMS20?$CJ?$AA@ 00552738     Game.obj
 0002:0000a750       ??_C@_0BD@CMKFKHBC@WizMagicWand?$CIMS10?$CJ?$AA@ 00552750     Game.obj
 0002:0000a768       ??_C@_0BA@FFIHBHDI@MagicWand?$CIMS20?$CJ?$AA@ 00552768     Game.obj
 0002:0000a77c       ??_C@_0BA@EHDCLING@MagicWand?$CIMS10?$CJ?$AA@ 0055277c     Game.obj
 0002:0000a790       ??_C@_0BL@DLPEBDDL@?$CK?5Contribution?5Points?5Left?$AA@ 00552790     Game.obj
 0002:0000a7b0       ??_C@_0BN@OFMDPILO@for?5each?5Contribution?5Point?4?$AA@ 005527b0     Game.obj
 0002:0000a7d4       ??_C@_0BN@DAIANEIN@You?5can?5change?53?5stat?5points?$AA@ 005527d4     Game.obj
 0002:0000a7f8       ??_C@_0BG@PCCMOEC@Will?5you?5revive?5here?$DP?$AA@ 005527f8     Game.obj
 0002:0000a814       ??_C@_0CC@MGIJCOPN@Someone?5intends?5to?5resurrect?5you@ 00552814     Game.obj
 0002:0000a83c       ??_C@_0CJ@GHDFPPAC@Tutelary?5Angel?5?$CIMAG?$CJ?5will?5be?5han@ 0055283c     Game.obj
 0002:0000a870       ??_C@_0CJ@IAKABEB@Tutelary?5Angel?5?$CIINT?$CJ?5will?5be?5han@ 00552870     Game.obj
 0002:0000a8a4       ??_C@_0CJ@PAMBDPCA@Tutelary?5Angel?5?$CIDEX?$CJ?5will?5be?5han@ 005528a4     Game.obj
 0002:0000a8d8       ??_C@_0CJ@HFOHGODD@Tutelary?5Angel?5?$CISTR?$CJ?5will?5be?5han@ 005528d8     Game.obj
 0002:0000a90c       ??_C@_0BI@JGADCBIB@Item?5upgrade?5point?5?3?5?$CFd?$AA@ 0055290c     Game.obj
 0002:0000a928       ??_C@_0CO@IBHFAADO@Would?5you?5like?5to?5receive?5the?5Tu@ 00552928     Game.obj
 0002:0000a960       ??_C@_0CO@EDEOKFFA@upon?5receiving?5the?5Pendant?5of?5Tu@ 00552960     Game.obj
 0002:0000a998       ??_C@_0CH@NMGGNLD@5?5contribution?5points?5will?5be?5de@ 00552998     Game.obj
 0002:0000a9c8       ??_C@_0M@DAPLDGD@Take?5a?5Flag?$AA@ 005529c8     Game.obj
 0002:0000a9d8       ??_C@_0BJ@JIKHPDAI@Price?5is?510?5EK?5per?5Flag?4?$AA@ 005529d8     Game.obj
 0002:0000a9f8       ??_C@_0CG@EOABOEIP@You?5may?5acquire?5Flags?5with?5EK?5po@ 005529f8     Game.obj
 0002:0000aa28       ??_C@_0BD@DOIIJNJO@Maximum?5scrolls?55?4?$AA@ 00552a28     Game.obj
 0002:0000aa40       ??_C@_0BN@EHAPBNGM@12000?5Maximum?5summon?5points?4?$AA@ 00552a40     Game.obj
 0002:0000aa64       ??_C@_0BD@JOBAFNIJ@Summon?5points?5?3?5?$CFd?$AA@ 00552a64     Game.obj
 0002:0000aa7c       ??_C@_0CK@LDPKAMB@You?5should?5join?5a?5guild?5to?5hire?5@ 00552a7c     Game.obj
 0002:0000aab0       ??_C@_0CD@PKOJIELD@Barbarian?5?5?5?5?5?5?5?5?5?5?5?5?5?5?53000?5Poi@ 00552ab0     Game.obj
 0002:0000aadc       ??_C@_0CD@MFJAHGOB@Heavy?5Battle?5Tank?5?5?5?5?5?5?54000?5Poi@ 00552adc     Game.obj
 0002:0000ab08       ??_C@_0BP@BIICDHL@Dark?5Shadow?5Knight?7?73000?5Point?$AA@ 00552b08     Game.obj
 0002:0000ab30       ??_C@_0BJ@LLGJAHGM@Elf?5Master?7?7?7?71500?5Point?$AA@ 00552b30     Game.obj
 0002:0000ab50       ??_C@_0CB@NEMEGBFA@Ancient?5Temple?5Knight?73000?5Point@ 00552b50     Game.obj
 0002:0000ab78       ??_C@_0BI@NNMILLIE@Sorceress?7?7?7?72000?5Point?$AA@ 00552b78     Game.obj
 0002:0000ab94       ??_C@_0CJ@MLMOCGGC@You?5will?5hire?5a?5soldier?5by?5summo@ 00552b94     Game.obj
 0002:0000abc8       ??_C@_0CK@DNIIALIC@There?5are?5no?5available?5areas?5to?5@ 00552bc8     Game.obj
 0002:0000abfc       ??_C@_0BK@DMFAEMMD@Please?5wait?5for?5a?5moment?4?$AA@ 00552bfc     Game.obj
 0002:0000ac1c       ??_C@_0CK@NALKPHMO@Searching?5for?5possible?5areas?5to?5@ 00552c1c     Game.obj
 0002:0000ac50       ??_C@_0BB@FNFOGNAL@Map?3?5?$CFs?5Cost?3?5?$CFd?$AA@ 00552c50     Game.obj
 0002:0000ac64       ??_C@_0BJ@PBCBACHP@Receive?5a?5Tutelary?5Angel?$AA@ 00552c64     Game.obj
 0002:0000ac84       ??_C@_0N@BKKJCEPI@Taking?5Flags?$AA@ 00552c84     Game.obj
 0002:0000ac94       ??_C@_0P@GFKJFID@Hire?5a?5soldier?$AA@ 00552c94     Game.obj
 0002:0000aca8       ??_C@_0BK@GGIMJJDB@Teleport?5to?5a?5battlefield?$AA@ 00552ca8     Game.obj
 0002:0000acc8       ??_C@_01EEMJAFIK@?6?$AA@   00552cc8     Game.obj
 0002:0000accc       ??_C@_0BN@GFPBDJO@?$CI?$CF4d?3?$CF2d?3?$CF2d_?$CF2d?3?$CF2d?3?$CF2d?$CJ?5?9?5?$AA@ 00552ccc     Game.obj
 0002:0000acf0       ??_C@_09CPKCLAKE@Debug?4txt?$AA@ 00552cf0     Game.obj
 0002:0000acfc       ??_C@_02CPIDLAI@at?$AA@    00552cfc     Game.obj
 0002:0000ad00       ??_C@_09FLAKAGOM@?$CFs?3?5?$CFd?1?$CFd?$AA@ 00552d00     Game.obj
 0002:0000ad0c       ??_C@_0BA@DGMEDNK@?$CFd?0?$CFd?5Range?3?5?$CFd?$AA@ 00552d0c     Game.obj
 0002:0000ad20       ??_C@_0BB@GCKLKPLC@Quest?5Completed?$CB?$AA@ 00552d20     Game.obj
 0002:0000ad34       ??_C@_0N@LLIPNIJL@Quest?5Helper?$AA@ 00552d34     Game.obj
 0002:0000ad44       ??_C@_06JBKGCNBB@Delete?$AA@ 00552d44     Game.obj
 0002:0000ad4c       ??_C@_03LDFMNCOE@Add?$AA@  00552d4c     Game.obj
 0002:0000ad50       ??_C@_0O@HCHADPEO@Player?5name?3?5?$AA@ 00552d50     Game.obj
 0002:0000ad60       ??_C@_0BA@OCAIJDPI@Player?5name?3?5?$CFs?$AA@ 00552d60     Game.obj
 0002:0000ad74       ??_C@_07BMIEDOEC@Offline?$AA@ 00552d74     Game.obj
 0002:0000ad80       ??_C@_06KCABBADG@Online?$AA@ 00552d80     Game.obj
 0002:0000ad88       ??_C@_0M@HMAALMJE@Friend?5list?$AA@ 00552d88     Game.obj
 0002:0000ad98       ??_C@_03OFAPEBGM@?$CFs?6?$AA@ 00552d98     Game.obj
 0002:0000ad9c       ??_C@_0BB@HFMKOGMN@CONTENTS?2friends?$AA@ 00552d9c     Game.obj
 0002:0000adb0       ??_C@_01NOFIACDB@w?$AA@    00552db0     Game.obj
 0002:0000adb4       ??_C@_0BI@KHMNODEF@contents?2friends?2?$CFs?4txt?$AA@ 00552db4     Game.obj
 0002:0000add0       ??_C@_0BB@GLHJPFAG@contents?2friends?$AA@ 00552dd0     Game.obj
 0002:0000ade4       ??_C@_03GICAEIGO@?$CF6d?$AA@ 00552de4     Game.obj
 0002:0000ade8       ??_C@_04BLNHNEEM@ITEM?$AA@ 00552de8     Game.obj
 0002:0000adf0       ??_C@_01GBGANLPD@0?$AA@    00552df0     Game.obj
 0002:0000adf4       ??_C@_08LEBMLOKA@10Arrows?$AA@ 00552df4     Game.obj
 0002:0000ae00       ??_C@_09CBNFDPDN@100Arrows?$AA@ 00552e00     Game.obj
 0002:0000ae0c       ??_C@_09KJBKILHO@Quantity?3?$AA@ 00552e0c     Game.obj
 0002:0000ae18       ??_C@_0DA@NBAEKJEP@?$CIWarning?$CB?$CJ?5Your?5level?5is?5too?5low@ 00552e18     Game.obj
 0002:0000ae54       ??_C@_0L@KGEEMDAB@?3?5above?5?$CFd?$AA@ 00552e54     Game.obj
 0002:0000ae64       ??_C@_05KOHFLOFG@Level?$AA@ 00552e64     Game.obj
 0002:0000ae6c       ??_C@_0BM@LJGKKFPK@?$CIWarning?$CB?$CJ?5only?5for?5female?4?$AA@ 00552e6c     Game.obj
 0002:0000ae90       ??_C@_03JGIIAAOM@?$CIW?$CJ?$AA@ 00552e90     Game.obj
 0002:0000ae94       ??_C@_0BK@BIINGPAP@?$CIWarning?$CB?$CJ?5only?5for?5male?4?$AA@ 00552e94     Game.obj
 0002:0000aeb4       ??_C@_03IHDJCGEK@?$CIM?$CJ?$AA@ 00552eb4     Game.obj
 0002:0000aeb8       ??_C@_0CP@HAKDBLOK@?$CIWarning?$CB?$CJ?5Your?5stat?5is?5too?5low?5@ 00552eb8     Game.obj
 0002:0000aef0       ??_C@_0DC@IJAGPEHD@?$CKYour?5STR?5should?5be?5at?5least?5?$CFd?5@ 00552ef0     Game.obj
 0002:0000af2c       ??_C@_0BL@LOGNHAJH@Available?5for?5above?5Chr?5?$CFd?$AA@ 00552f2c     Game.obj
 0002:0000af4c       ??_C@_0BL@GBFNECPA@Available?5for?5above?5Mag?5?$CFd?$AA@ 00552f4c     Game.obj
 0002:0000af6c       ??_C@_0BL@EDAEDJGE@Available?5for?5above?5Int?5?$CFd?$AA@ 00552f6c     Game.obj
 0002:0000af8c       ??_C@_0BL@MPJHOFPL@Available?5for?5above?5Vit?5?$CFd?$AA@ 00552f8c     Game.obj
 0002:0000afac       ??_C@_0BL@INOEEFGG@Available?5for?5above?5Dex?5?$CFd?$AA@ 00552fac     Game.obj
 0002:0000afcc       ??_C@_0BL@KNKHCOLJ@Available?5for?5above?5Str?5?$CFd?$AA@ 00552fcc     Game.obj
 0002:0000afec       ??_C@_06OPPMCNKJ@?3?5?$CL?$CFd?$CF?$AA@ 00552fec     Game.obj
 0002:0000aff4       ??_C@_07OIBJPBBC@Defence?$AA@ 00552ff4     Game.obj
 0002:0000b000       ??_C@_0O@OHCJOJAL@?3?5?$CFd?$CI?$CFd?5?$HO?5?$CFd?$CJ?$AA@ 00553000     Game.obj
 0002:0000b010       ??_C@_0L@HBHEPFDA@?3?50?$CI10?$HO10?$CJ?$AA@ 00553010     Game.obj
 0002:0000b020       ??_C@_0O@JNGPHLJM@?3?5?$CFd?5?$HO?5?$CFd?5?$CIL?$CJ?$AA@ 00553020     Game.obj
 0002:0000b030       ??_C@_0BA@ELPFOGLB@?3?5?$CFd?5?$HO?5?$CFd?5?$CIS?9M?$CJ?$AA@ 00553030     Game.obj
 0002:0000b044       ??_C@_0BB@GCOFNMPP@Speed?$CIMin?4?$HOMax?4?$CJ?$AA@ 00553044     Game.obj
 0002:0000b058       ??_C@_0L@PNFEKMKB@?3?5?$CFd?5Stone?$AA@ 00553058     Game.obj
 0002:0000b068       ??_C@_09OBFMPJMC@?3?5?$CFd?5Gold?$AA@ 00553068     Game.obj
 0002:0000b074       ??_C@_06ODJMJFLN@Weight?$AA@ 00553074     Game.obj
 0002:0000b07c       ??_C@_05BJKOFFGO@PRICE?$AA@ 0055307c     Game.obj
 0002:0000b084       ??_C@_0CC@LGNJMKCO@Trade?5100?5Eks?5to?5200?5Contributio@ 00553084     Game.obj
 0002:0000b0ac       ??_C@_0CB@KLEAIINF@Trade?550?5Eks?5to?5100?5Contribution@ 005530ac     Game.obj
 0002:0000b0d4       ??_C@_0CA@JMFDCGGP@Trade?525?5Eks?5to?550?5Contribution?$AA@ 005530d4     Game.obj
 0002:0000b0fc       ??_C@_0CA@MNMLOJBH@Trade?510?5Eks?5to?520?5Contribution?$AA@ 005530fc     Game.obj
 0002:0000b124       ??_C@_0BP@PBJNEMNE@Trade?5100?5Contribution?5to?5Ball?$AA@ 00553124     Game.obj
 0002:0000b14c       ??_C@_0BO@HMDBBFEA@Trade?550?5Contribution?5to?5Ball?$AA@ 0055314c     Game.obj
 0002:0000b170       ??_C@_0BO@NGAGGJHA@Trade?525?5Contribution?5to?5Ball?$AA@ 00553170     Game.obj
 0002:0000b194       ??_C@_0BO@BFDHILBP@Trade?510?5Contribution?5to?5Ball?$AA@ 00553194     Game.obj
 0002:0000b1b8       ??_C@_0BP@PLNIDEGP@refunded?5back?5to?5you?5by?5staff?4?$AA@ 005531b8     Game.obj
 0002:0000b1e0       ??_C@_0CF@CFKDLINF@circumstance?5shall?5a?5transaction@ 005531e0     Game.obj
 0002:0000b20c       ??_C@_0CG@EKODAAPL@the?5transaction?5is?5complete?4?5Und@ 0055320c     Game.obj
 0002:0000b23c       ??_C@_0CG@DHKCPGJP@Once?5you?5select?5the?5amount?5to?5co@ 0055323c     Game.obj
 0002:0000b26c       ??_C@_08BFLOMGBF@WARNING?3?$AA@ 0055326c     Game.obj
 0002:0000b278       ??_C@_0CI@ELJMCMI@a?5small?5fee?5of?5Contribution?5is?5c@ 00553278     Game.obj
 0002:0000b2a8       ??_C@_0CL@HNIFAOKE@Note?3?5to?5transfer?5Contribution?5i@ 005532a8     Game.obj
 0002:0000b2dc       ??_C@_08KFEBEACA@For?5sale?$AA@ 005532dc     Game.obj
 0002:0000b2e8       ??_C@_04GFHHMGEL@Sold?$AA@ 005532e8     Game.obj
 0002:0000b2f0       ??_C@_08HIKNMPFJ@Outdated?$AA@ 005532f0     Game.obj
 0002:0000b2fc       ??_C@_07GONGMMAC@?$CFd?5Secs?$AA@ 005532fc     Game.obj
 0002:0000b308       ??_C@_07PDAIMJAK@?$CFd?5Mins?$AA@ 00553308     Game.obj
 0002:0000b314       ??_C@_06KAHFLCCL@?$CFd?5Hrs?$AA@ 00553314     Game.obj
 0002:0000b31c       ??_C@_06FLBEPIPH@Page?51?$AA@ 0055331c     Game.obj
 0002:0000b324       ??_C@_0BN@NGKKEAIJ@Loading?5Items?4?4?5Please?5wait?4?$AA@ 00553324     Game.obj
 0002:0000b348       ??_C@_0P@GMAPFCDH@Toggle?5top?5bar?$AA@ 00553348     Game.obj
 0002:0000b35c       ??_C@_0BH@FKCMKBLL@Ping?5alert?5sounds?5are?5?$AA@ 0055335c     Game.obj
 0002:0000b378       ??_C@_0BD@CHKEPLHB@Toggle?5FPS?5display?$AA@ 00553378     Game.obj
 0002:0000b390       ??_C@_0L@CPIPIGD@Toggle?5afk?$AA@ 00553390     Game.obj
 0002:0000b3a0       ??_C@_0P@JIJMLDPB@Show?5mute?5list?$AA@ 005533a0     Game.obj
 0002:0000b3b4       ??_C@_0BB@KPLODBHF@Show?5friend?5list?$AA@ 005533b4     Game.obj
 0002:0000b3c8       ??_C@_0BB@MBGBACAN@Time?5display?5is?5?$AA@ 005533c8     Game.obj
 0002:0000b3dc       ??_C@_0BA@LFAKFCOH@Windows?5key?5is?5?$AA@ 005533dc     Game.obj
 0002:0000b3f0       ??_C@_0BC@KCJMNHGK@Change?5font?5style?$AA@ 005533f0     Game.obj
 0002:0000b408       ??_C@_0P@FFADILIA@Big?5trees?5are?5?$AA@ 00553408     Game.obj
 0002:0000b41c       ??_C@_0P@OOJKGJLO@Big?5items?5are?5?$AA@ 0055341c     Game.obj
 0002:0000b430       ??_C@_0BG@NEKILHJI@Chat?5time?5stamps?5are?5?$AA@ 00553430     Game.obj
 0002:0000b44c       ??_C@_0BE@EGBJPNJL@Show?5all?5damage?5is?5?$AA@ 0055344c     Game.obj
 0002:0000b464       ??_C@_0BC@OJEBNJMG@Screenshot?5EK?5is?5?$AA@ 00553464     Game.obj
 0002:0000b47c       ??_C@_0BI@GOJLJHOP@Tabbed?5notification?5is?5?$AA@ 0055347c     Game.obj
 0002:0000b498       ??_C@_07MHHIKOPA@enabled?$AA@ 00553498     Game.obj
 0002:0000b4a4       ??_C@_08IEOHDCCO@Grid?5is?5?$AA@ 005534a4     Game.obj
 0002:0000b4b0       ??_C@_0BC@OAPJJNCN@Total?5Charges?3?5?$CFd?$AA@ 005534b0     Game.obj
 0002:0000b4c8       ??_C@_0BG@FOKNEDNI@Cost?3?5?$CFd?5Contribution?$AA@ 005534c8     Game.obj
 0002:0000b4e4       ??_C@_0N@MPFKILAF@Add?5Charges?3?$AA@ 005534e4     Game.obj
 0002:0000b4f4       ??_C@_0BO@FEKGHFCI@Level?5?$CFi?5?9?5?$CFd?5?$CFs?5?9?5?$CFd?5Contrib?$AA@ 005534f4     Game.obj
 0002:0000b518       ??_C@_07ENOBPAOO@?$DM?$DM?5Back?$AA@ 00553518     Game.obj
 0002:0000b524       ??_C@_0CH@LBEDGAE@Speak?5to?5cityhall?5officer?5to?5com@ 00553524     Game.obj
 0002:0000b554       ??_C@_0CL@CKLBIAGN@Congratulations?$CB?5You?5completed?5y@ 00553554     Game.obj
 0002:0000b588       ??_C@_0CJ@DLOMJONA@You?5must?5finish?5or?5cancel?5curren@ 00553588     Game.obj
 0002:0000b5bc       ??_C@_0BO@NPDEKHGN@You?5are?5currently?5on?5a?5Quest?4?$AA@ 005535bc     Game.obj
 0002:0000b5e0       ??_C@_0BC@EKHPPNAH@?$CF3d?0?$CF3d?5Range?3?$CF2d?$AA@ 005535e0     Game.obj
 0002:0000b5f8       ??_C@_08KDOEBHGA@Location?$AA@ 005535f8     Game.obj
 0002:0000b604       ??_C@_04OLJIFFAL@Find?$AA@ 00553604     Game.obj
 0002:0000b60c       ??_C@_0BJ@NDPOHCIL@?$CF10s?5Goals?5?$CF2d?5Out?5Of?520?$AA@ 0055360c     Game.obj
 0002:0000b630       ??_C@_0EL@JNFIAHMG@?$CI?$CB?$CB?$CB?$CJ?5CRITICAL?5ERROR?$CB?5BUILDITEM?5@ 00553630     Game.obj
 0002:0000b68c       ??_C@_04IFJILJI@?4cfg?$AA@ 0055368c     Game.obj
 0002:0000b694       ??_C@_09DCIAHBB@BuildItem?$AA@ 00553694     Game.obj
 0002:0000b6a0       ??_C@_04DFGAAIOO@?$DN?5?7?6?$AA@ 005536a0     Game.obj
 0002:0000b6a8       ??_C@_0DO@CNEHIPIF@?$CI?$CB?$CB?$CB?$CJ?5CRITICAL?5ERROR?$CB?5ITEM?5confi@ 005536a8     Game.obj
 0002:0000b6f8       ??_C@_0JH@IDPIODJL@UPDATE?5item?0char_database?5SET?5it@ 005536f8     Game.obj
 0002:0000b7b0       ??_C@_0HK@PFNFOACM@UPDATE?5account_database?0item?5SET@ 005537b0     Game.obj
 0002:0000b848       ??_C@_0HD@BGCMMBBD@UPDATE?5char_database?0item?5SET?5it@ 00553848     Game.obj
 0002:0000b8d8       ??_C@_0GN@PNFIFJBI@UPDATE?5char_database?0item?5SET?5it@ 005538d8     Game.obj
 0002:0000b95c       ??_C@_0CE@HMCPBJCG@DELETE?5FROM?5?$GAitem?$GA?5WHERE?5?$GACount?$GA@ 0055395c     Game.obj
 0002:0000b988       ??_C@_0DK@NCLDCOKC@?$CI?$CB?$CB?$CB?$CJ?5CRITICAL?5ERROR?$CB?5ITEM?5confi@ 00553988     Game.obj
 0002:0000b9d0       ??_C@_0DK@MLKIBPOD@?$CI?$CB?$CB?$CB?$CJ?5CRITICAL?5ERROR?$CB?5ITEM?5confi@ 005539d0     Game.obj
 0002:0000ba18       ??_C@_0DK@OAIFEMCA@?$CI?$CB?$CB?$CB?$CJ?5CRITICAL?5ERROR?$CB?5ITEM?5confi@ 00553a18     Game.obj
 0002:0000ba60       ??_C@_0DO@MMMHNLIE@?$CI?$CB?$CB?$CB?$CJ?5CRITICAL?5ERROR?$CB?5ITEM?5confi@ 00553a60     Game.obj
 0002:0000baac       ??_C@_0P@IBOLCDJF@upgradesuccess?$AA@ 00553aac     Game.obj
 0002:0000bac0       ??_C@_0L@ODCILABO@playergive?$AA@ 00553ac0     Game.obj
 0002:0000bad0       ??_C@_0P@CMOAOGNK@playerexchange?$AA@ 00553ad0     Game.obj
 0002:0000bae4       ??_C@_0N@DICIGFNA@playerdelete?$AA@ 00553ae4     Game.obj
 0002:0000baf4       ??_C@_0L@HNCGELL@playerdrop?$AA@ 00553af4     Game.obj
 0002:0000bb04       ??_C@_0L@PMONKDAL@playersell?$AA@ 00553b04     Game.obj
 0002:0000bb14       ??_C@_09ENEPACLJ@playerget?$AA@ 00553b14     Game.obj
 0002:0000bb20       ??_C@_0FP@NBGOFMB@UPDATE?5?$GAchar_database?$GA?5SET?5?$GACont@ 00553b20     Game.obj
 0002:0000bb98       ??_C@_0IB@EGFJOGGM@UPDATE?5?$GAitem?$GA?5SET?5?$GACount?$GA?$DN?$CI?$GACoun@ 00553b98     Game.obj
 0002:0000bc38       ??_C@_0FL@KADHIFGD@DELETE?5FROM?5?$GAitem?$GA?5WHERE?5?$GAchar_n@ 00553c38     Game.obj
 0002:0000bca8       ??_C@_0KI@GAGCJKCF@UPDATE?5?$GAitem?$GA?5SET?5?$GACount?$GA?$DN?$CI?$GACoun@ 00553ca8     Game.obj
 0002:0000bd78       ??_C@_0BDN@JPACIKGN@REPLACE?5INTO?5?$GAitem?$GA?5SET?5?$GAchar_na@ 00553d78     Game.obj
 0002:0000bef8       ??_C@_0BFA@IMJLIOOM@INSERT?5INTO?5?$GAitem?$GA?5?$CI?5?$GAchar_name?$GA@ 00553ef8     Game.obj
 0002:0000c08c       ??_C@_02NJNOFBBI@?$CFx?$AA@ 0055408c     Game.obj
 0002:0000c090       ??_C@_0EC@EHAFEGAF@?$CI?$CB?$CB?$CB?$CJ?5CRITICAL?5ERROR?$CB?5ITEM?5confi@ 00554090     Game.obj
 0002:0000c0e0       ??_C@_0M@EBCEODKD@convert?4log?$AA@ 005540e0     Game.obj
 0002:0000c0f0       ??_C@_0DP@CCOOPCBE@?$CI?$CB?$CB?$CB?$CJ?5CRITICAL?5ERROR?$CB?5ITEM?5confi@ 005540f0     Game.obj
 0002:0000c140       ??_C@_0ED@INBCDMMG@?$CI?$CB?$CB?$CB?$CJ?5CRITICAL?5ERROR?$CB?5ITEM?5confi@ 00554140     Game.obj
 0002:0000c190       ??_C@_0EB@JJOOCGCH@?$CI?$CB?$CB?$CB?$CJ?5CRITICAL?5ERROR?$CB?5ITEM?5confi@ 00554190     Game.obj
 0002:0000c1e0       ??_C@_0EC@FINLJJIO@?$CI?$CB?$CB?$CB?$CJ?5CRITICAL?5ERROR?$CB?5ITEM?5confi@ 005541e0     Game.obj
 0002:0000c230       ??_C@_0EC@DBJKGCPO@?$CI?$CB?$CB?$CB?$CJ?5CRITICAL?5ERROR?$CB?5ITEM?5confi@ 00554230     Game.obj
 0002:0000c280       ??_C@_0EB@IONJBDNF@?$CI?$CB?$CB?$CB?$CJ?5CRITICAL?5ERROR?$CB?5ITEM?5confi@ 00554280     Game.obj
 0002:0000c2d0       ??_C@_0DM@BHOAMJLK@?$CI?$CB?$CB?$CB?$CJ?5CRITICAL?5ERROR?$CB?5ITEM?5confi@ 005542d0     Game.obj
 0002:0000c318       ??_C@_0EA@FCMFDMHJ@?$CI?$CB?$CB?$CB?$CJ?5CRITICAL?5ERROR?$CB?5ITEM?5confi@ 00554318     Game.obj
 0002:0000c364       ??_C@_0DN@KBEHGNHM@?$CI?$CB?$CB?$CB?$CJ?5CRITICAL?5ERROR?$CB?5ITEM?5confi@ 00554364     Game.obj
 0002:0000c3b0       ??_C@_0DM@LMPEBKDP@?$CI?$CB?$CB?$CB?$CJ?5CRITICAL?5ERROR?$CB?5ITEM?5confi@ 005543b0     Game.obj
 0002:0000c3f8       ??_C@_0EC@JHDNHILB@?$CI?$CB?$CB?$CB?$CJ?5CRITICAL?5ERROR?$CB?5ITEM?5confi@ 005543f8     Game.obj
 0002:0000c448       ??_C@_0DN@LHBJHCOD@?$CI?$CB?$CB?$CB?$CJ?5CRITICAL?5ERROR?$CB?5ITEM?5confi@ 00554448     Game.obj
 0002:0000c498       ??_C@_0EC@PAOIMGBG@?$CI?$CB?$CB?$CB?$CJ?5CRITICAL?5ERROR?$CB?5ITEM?5confi@ 00554498     Game.obj
 0002:0000c4e8       ??_C@_0EC@GLKMFFGD@?$CI?$CB?$CB?$CB?$CJ?5CRITICAL?5ERROR?$CB?5ITEM?5confi@ 005544e8     Game.obj
 0002:0000c538       ??_C@_0EH@JIIBBGNC@?$CI?$CB?$CB?$CB?$CJ?5CRITICAL?5ERROR?$CB?5ITEM?5confi@ 00554538     Game.obj
 0002:0000c590       ??_C@_0EH@LDKMEFBB@?$CI?$CB?$CB?$CB?$CJ?5CRITICAL?5ERROR?$CB?5ITEM?5confi@ 00554590     Game.obj
 0002:0000c5e8       ??_C@_0EH@KKLHHEFA@?$CI?$CB?$CB?$CB?$CJ?5CRITICAL?5ERROR?$CB?5ITEM?5confi@ 005545e8     Game.obj
 0002:0000c640       ??_C@_0EH@OFPGOCJH@?$CI?$CB?$CB?$CB?$CJ?5CRITICAL?5ERROR?$CB?5ITEM?5confi@ 00554640     Game.obj
 0002:0000c698       ??_C@_0EH@PMONNDNG@?$CI?$CB?$CB?$CB?$CJ?5CRITICAL?5ERROR?$CB?5ITEM?5confi@ 00554698     Game.obj
 0002:0000c6f0       ??_C@_0EH@NHMAIABF@?$CI?$CB?$CB?$CB?$CJ?5CRITICAL?5ERROR?$CB?5ITEM?5confi@ 005546f0     Game.obj
 0002:0000c748       ??_C@_0EF@ILGIDEG@?$CI?$CB?$CB?$CB?$CJ?5CRITICAL?5ERROR?$CB?5ITEM?5confi@ 00554748     Game.obj
 0002:0000c79c       ??_C@_0DP@GIGDAKLG@?$CI?$CB?$CB?$CB?$CJ?5CRITICAL?5ERROR?$CB?5ITEM?5confi@ 0055479c     Game.obj
 0002:0000c7e8       ??_C@_0DP@NIGBBBPE@?$CI?$CB?$CB?$CB?$CJ?5CRITICAL?5ERROR?$CB?5ITEM?5confi@ 005547e8     Game.obj
 0002:0000c834       ??_C@_0CO@HNBIHEFI@?$CI?$CB?$CB?$CB?$CJ?5CRITICAL?5ERROR?$CB?5Duplicate?5@ 00554834     Game.obj
 0002:0000c870       ??_C@_0ED@DEOGNAPO@?$CI?$CB?$CB?$CB?$CJ?5CRITICAL?5ERROR?$CB?5ITEM?5confi@ 00554870     Game.obj
 0002:0000c8c0       ??_C@_0O@MAMHELEF@?$FLENDITEMLIST?$FN?$AA@ 005548c0     Game.obj
 0002:0000c8d0       ??_C@_04BGCMBJDA@Item?$AA@ 005548d0     Game.obj
 0002:0000c8d8       __real@407f400000000000    005548d8     Game.obj
 0002:0000c8e4       ??_C@_0CD@KHEOAFOL@Failed?5to?5add?5Charges?5to?5the?5ite@ 005548e4     Game.obj
 0002:0000c910       ??_C@_0BK@NPPIEGOE@You?5may?5use?5the?5item?5now?4?$AA@ 00554910     Game.obj
 0002:0000c930       ??_C@_0BM@IABHHICB@Successfully?5Added?5Charges?4?$AA@ 00554930     Game.obj
 0002:0000c954       ??_C@_0CC@NFHCCKDE@Trying?5to?5Add?5Charges?5to?5the?5Ite@ 00554954     Game.obj
 0002:0000c97c       ??_C@_0BM@IKJOEIIE@To?5Accept?5changes?5click?5OK?4?$AA@ 0055497c     Game.obj
 0002:0000c9a0       ??_C@_0CD@CMBHMAIO@Contribution?5is?5based?5on?5the?5ite@ 005549a0     Game.obj
 0002:0000c9cc       ??_C@_0CJ@DGKGMLGJ@You?5recharge?5an?5item?5using?5Contr@ 005549cc     Game.obj
 0002:0000ca00       __real@40a3880000000000    00554a00     Game.obj
 0002:0000ca10       ??_7?$basic_ostream@DU?$char_traits@D@std@@@std@@6B@ 00554a10     Game.obj
 0002:0000ca1c       ??_7?$basic_istream@DU?$char_traits@D@std@@@std@@6B@ 00554a1c     Game.obj
 0002:0000ca28       ??_7?$basic_iostream@DU?$char_traits@D@std@@@std@@6B@ 00554a28     Game.obj
 0002:0000ca34       ??_7?$basic_ios@DU?$char_traits@D@std@@@std@@6B@ 00554a34     Game.obj
 0002:0000ca40       ??_7?$_Impl_base0@X@tr1@std@@6B@ 00554a40     Game.obj
 0002:0000ca60       ??_8?$basic_ostream@DU?$char_traits@D@std@@@std@@7B@ 00554a60     Game.obj
 0002:0000ca70       ??_7?$ctype@D@std@@6B@     00554a70     Game.obj
 0002:0000caa0       ??_7system_error@std@@6B@  00554aa0     Game.obj
 0002:0000cab0       ??_7failure@ios_base@std@@6B@ 00554ab0     Game.obj
 0002:0000cabc       ??_C@_0BF@OOHOMBOF@ios_base?3?3eofbit?5set?$AA@ 00554abc     Game.obj
 0002:0000cad8       ??_C@_0BG@FMKFHCIL@ios_base?3?3failbit?5set?$AA@ 00554ad8     Game.obj
 0002:0000caf4       ??_C@_0BF@PHHKMMFD@ios_base?3?3badbit?5set?$AA@ 00554af4     Game.obj
 0002:0000cb10       ??_C@_09OAACPEPA@ShortCut4?$AA@ 00554b10     Game.obj
 0002:0000cb1c       ??_C@_09KPEDGCDH@ShortCut3?$AA@ 00554b1c     Game.obj
 0002:0000cb28       ??_C@_09LGFIFDHG@ShortCut2?$AA@ 00554b28     Game.obj
 0002:0000cb34       ??_C@_09JNHFAALF@ShortCut1?$AA@ 00554b34     Game.obj
 0002:0000cb40       ??_C@_09IEGODBPE@ShortCut0?$AA@ 00554b40     Game.obj
 0002:0000cb4c       ??_C@_0M@BFDOFJDO@RunningMode?$AA@ 00554b4c     Game.obj
 0002:0000cb5c       ??_C@_0L@IBANLBHA@AttackMode?$AA@ 00554b5c     Game.obj
 0002:0000cb6c       ??_C@_0L@ONNMCAAA@CombatMode?$AA@ 00554b6c     Game.obj
 0002:0000cb7c       ??_C@_09GOBFAMOL@ShowQuest?$AA@ 00554b7c     Game.obj
 0002:0000cb88       ??_C@_0L@BFANCFL@WindowsKey?$AA@ 00554b88     Game.obj
 0002:0000cb98       ??_C@_09KEMINNNJ@TimeStamp?$AA@ 00554b98     Game.obj
 0002:0000cba4       ??_C@_0N@HONLFJKF@ManuAutoFill?$AA@ 00554ba4     Game.obj
 0002:0000cbb4       ??_C@_0BD@HCLKJLLE@TabbedNotification?$AA@ 00554bb4     Game.obj
 0002:0000cbcc       ??_C@_0N@CPECLBJF@EKScreenshot?$AA@ 00554bcc     Game.obj
 0002:0000cbdc       ??_C@_0M@DNICAFEI@SoundVolume?$AA@ 00554bdc     Game.obj
 0002:0000cbec       ??_C@_0M@PHEILDHC@MusicVolume?$AA@ 00554bec     Game.obj
 0002:0000cbfc       ??_C@_0M@EBIMECGL@DetailLevel?$AA@ 00554bfc     Game.obj
 0002:0000cc0c       ??_C@_0BA@OKIBENFA@PartyAutoAccept?$AA@ 00554c0c     Game.obj
 0002:0000cc20       ??_C@_08EMHGBPH@BigItems?$AA@ 00554c20     Game.obj
 0002:0000cc2c       ??_C@_0L@CNBGCGJH@ShowAllDmg?$AA@ 00554c2c     Game.obj
 0002:0000cc3c       ??_C@_08FHIMJONL@ShowGrid?$AA@ 00554c3c     Game.obj
 0002:0000cc48       ??_C@_08OJMGDKIK@ShowTime?$AA@ 00554c48     Game.obj
 0002:0000cc54       ??_C@_07ICIHAKH@ShowFPS?$AA@ 00554c54     Game.obj
 0002:0000cc60       ??_C@_08DKNMNEKK@BigTrees?$AA@ 00554c60     Game.obj
 0002:0000cc6c       ??_C@_09FAJAGEDO@PingSound?$AA@ 00554c6c     Game.obj
 0002:0000cc78       ??_C@_06NAHIJKLA@TopBar?$AA@ 00554c78     Game.obj
 0002:0000cc80       ??_C@_09BIHFJGEM@FontStyle?$AA@ 00554c80     Game.obj
 0002:0000cc8c       ??_C@_0BA@KKJNOOFO@SavedDialogPosY?$AA@ 00554c8c     Game.obj
 0002:0000cca0       ??_C@_0BA@LDIGNPBP@SavedDialogPosX?$AA@ 00554ca0     Game.obj
 0002:0000ccb4       ??_C@_03DPLIHHLN@?$CFd?0?$AA@ 00554cb4     Game.obj
 0002:0000ccb8       ??_C@_06IGLCKGNG@test?51?$AA@ 00554cb8     Game.obj
 0002:0000ccc0       ??_C@_06KNJPPFBF@test?52?$AA@ 00554cc0     Game.obj
 0002:0000ccc8       ??_C@_06LEIEMEFE@test?53?$AA@ 00554cc8     Game.obj
 0002:0000ccd0       ??_C@_08NNMBPKJF@Effect?53?$AA@ 00554cd0     Game.obj
 0002:0000ccdc       ??_C@_08MENKMLNE@Effect?52?$AA@ 00554cdc     Game.obj
 0002:0000cce8       ??_C@_08OPPHJIBH@Effect?51?$AA@ 00554ce8     Game.obj
 0002:0000ccf4       ??_C@_04NEEIJHPO@Shop?$AA@ 00554cf4     Game.obj
 0002:0000cd00       ??_C@_0EP@NDHPOJEJ@?$CI?$CB?$CB?$CB?$CJ?5CRITICAL?5ERROR?$CB?5MAGIC?5conf@ 00554d00     Game.obj
 0002:0000cd60       ??_C@_0EK@LLDPJHDI@?$CI?$CB?$CB?$CB?$CJ?5CRITICAL?5ERROR?$CB?5MAGIC?5conf@ 00554d60     Game.obj
 0002:0000cdb8       ??_C@_09EHMNNAGE@Magic?4cfg?$AA@ 00554db8     Game.obj
 0002:0000cdc4       ??_C@_09FNGAGEOB@Skill?4cfg?$AA@ 00554dc4     Game.obj
 0002:0000cdd0       ??_C@_02FEPBKKHI@3X?$AA@   00554dd0     Game.obj
 0002:0000cdd4       ??_C@_02CMAFNKKL@3J?$AA@   00554dd4     Game.obj
 0002:0000cdd8       ??_C@_02GGMHMIPK@3Z?$AA@   00554dd8     Game.obj
 0002:0000cddc       ??_C@_02JJKLKEOG@3G?$AA@   00554ddc     Game.obj
 0002:0000cde0       ??_C@_02LCIGPHCF@3D?$AA@   00554de0     Game.obj
 0002:0000cde4       ??_C@_02NCPIBIBE@33?$AA@   00554de4     Game.obj
 0002:0000cde8       ??_C@_02IALAJFKH@3F?$AA@   00554de8     Game.obj
 0002:0000cdec       ??_C@_02KLJNMGGE@3E?$AA@   00554dec     Game.obj
 0002:0000cdf0       ??_C@_02CJNFJKKJ@29?$AA@   00554df0     Game.obj
 0002:0000cdf4       ??_C@_02DAMOKLOI@28?$AA@   00554df4     Game.obj
 0002:0000cdf8       ??_C@_02LDNLMLJF@47?$AA@   00554df8     Game.obj
 0002:0000cdfc       ??_C@_0BI@NBNDOOHG@Not?5existing?5character?$CB?$AA@ 00554dfc     Game.obj
 0002:0000ce18       ??_C@_02KNMJFCAI@06?$AA@   00554e18     Game.obj
 0002:0000ce1c       ??_C@_02IGOEABML@05?$AA@   00554e1c     Game.obj
 0002:0000ce20       ??_C@_02JJDEPCGB@54?$AA@   00554e20     Game.obj
 0002:0000ce24       ??_C@_02MIGHPNDL@12?$AA@   00554e24     Game.obj
 0002:0000ce28       ??_C@_02ODEKKOPI@11?$AA@   00554e28     Game.obj
 0002:0000ce2c       ??_C@_02HNFGNFPB@7L?$AA@   00554e2c     Game.obj
 0002:0000ce30       ??_C@_02DCBHEDDG@7K?$AA@   00554e30     Game.obj
 0002:0000ce34       ??_C@_02CBCBLE@7I?$AA@     00554e34     Game.obj
 0002:0000ce38       ??_C@_02BJDKBAPF@7H?$AA@   00554e38     Game.obj
 0002:0000ce3c       ??_C@_02MPPBADGA@3A?$AA@   00554e3c     Game.obj
 0002:0000ce40       ??_C@_02HCNMKAGP@1b?$AA@   00554e40     Game.obj
 0002:0000ce44       ??_C@_02FJPBPDKM@1a?$AA@   00554e44     Game.obj
 0002:0000ce48       ??_C@_02GFIPIOIH@6M?$AA@   00554e48     Game.obj
 0002:0000ce4c       ??_C@_02NPDMFJFG@8W?$AA@   00554e4c     Game.obj
 0002:0000ce50       ??_C@_02MGCHGIBH@8V?$AA@   00554e50     Game.obj
 0002:0000ce54       ??_C@_02OMJLJFHH@81?$AA@   00554e54     Game.obj
 0002:0000ce58       ??_C@_02MHLGMGLE@82?$AA@   00554e58     Game.obj
 0002:0000ce5c       ??_C@_02ONAKDLNE@8U?$AA@   00554e5c     Game.obj
 0002:0000ce60       ??_C@_02EOGOEPFH@1Y?$AA@   00554e60     Game.obj
 0002:0000ce64       ??_C@_02PLAMKDAJ@6C?$AA@   00554e64     Game.obj
 0002:0000ce68       ??_C@_02OCBHJCEI@6B?$AA@   00554e68     Game.obj
 0002:0000ce6c       ??_C@_0CO@JLJDIHFP@Elvine?8s?5Grand?5Magic?5generator?5w@ 00554e6c     Game.obj
 0002:0000cea8       ??_C@_0FH@GKEILJHA@Elvine?8s?5Grand?5magic?5generator?5w@ 00554ea8     Game.obj
 0002:0000cf10       ??_C@_0CP@ELAIALHD@Aresden?8s?5Grand?5Magic?5generator?5@ 00554f10     Game.obj
 0002:0000cf48       ??_C@_0FI@JIHIPJLM@Aresden?8s?5Grand?5magic?5generator?5@ 00554f48     Game.obj
 0002:0000cfb4       ??_C@_0BP@PMEPGNJG@No?5asking?5for?5a?5same?5item?4?5OFF?$AA@ 00554fb4     Game.obj
 0002:0000cfdc       ??_C@_0BO@KBIDIEPG@No?5asking?5for?5a?5same?5item?4?5ON?$AA@ 00554fdc     Game.obj
 0002:0000d000       ??_C@_0CF@CCFILDDO@Are?5you?5sure?5to?5drop?5away?5this?5i@ 00555000     Game.obj
 0002:0000d02c       ??_C@_0BI@EIOKGAHG@How?5much?5Gold?5would?5you?$AA@ 0055502c     Game.obj
 0002:0000d048       ??_C@_0O@IEGIFGBN@like?5to?5give?$DP?$AA@ 00555048     Game.obj
 0002:0000d058       ??_C@_0CA@NEEAONIP@How?5much?5Contribution?5would?5you?$AA@ 00555058     Game.obj
 0002:0000d080       ??_C@_0BI@DLNLALFG@Screenshot?5saved?5to?5?$CFs?4?$AA@ 00555080     Game.obj
 0002:0000d09c       ??_C@_0CE@DCFOBHOD@Unable?5to?5save?5anymore?5screensho@ 0055509c     Game.obj
 0002:0000d0c8       ??_C@_0BO@MHKOMIHH@SAVE?2Helbreath?5Legion?5?$CD?$CFd?4bmp?$AA@ 005550c8     Game.obj
 0002:0000d0ec       ??_C@_04IAPJGLOD@SAVE?$AA@ 005550ec     Game.obj
 0002:0000d0f4       ??_C@_0BL@FMGCLKHI@?$CF02d?3?$CF02d?5?9?5?$CF02d?3?$CF02d?3?$CF02d?$AA@ 005550f4     Game.obj
 0002:0000d114       ??_C@_0CH@OFDGADPA@?5?5Connecting?5to?5server?4?5Please?5w@ 00555114     Game.obj
 0002:0000d144       ??_C@_0CI@OKGNBJHM@connection?5and?5return?5to?5the?5mai@ 00555144     Game.obj
 0002:0000d174       ??_C@_0CF@PPCLPHCF@Press?5ESC?5key?5during?5long?5time?5o@ 00555174     Game.obj
 0002:0000d1a0       ??_C@_0BO@GIPBMOIL@Waiting?5for?5response?4?4?4?5?$CFdsec?$AA@ 005551a0     Game.obj
 0002:0000d1c4       ??_C@_0BB@EGGLBDI@Connection?5Lost?$CB?$AA@ 005551c4     Game.obj
 0002:0000d1d8       __real@4075200000000000    005551d8     Game.obj
 0002:0000d1e4       ??_C@_0CO@LEPPGCCP@Cannot?5create?5account?$CB?5Passwords@ 005551e4     Game.obj
 0002:0000d21c       ??_C@_02PLJDPFIO@00?$AA@   0055521c     Game.obj
 0002:0000d220       ??_C@_05MPOCIJBL@?$CFs?9?$CFs?$AA@ 00555220     Game.obj
 0002:0000d228       ??_C@_0BD@CFIGBBJO@Back?5to?5main?5menu?4?$AA@ 00555228     Game.obj
 0002:0000d240       ??_C@_0L@PJIPFINH@Clear?5all?4?$AA@ 00555240     Game.obj
 0002:0000d250       ??_C@_0BL@NNHNCCFN@Please?5enter?5a?5new?5Answer?4?$AA@ 00555250     Game.obj
 0002:0000d270       ??_C@_0CD@ODMCGHJ@The?5Answer?5has?5special?5character@ 00555270     Game.obj
 0002:0000d29c       ??_C@_0BJ@LKHMOGFF@Please?5enter?5a?5new?5Quiz?4?$AA@ 0055529c     Game.obj
 0002:0000d2bc       ??_C@_0CB@BNLAFFPP@The?5Quiz?5has?5special?5characters?4@ 005552bc     Game.obj
 0002:0000d2e4       ??_C@_0BJ@NFOHECP@Please?5enter?5the?5Answer?4?$AA@ 005552e4     Game.obj
 0002:0000d304       ??_C@_0BH@JDBAGJDN@Please?5enter?5the?5Quiz?4?$AA@ 00555304     Game.obj
 0002:0000d320       ??_C@_0BI@DCCIBMEI@confirm?5to?5be?5the?5same?4?$AA@ 00555320     Game.obj
 0002:0000d33c       ??_C@_0CF@OFFGBFJK@Please?5enter?5your?5password?5and?5p@ 0055533c     Game.obj
 0002:0000d368       ??_C@_0CF@KABJDHAH@Password?5and?5pass?9confirm?5missma@ 00555368     Game.obj
 0002:0000d394       ??_C@_0CF@MJNOOHFI@The?5password?5has?5special?5charact@ 00555394     Game.obj
 0002:0000d3c0       ??_C@_0BN@GFNOJHCN@Please?5enter?5a?5new?5password?4?$AA@ 005553c0     Game.obj
 0002:0000d3e4       ??_C@_0CE@DJPLPNOC@The?5account?5has?5special?5characte@ 005553e4     Game.obj
 0002:0000d410       ??_C@_0CB@DJHMFJEL@Please?5enter?5the?5E?9Mail?5address?4@ 00555410     Game.obj
 0002:0000d438       ??_C@_0BN@GFIHKGJL@Please?5confirm?5the?5password?4?$AA@ 00555438     Game.obj
 0002:0000d45c       ??_C@_0BM@CIHMJION@Please?5insert?5the?5password?4?$AA@ 0055545c     Game.obj
 0002:0000d480       ??_C@_0CA@BAMHNKDH@Please?5insert?5the?5account?5name?4?$AA@ 00555480     Game.obj
 0002:0000d4a8       ??_C@_0CD@GKLBJPOK@Create?5an?5account?5with?5your?5inpu@ 005554a8     Game.obj
 0002:0000d4d4       ??_C@_0BF@BOFKBKPL@Answer?5the?5question?4?$AA@ 005554d4     Game.obj
 0002:0000d4f0       ??_C@_0CH@KHLAHDIE@recover?5the?5password?5if?5you?5forg@ 005554f0     Game.obj
 0002:0000d520       ??_C@_0CG@HGEGBHFL@Enter?5the?5secret?5question?0?5so?5yo@ 00555520     Game.obj
 0002:0000d550       ??_C@_0BO@JAGMJMNH@to?5confirm?5the?5account?5owner?4?$AA@ 00555550     Game.obj
 0002:0000d574       ??_C@_0CK@PNEGMCKI@You?5should?5enter?5a?5correct?5E?9mai@ 00555574     Game.obj
 0002:0000d5a8       ??_C@_0BL@MMGGEIDG@Enter?5your?5E?9mail?5address?4?$AA@ 005555a8     Game.obj
 0002:0000d5c8       ??_C@_0BG@HAEEALJ@Confirm?5the?5password?4?$AA@ 005555c8     Game.obj
 0002:0000d5e4       ??_C@_0BN@CFDDBIIF@Enter?5your?5account?5password?4?$AA@ 005555e4     Game.obj
 0002:0000d608       ??_C@_0BN@CDCHIGJG@?$CI?5Only?5letters?5and?5numbers?5?$CJ?$AA@ 00555608     Game.obj
 0002:0000d62c       ??_C@_0BH@PNFKCPKK@Enter?5your?5account?5ID?4?$AA@ 0055562c     Game.obj
 0002:0000d648       ??_C@_05EADGLICI@Elite?$AA@ 00555648     Game.obj
 0002:0000d650       ??_C@_0BD@DIOGNEFN@Critical?5Explosive?$AA@ 00555650     Game.obj
 0002:0000d668       ??_C@_09IGNDJJLI@Explosive?$AA@ 00555668     Game.obj
 0002:0000d674       ??_C@_0BD@GAGHHAAP@Critical?5Poisonous?$AA@ 00555674     Game.obj
 0002:0000d68c       ??_C@_09NOFCDNOK@Poisonous?$AA@ 0055568c     Game.obj
 0002:0000d698       ??_C@_0BC@PPGKLCPG@Anti?9Magic?5Damage?$AA@ 00555698     Game.obj
 0002:0000d6b0       ??_C@_0BF@JCKJIKOP@Anti?9Physical?5Damage?$AA@ 005556b0     Game.obj
 0002:0000d6cc       ??_C@_0CA@GOEAHJFA@Destruction?5of?5Magic?5Protection?$AA@ 005556cc     Game.obj
 0002:0000d6f4       ??_C@_0M@LBNBIGKN@Clairvoyant?$AA@ 005556f4     Game.obj
 0002:0000d704       ??_C@_0L@MDCGFPMP@?$CIFriendly?$CJ?$AA@ 00555704     Game.obj
 0002:0000d714       ??_C@_07GJJCKENN@Neutral?$AA@ 00555714     Game.obj
 0002:0000d720       ??_C@_07BDHLHGFG@?$CIEnemy?$CJ?$AA@ 00555720     Game.obj
 0002:0000d72c       ??_C@_0O@JJHNICJF@Health?3?5?$CFd?1?$CFd?$AA@ 0055572c     Game.obj
 0002:0000d73c       ??_C@_07KIBIEBMP@?5Frozen?$AA@ 0055573c     Game.obj
 0002:0000d748       ??_C@_0L@NFCLHEMF@?5Berserked?$AA@ 00555748     Game.obj
 0002:0000d758       ??_C@_0CH@NNLLFLBF@Please?5run?5the?5launcher?5and?5try?5@ 00555758     Game.obj
 0002:0000d788       ??_C@_0DD@FINKNJNF@Client?5program?5version?5does?5not?5@ 00555788     Game.obj
 0002:0000d7c8       ??_C@_0BK@DPAALKEG@Casting?5Probability?3?5?$CFd?$CF?$CF?$AA@ 005557c8     Game.obj
 0002:0000d7e8       __real@41f0000000000000    005557e8     Game.obj
 0002:0000d7f4       ??_C@_02KNHHEEKP@?5?5?$AA@ 005557f4     Game.obj
 0002:0000d7f8       ??_C@_0CC@DKBFBIBI@you?5need?5sufficient?5gold?5and?5INT@ 005557f8     Game.obj
 0002:0000d820       ??_C@_0CA@HMLGBINI@Tower?5in?5town?4?5To?5learn?5a?5spell?$AA@ 00555820     Game.obj
 0002:0000d848       ??_C@_0CC@BMONIOKP@You?5can?5learn?5magic?5at?5the?5Wizar@ 00555848     Game.obj
 0002:0000d870       ??_C@_0CA@PFCDJEJC@You?5have?5not?5learned?5any?5magic?4?$AA@ 00555870     Game.obj
 0002:0000d898       ??_C@_0BA@NKCMIFHM@?$CFd?5Charges?5Left?$AA@ 00555898     Game.obj
 0002:0000d8ac       ??_C@_0L@FCPCBCCH@Circle?5Ten?$AA@ 005558ac     Game.obj
 0002:0000d8bc       ??_C@_0M@NNFEOIAA@Circle?5Nine?$AA@ 005558bc     Game.obj
 0002:0000d8cc       ??_C@_0N@FEJJMEAA@Circle?5Eight?$AA@ 005558cc     Game.obj
 0002:0000d8dc       ??_C@_0N@BELGJBPF@Circle?5Seven?$AA@ 005558dc     Game.obj
 0002:0000d8ec       ??_C@_0L@NKKHGGCN@Circle?5Six?$AA@ 005558ec     Game.obj
 0002:0000d8fc       ??_C@_0M@PPBBFBAJ@Circle?5Five?$AA@ 005558fc     Game.obj
 0002:0000d90c       ??_C@_0M@NNLPDEBK@Circle?5Four?$AA@ 0055590c     Game.obj
 0002:0000d91c       ??_C@_0N@JNLFCLGA@Circle?5Three?$AA@ 0055591c     Game.obj
 0002:0000d92c       ??_C@_0L@FEELFEHI@Circle?5Two?$AA@ 0055592c     Game.obj
 0002:0000d93c       ??_C@_0L@DKELPEJD@Circle?5One?$AA@ 0055593c     Game.obj
 0002:0000d950       __real@4014000000000000    00555950     Game.obj
 0002:0000d964       ??_7?$basic_streambuf@DU?$char_traits@D@std@@@std@@6B@ 00555964     Game.obj
 0002:0000d9b4       ??_7?$basic_stringbuf@DU?$char_traits@D@std@@V?$allocator@D@2@@std@@6B@ 005559b4     Game.obj
 0002:0000d9fc       ??_C@_0BA@ELKIONDK@bad?5locale?5name?$AA@ 005559fc     Game.obj
 0002:0000da10       ??_C@_0BE@CIFFGKFB@AngelicPendant?$CIMAG?$CJ?$AA@ 00555a10     Game.obj
 0002:0000da28       ??_C@_0BE@JLNGMBOO@AngelicPendant?$CIINT?$CJ?$AA@ 00555a28     Game.obj
 0002:0000da40       ??_C@_0BE@LNFNHLDK@AngelicPendant?$CIDEX?$CJ?$AA@ 00555a40     Game.obj
 0002:0000da58       ??_C@_0BE@IKKPIFIE@AngelicPendant?$CISTR?$CJ?$AA@ 00555a58     Game.obj
 0002:0000da70       ??_C@_04OKNCJMLJ@Farm?$AA@ 00555a70     Game.obj
 0002:0000da78       ??_C@_08FJNCMLCG@Huntzone?$AA@ 00555a78     Game.obj
 0002:0000da84       ??_C@_07FGFOOKEB@Barrack?$AA@ 00555a84     Game.obj
 0002:0000da90       ??_C@_0BJ@JIFBJGDP@The?5entrance?5to?5the?5Farm?$AA@ 00555a90     Game.obj
 0002:0000dab0       ??_C@_0CA@KBPGLDEN@The?5entrance?5to?5the?5Middle?5Land?$AA@ 00555ab0     Game.obj
 0002:0000dad8       ??_C@_0BO@KJBMFEBC@The?5entrance?5to?5the?5Hunt?9Zone?$AA@ 00555ad8     Game.obj
 0002:0000dafc       ??_C@_07CELLBLHP@Dungeon?$AA@ 00555afc     Game.obj
 0002:0000db08       ??_C@_0L@BOAAHAGM@BlackSmith?$AA@ 00555b08     Game.obj
 0002:0000db18       ??_C@_08KHBKHNDH@Cityhall?$AA@ 00555b18     Game.obj
 0002:0000db24       ??_C@_06OEGGFBCM@Church?$AA@ 00555b24     Game.obj
 0002:0000db2c       ??_C@_09KJGMEIIG@GuildHall?$AA@ 00555b2c     Game.obj
 0002:0000db38       ??_C@_09FKBNODAG@Magicshop?$AA@ 00555b38     Game.obj
 0002:0000db44       ??_C@_06PHGHDMGF@?$CFd?0?5?$CFd?$AA@ 00555b44     Game.obj
 0002:0000db4c       ??_C@_0BD@KIOOKGHA@?$CI?$CL?$CJ?5?3?5Maximize?5map?$AA@ 00555b4c     Game.obj
 0002:0000db64       ??_C@_0BD@OGNNGCID@?$CI?9?$CJ?5?3?5Minimize?5map?$AA@ 00555b64     Game.obj
 0002:0000db7c       ??_C@_0P@PHCMIMOC@Staminar?5Point?$AA@ 00555b7c     Game.obj
 0002:0000db90       ??_C@_0L@KIAELMAA@Mana?5Point?$AA@ 00555b90     Game.obj
 0002:0000dba0       ??_C@_09NOKHELOO@Hit?5Point?$AA@ 00555ba0     Game.obj
 0002:0000dbac       ??_C@_0BA@HHAOHPAE@Underwear?5Color?$AA@ 00555bac     Game.obj
 0002:0000dbc0       ??_C@_0L@KKACAGPF@Hair?5Color?$AA@ 00555bc0     Game.obj
 0002:0000dbd0       ??_C@_0L@NOOGDPJP@Hair?5Style?$AA@ 00555bd0     Game.obj
 0002:0000dbe0       ??_C@_0L@BLODPBNH@Skin?5Color?$AA@ 00555be0     Game.obj
 0002:0000dbf0       ??_C@_06HKFFEOFI@Gender?$AA@ 00555bf0     Game.obj
 0002:0000dbf8       ??_C@_0BL@BKICHHFF@Select?5character?8s?5gender?4?$AA@ 00555bf8     Game.obj
 0002:0000dc18       ??_C@_0P@IJHDNPNF@Character?5Name?$AA@ 00555c18     Game.obj
 0002:0000dc2c       ??_C@_0BI@NKECBGAN@Enter?5a?5character?5name?4?$AA@ 00555c2c     Game.obj
 0002:0000dc48       ??_C@_0BO@CKBDKLIG@Sets?5stats?5for?5a?5basic?5Priest?$AA@ 00555c48     Game.obj
 0002:0000dc6c       ??_C@_0BM@EFLDOKHE@Sets?5stats?5for?5a?5basic?5Mage?$AA@ 00555c6c     Game.obj
 0002:0000dc90       ??_C@_0BP@NBANODCA@Sets?5stats?5for?5a?5basic?5Warrior?$AA@ 00555c90     Game.obj
 0002:0000dcb8       ??_C@_0CD@DMBNMJE@Return?5to?5the?5main?5selecting?5men@ 00555cb8     Game.obj
 0002:0000dce4       ??_C@_05IFKLLJBC@?5?5?5?5?5?$AA@ 00555ce4     Game.obj
 0002:0000dcec       ??_C@_0BJ@OGDGHMNF@with?5the?5above?5settings?4?$AA@ 00555cec     Game.obj
 0002:0000dd0c       ??_C@_0BK@DDAKFPPP@Create?5with?5the?5character?$AA@ 00555d0c     Game.obj
 0002:0000dd2c       ??_C@_0BD@DEFOOMNE@type?5another?5name?4?$AA@ 00555d2c     Game.obj
 0002:0000dd44       ??_C@_0CB@DLAFMNMB@in?5your?5character?8s?5name?4?5Please@ 00555d44     Game.obj
 0002:0000dd6c       ??_C@_0BP@FGICLGIH@Cannot?5use?5special?5characters?5?$AA@ 00555d6c     Game.obj
 0002:0000dd94       ??_C@_0CJ@NOEGCLJP@You?5need?5to?5select?5your?5characte@ 00555d94     Game.obj
 0002:0000ddc8       ??_C@_0BP@DEJJHFOD@Please?5enter?5a?5character?5name?4?$AA@ 00555dc8     Game.obj
 0002:0000ddf0       ??_C@_0CJ@KMFHFII@guild?4?5Cost?5of?5item?5purchase?5is?5@ 00555df0     Game.obj
 0002:0000de24       ??_C@_0CE@HOLHEMGH@to?5a?5certain?5amount?0?5you?5can?5for@ 00555e24     Game.obj
 0002:0000de50       ??_C@_0CH@KANAAEEN@charisma?5assigned?4?5If?5CHR?5is?5inc@ 00555e50     Game.obj
 0002:0000de80       ??_C@_0CH@CAOLCBHG@as?5well?5as?5maximum?5MP?5and?5MP?5rec@ 00555e80     Game.obj
 0002:0000deb0       ??_C@_0CI@LADCIMOH@increased?0?5magical?5resistance?5in@ 00555eb0     Game.obj
 0002:0000dee0       ??_C@_0BK@GHLEDNEO@magic?5assigned?4?5As?5MAG?5is?$AA@ 00555ee0     Game.obj
 0002:0000df00       ??_C@_0CO@KHCOGDNC@casting?5probability?5and?5maximum?5@ 00555f00     Game.obj
 0002:0000df38       ??_C@_0CG@JEIIDOBK@increased?0?5more?5magic?5can?5be?5lea@ 00555f38     Game.obj
 0002:0000df68       ??_C@_0CB@LDHHIMLG@intelligence?5assigned?4?5As?5INT?5is@ 00555f68     Game.obj
 0002:0000df90       ??_C@_0CP@PDJBEIBD@?$CIdefense?5ratio?$CJ?5and?5hit?5probabil@ 00555f90     Game.obj
 0002:0000dfc8       ??_C@_0CG@CCBOJIM@increased?0?5evasion?5from?5physical@ 00555fc8     Game.obj
 0002:0000dff8       ??_C@_0BO@CKOLDIKP@dexterity?5assigned?4?5As?5DEX?5is?$AA@ 00555ff8     Game.obj
 0002:0000e01c       ??_C@_0CP@GBCIDBCO@Physical?5damage?5absorption?5sligh@ 0055601c     Game.obj
 0002:0000e054       ??_C@_0CC@MDBHLJPE@increases?5as?5the?5recovery?5amount@ 00556054     Game.obj
 0002:0000e07c       ??_C@_0BP@CDMJCLEJ@increased?0?5the?5max?4?5HP?5greatly?$AA@ 0055607c     Game.obj
 0002:0000e0a4       ??_C@_0BN@GHCLOFMJ@vitality?5assigned?4?5As?5VIT?5is?$AA@ 005560a4     Game.obj
 0002:0000e0c8       ??_C@_0CL@JJEKCDDE@You?5can?5equip?5heavier?5weapons?5an@ 005560c8     Game.obj
 0002:0000e0fc       ??_C@_0CC@PDBKMPMC@HP?5and?5maximum?5stamina?5increases@ 005560fc     Game.obj
 0002:0000e124       ??_C@_0BP@CHFNMJNF@increased?0?5character?8s?5maximum?$AA@ 00556124     Game.obj
 0002:0000e14c       ??_C@_0BN@PKKEAIAE@strength?5assigned?4?5As?5STR?5is?$AA@ 0055614c     Game.obj
 0002:0000e170       ??_C@_0CD@ILDKMNNO@Determine?5your?5character?8s?5initi@ 00556170     Game.obj
 0002:0000e19c       ??_C@_0BP@LEOILOJF@Select?5the?5color?5of?5underwear?4?$AA@ 0055619c     Game.obj
 0002:0000e1c4       ??_C@_0BP@KBNEAELG@Select?5character?8s?5hair?5color?4?$AA@ 005561c4     Game.obj
 0002:0000e1ec       ??_C@_0BO@CBJGPBML@Select?5character?8s?5hairstyle?4?$AA@ 005561ec     Game.obj
 0002:0000e210       ??_C@_0BJ@NBNFMAEO@Select?5character?8s?5skin?4?$AA@ 00556210     Game.obj
 0002:0000e230       ??_C@_02MKCBEDGC@22?$AA@   00556230     Game.obj
 0002:0000e234       ??_C@_0CA@IMDEEPC@Last?5Logout?5?3?5?$CFd?1?$CFd?1?$CFd?5?5?$CFd?5?3?5?$CFd?$AA@ 00556234     Game.obj
 0002:0000e25c       ??_C@_0CD@HHCOMNCP@IP?5meter?9rate?5term?3?5?$CFdD?5?$CFdHr?5?$CFdM@ 0055625c     Game.obj
 0002:0000e288       ??_C@_0BN@HMJOAGBD@IP?5validity?5Time?3?5?$CFdHr?5?$CFdMin?$AA@ 00556288     Game.obj
 0002:0000e2ac       ??_C@_0BO@CINKAKGJ@after?5you?5select?5a?5character?4?$AA@ 005562ac     Game.obj
 0002:0000e2d0       ??_C@_0CI@KFFOPBLE@cter?0?5press?5the?5DELETE?5CHARACTER@ 005562d0     Game.obj
 0002:0000e300       ??_C@_0CH@LJMLMEE@button?4?5If?5you?5want?5to?5delete?5a?5@ 00556300     Game.obj
 0002:0000e330       ??_C@_0BE@POHNOKCB@you?5want?5to?5delete?4?$AA@ 00556330     Game.obj
 0002:0000e348       ??_C@_0CD@GIBNLNOD@after?5you?5select?5a?5character?5whi@ 00556348     Game.obj
 0002:0000e374       ??_C@_0CC@DHDMEKHJ@press?5the?5DELETE?5CHARACTER?5butto@ 00556374     Game.obj
 0002:0000e39c       ??_C@_0CD@OHIJPNOK@If?5you?5want?5to?5delete?5a?5characte@ 0055639c     Game.obj
 0002:0000e3c8       ??_C@_0CC@PDAHEJPH@button?0?5and?5make?5a?5new?5character@ 005563c8     Game.obj
 0002:0000e3f0       ??_C@_0CF@GPNMCPHJ@You?5can?5start?5game?5by?5clicking?5S@ 005563f0     Game.obj
 0002:0000e41c       ??_C@_0BF@CHBNMJNA@the?5left?5blank?5slot?4?$AA@ 0055641c     Game.obj
 0002:0000e438       ??_C@_0CF@LFPDHDGG@clicking?5the?5NEW?5CHARACTER?5butto@ 00556438     Game.obj
 0002:0000e464       ??_C@_0CG@NEPEOMKF@most?4?5You?5can?5make?5a?5new?5charact@ 00556464     Game.obj
 0002:0000e494       ??_C@_0CF@IBIHECAA@Each?5account?5can?5have?54?5characte@ 00556494     Game.obj
 0002:0000e4c0       ??_C@_0CH@KADENNDG@There?5is?5no?5character?5in?5this?5ac@ 005564c0     Game.obj
 0002:0000e4f0       ??_C@_0BH@HDOLDMBF@Back?5to?5the?5main?5menu?4?$AA@ 005564f0     Game.obj
 0002:0000e50c       ??_C@_0BN@NLPOEHJH@Change?5the?5account?5password?4?$AA@ 0055650c     Game.obj
 0002:0000e530       ??_C@_0BO@FFCMBHCI@an?5e?9mail?5to?5the?5game?5master?4?$AA@ 00556530     Game.obj
 0002:0000e554       ??_C@_0CG@EMANAHAN@character?5above?5level?550?0?5please@ 00556554     Game.obj
 0002:0000e584       ??_C@_0CD@ODMMIMGB@level?550?4?5If?5you?5want?5to?5delete?5@ 00556584     Game.obj
 0002:0000e5b0       ??_C@_0CF@BAHNOIFK@also?5cannot?5delete?5a?5character?5a@ 005565b0     Game.obj
 0002:0000e5dc       ??_C@_0CE@BKNHKBGE@characters?5cannot?5be?5recovered?4?5@ 005565dc     Game.obj
 0002:0000e608       ??_C@_0CH@CJMICDNH@Delete?5the?5selected?5character?4?5D@ 00556608     Game.obj
 0002:0000e638       ??_C@_0BG@EMHMBAIE@Make?5a?5new?5character?4?$AA@ 00556638     Game.obj
 0002:0000e654       ??_C@_0L@MFGKDHCN@character?4?$AA@ 00556654     Game.obj
 0002:0000e664       ??_C@_0CG@DEPHFEEF@or?5pressing?5the?5enter?5after?5sele@ 00556664     Game.obj
 0002:0000e694       ??_C@_0CG@GPCPAJLO@You?5can?5log?5in?5by?5clicking?5the?5b@ 00556694     Game.obj
 0002:0000e6c4       ??_C@_0CE@PCEBNOAH@Log?5in?5with?5the?5selected?5charact@ 005566c4     Game.obj
 0002:0000e6f0       ??_C@_0CD@NACGKKGB@Connected?4?5Waiting?5for?5response?4@ 005566f0     Game.obj
 0002:0000e71c       ??_C@_0CL@GKKFOPCI@Do?5you?5want?5to?5delete?5the?5charac@ 0055671c     Game.obj
 0002:0000e750       ??_C@_0L@ENGHJJHN@__________?$AA@ 00556750     Game.obj
 0002:0000e760       ??_C@_0BB@EHCBJJFI@Delete?5Character?$AA@ 00556760     Game.obj
 0002:0000e774       ??_C@_0BP@MKJOJFJF@Try?5again?5a?5few?5minutes?5later?4?$AA@ 00556774     Game.obj
 0002:0000e79c       ??_C@_0BL@IFFCPHJO@Server?5maximum?5user?5limit?4?$AA@ 0055679c     Game.obj
 0002:0000e7bc       ??_C@_0CA@NDMOEKG@World?5server?5is?5not?5active?5now?4?$AA@ 005567bc     Game.obj
 0002:0000e7e4       ??_C@_0BM@JCDLKBNH@Try?5again?5in?5a?5few?5seconds?4?$AA@ 005567e4     Game.obj
 0002:0000e808       ??_C@_0BF@KDKFCAHC@Account?5logging?5out?4?$AA@ 00556808     Game.obj
 0002:0000e824       ??_C@_0CA@NLIIDHGJ@Keycode?5Registration?5successed?4?$AA@ 00556824     Game.obj
 0002:0000e84c       ??_C@_0BH@KMENLNHP@Keycode?5input?5Success?$CB?$AA@ 0055684c     Game.obj
 0002:0000e868       ??_C@_0BI@MBGHAHKI@Please?$CB?5Change?5password?$AA@ 00556868     Game.obj
 0002:0000e884       ??_C@_0BG@EFDLEBIP@Your?5password?5expired?$AA@ 00556884     Game.obj
 0002:0000e8a0       ??_C@_0CA@FFLKAJKJ@Please?5?$CB?5Try?5Other?5World?5Server?$AA@ 005568a0     Game.obj
 0002:0000e8c8       ??_C@_0BC@NNGFJPPA@World?5Server?5Full?$AA@ 005568c8     Game.obj
 0002:0000e8e0       ??_C@_0DF@FKGJBELO@?BI?$LM?F?$KI?O?$KF?N?$LE?A?$KN?$KN?$KEw?$LF?$LC?$KH?t?0?5?$LN?P?$KG?$NMGD2S?4gam@ 005568e0     Game.obj
 0002:0000e920       ??_C@_0BC@IODAPPIC@Not?5Enough?5Point?$CB?$AA@ 00556920     Game.obj
 0002:0000e938       ??_C@_0BO@KFPBDFGE@Block?5date?3?5Until?5?$CFdY?5?$CFdM?5?$CFdD?$AA@ 00556938     Game.obj
 0002:0000e95c       ??_C@_0CM@GCMEGKDK@You?5can?8t?5login?5because?5account?5@ 0055695c     Game.obj
 0002:0000e990       ??_C@_0BB@LCOBKJHG@Account?5blocked?4?$AA@ 00556990     Game.obj
 0002:0000e9a4       ??_C@_0BF@EKKGFGKI@Connection?5Rejected?$CB?$AA@ 005569a4     Game.obj
 0002:0000e9c0       ??_C@_0BK@GBOOINCG@is?5offline?4?5Log?5in?5later?4?$AA@ 005569c0     Game.obj
 0002:0000e9e0       ??_C@_0CK@DGCGNBAI@You?5cannot?5log?5in?5because?5the?5ga@ 005569e0     Game.obj
 0002:0000ea14       ??_C@_0L@OLKPDHIN@the?5limit?4?$AA@ 00556a14     Game.obj
 0002:0000ea24       ??_C@_0CH@MBPDNPOB@Your?5registered?5IP?5group?5have?5ex@ 00556a24     Game.obj
 0002:0000ea54       ??_C@_0CF@PDLCCCCG@registered?5IP?5or?5registered?5acco@ 00556a54     Game.obj
 0002:0000ea80       ??_C@_0CB@DKLCCIPA@log?5in?4?5You?5need?5to?5login?5in?5the@ 00556a80     Game.obj
 0002:0000eaa8       ??_C@_0CE@HNDCMCEJ@Character?5above?5trial?5level?5can?5@ 00556aa8     Game.obj
 0002:0000ead4       ??_C@_0CA@LMFMHKFB@difference?4?5Contact?5gamemaster?4?$AA@ 00556ad4     Game.obj
 0002:0000eafc       ??_C@_0CB@ENHHGHEO@You?5cannot?5login?5because?5of?5data@ 00556afc     Game.obj
 0002:0000eb24       ??_C@_0BI@EBLJCFEK@Cannot?5change?5password?4?$AA@ 00556b24     Game.obj
 0002:0000eb40       ??_C@_0BJ@FCPOGGDK@Can?5not?5change?5password?$CB?$AA@ 00556b40     Game.obj
 0002:0000eb60       ??_C@_0BO@ILLENMPF@Password?5changed?5succesfully?4?$AA@ 00556b60     Game.obj
 0002:0000eb84       ??_C@_0BC@MCOKDBPO@Password?5changed?4?$AA@ 00556b84     Game.obj
 0002:0000eb9c       ??_C@_0BK@FMDDMFNA@Character?5deleted?5safely?4?$AA@ 00556b9c     Game.obj
 0002:0000ebbc       ??_C@_0BD@HGLIAMIK@Character?5deleted?4?$AA@ 00556bbc     Game.obj
 0002:0000ebd4       ??_C@_0BO@EKOJFCFN@Enter?5another?5character?5name?4?$AA@ 00556bd4     Game.obj
 0002:0000ebf8       ??_C@_0CB@CHLEGNHC@Already?5existing?5character?5name?4@ 00556bf8     Game.obj
 0002:0000ec20       ??_C@_0BN@OKCPNCNB@Cannot?5create?5new?5character?$CB?$AA@ 00556c20     Game.obj
 0002:0000ec44       ??_C@_0BO@HICOGPPD@Can?5not?5create?5new?5character?$CB?$AA@ 00556c44     Game.obj
 0002:0000ec68       ??_C@_0BH@FOLFAHLF@New?5character?5created?4?$AA@ 00556c68     Game.obj
 0002:0000ec84       ??_C@_0BM@FACGFPPI@Enter?5another?5account?5name?4?$AA@ 00556c84     Game.obj
 0002:0000eca8       ??_C@_0BP@OOIFIBGN@Already?5existing?5account?5name?4?$AA@ 00556ca8     Game.obj
 0002:0000ecd0       ??_C@_0BL@IMIKKAAN@Cannot?5create?5new?5account?$CB?$AA@ 00556cd0     Game.obj
 0002:0000ecf0       ??_C@_0BM@GJMHJHGK@Can?5not?5create?5new?5account?$CB?$AA@ 00556cf0     Game.obj
 0002:0000ed14       ??_C@_0BM@LGNKDMGA@You?5can?5login?5with?5your?5ID?4?$AA@ 00556d14     Game.obj
 0002:0000ed38       ??_C@_0BF@CNPNJFPI@New?5account?5created?4?$AA@ 00556d38     Game.obj
 0002:0000ed54       ??_C@_0BB@GHDFCAFJ@Try?5again?5later?4?$AA@ 00556d54     Game.obj
 0002:0000ed68       ??_C@_0CF@CFFCGDDD@because?5game?5server?5isn?8t?5availa@ 00556d68     Game.obj
 0002:0000ed94       ??_C@_0CB@GPMEODI@You?5can?8t?5connect?5to?5game?5server@ 00556d94     Game.obj
 0002:0000edbc       ??_C@_0CA@COCHCGGB@Can?5not?5connect?5to?5game?5server?$CB?$AA@ 00556dbc     Game.obj
 0002:0000ede4       ??_C@_0BH@PPHNKNCA@Check?5your?5account?5ID?4?$AA@ 00556de4     Game.obj
 0002:0000ee00       ??_C@_0BG@MCJDIAOF@Non?9existing?5account?$CB?$AA@ 00556e00     Game.obj
 0002:0000ee1c       ??_C@_0BG@ECGLBLMB@Not?5existing?5account?$CB?$AA@ 00556e1c     Game.obj
 0002:0000ee38       ??_C@_0BJ@LFNMHNHK@Password?5is?5not?5correct?$CB?$AA@ 00556e38     Game.obj
 0002:0000ee58       ??_C@_0DH@KAOBJNPJ@Item?5?$CI?$CFs?5?$CFs?5?$CFs?$CJ?5?3?5has?5been?5relea@ 00556e58     Game.obj
 0002:0000ee9c       ??_C@_0CJ@KCNMMOAG@must?5be?5different?5with?5the?5previ@ 00556e9c     Game.obj
 0002:0000eed0       ??_C@_0CI@KGEPCEEK@be?5at?5least?58?5letters?4?5The?5new?5p@ 00556ed0     Game.obj
 0002:0000ef00       ??_C@_0CJ@JGFNGCAE@Enter?5your?5new?5password?4?5Passwor@ 00556f00     Game.obj
 0002:0000ef34       ??_C@_0N@HMJOMFGO@Pass?9Confirm?$AA@ 00556f34     Game.obj
 0002:0000ef44       ??_C@_08OMHMMGMH@New?9Pass?$AA@ 00556f44     Game.obj
 0002:0000ef50       ??_C@_08FJIAHGMM@Password?$AA@ 00556f50     Game.obj
 0002:0000ef5c       ??_C@_07FENCDID@Account?$AA@ 00556f5c     Game.obj
 0002:0000ef68       ??_C@_02OFIBGMBD@41?$AA@   00556f68     Game.obj
 0002:0000ef6c       ??_C@_0CL@LPGCNJMK@Would?5you?5like?5to?5withdraw?5from?5@ 00556f6c     Game.obj
 0002:0000efa0       ??_C@_0CD@GMNFGBGH@the?5party?5dismisses?5automaticall@ 00556fa0     Game.obj
 0002:0000efcc       ??_C@_0BO@DPKDFEAN@If?5the?5number?5of?5members?5is?51?$AA@ 00556fcc     Game.obj
 0002:0000eff0       ??_C@_0BP@HAOJNFHC@Your?5party?5has?5been?5dismissed?4?$AA@ 00556ff0     Game.obj
 0002:0000f018       ??_C@_0BD@NNGBHGII@if?5you?5are?5banned?4?$AA@ 00557018     Game.obj
 0002:0000f030       ??_C@_0BP@KECIFGBJ@Ask?5the?5party?5Leader?5to?5rejoin?$AA@ 00557030     Game.obj
 0002:0000f058       ??_C@_0BL@FAGHEPID@are?5banned?5from?5the?5party?4?$AA@ 00557058     Game.obj
 0002:0000f078       ??_C@_0BM@OKDGPCJA@is?5not?5in?5peace?5mode?5or?5you?$AA@ 00557078     Game.obj
 0002:0000f09c       ??_C@_0BN@NIJEKNOE@or?5you?5offered?5to?5player?5who?$AA@ 0055709c     Game.obj
 0002:0000f0c0       ??_C@_0BO@JKALDBBI@the?5case?5you?5offered?5to?5enemy?$AA@ 005570c0     Game.obj
 0002:0000f0e4       ??_C@_0BN@FLPGCICF@Maybe?5the?5player?5rejected?5or?$AA@ 005570e4     Game.obj
 0002:0000f108       ??_C@_0BN@GDBEDP@Failed?5in?5joining?5the?5party?4?$AA@ 00557108     Game.obj
 0002:0000f12c       ??_C@_0BG@OIJNPKCC@can?5play?5efficiently?4?$AA@ 0055712c     Game.obj
 0002:0000f148       ??_C@_0BN@OIKFEBBK@mode?5with?5your?5party?4?5So?5you?$AA@ 00557148     Game.obj
 0002:0000f16c       ??_C@_0BM@MIPNABPN@have?5to?5set?5the?5safe?5attack?$AA@ 0055716c     Game.obj
 0002:0000f190       ??_C@_0BP@LMNDFINK@with?5your?5party?4?5And?5you?5don?8t?$AA@ 00557190     Game.obj
 0002:0000f1b8       ??_C@_0BN@EHCBLAIG@You?5can?5share?5the?5experience?$AA@ 005571b8     Game.obj
 0002:0000f1dc       ??_C@_0BG@NJEOFDNJ@You?5joined?5the?5party?4?$AA@ 005571dc     Game.obj
 0002:0000f1f8       ??_C@_0BA@PHNECOIC@by?5logging?5out?4?$AA@ 005571f8     Game.obj
 0002:0000f20c       ??_C@_0BM@PEJJLFHI@can?5withdraw?5from?5the?5party?$AA@ 0055720c     Game.obj
 0002:0000f230       ??_C@_0BM@CLANNBGG@If?5you?5fail?5repeatedly?0?5you?$AA@ 00557230     Game.obj
 0002:0000f254       ??_C@_0CG@BKFKFLPL@Failed?5in?5withdrawing?5from?5the?5p@ 00557254     Game.obj
 0002:0000f284       ??_C@_0BN@KDMPDEGL@You?5withdrew?5from?5the?5party?4?$AA@ 00557284     Game.obj
 0002:0000f2a8       ??_C@_0CA@MJNIDIDI@You?5were?5banned?5from?5the?5party?4?$AA@ 005572a8     Game.obj
 0002:0000f2d0       ??_C@_0BG@CDHEGGGP@Please?5wait?5a?5moment?4?$AA@ 005572d0     Game.obj
 0002:0000f2ec       ??_C@_0BM@BPMLHELM@withdrawing?5from?5the?5party?4?$AA@ 005572ec     Game.obj
 0002:0000f310       ??_C@_03FNMNFHGL@Ban?$AA@  00557310     Game.obj
 0002:0000f314       ??_C@_0M@CGBBPJH@?$CFs?5?$CILeader?$CJ?$AA@ 00557314     Game.obj
 0002:0000f324       ??_C@_0BC@JEPMAEPG@Total?5Members?3?5?$CFd?$AA@ 00557324     Game.obj
 0002:0000f33c       ??_C@_0CL@LIFIJCGO@The?5character?5names?5of?5your?5part@ 0055733c     Game.obj
 0002:0000f370       ??_C@_0O@KCKNHCJB@making?5party?4?$AA@ 00557370     Game.obj
 0002:0000f380       ??_C@_0BJ@PELBMALP@until?5he?5responds?4?5Press?$AA@ 00557380     Game.obj
 0002:0000f3a0       ??_C@_0BI@JEAJAJNH@join?5party?4?5Please?5wait?$AA@ 005573a0     Game.obj
 0002:0000f3bc       ??_C@_0BA@EFAGMMNH@You?5asked?5?$CFs?5to?$AA@ 005573bc     Game.obj
 0002:0000f3d0       ??_C@_0BD@EKBAONMP@joining?5the?5party?4?$AA@ 005573d0     Game.obj
 0002:0000f3e8       ??_C@_0BI@GEOLHIHJ@cancel?5button?5to?5cancel?$AA@ 005573e8     Game.obj
 0002:0000f404       ??_C@_0BI@CNDPAKEN@you?5want?5to?5join?4?5Press?$AA@ 00557404     Game.obj
 0002:0000f420       ??_C@_0BK@CBJEKBLI@Click?5the?5character?5which?$AA@ 00557420     Game.obj
 0002:0000f440       ??_C@_0BO@GLEAIEDI@Would?5you?5like?5to?5join?5party?$DP?$AA@ 00557440     Game.obj
 0002:0000f464       ??_C@_0BE@ICHMMELI@you?5join?5the?5party?4?$AA@ 00557464     Game.obj
 0002:0000f47c       ??_C@_0BG@DKCFKNBE@the?5ratio?5of?5level?5if?$AA@ 0055747c     Game.obj
 0002:0000f498       ??_C@_0BI@OFFFIFCI@share?5the?5experience?5by?$AA@ 00557498     Game.obj
 0002:0000f4b4       ??_C@_0BI@MDOEAAOF@join?5the?5party?4?5You?5can?$AA@ 005574b4     Game.obj
 0002:0000f4d0       ??_C@_0BC@LELBJCHP@?$CFs?5offered?5you?5to?$AA@ 005574d0     Game.obj
 0002:0000f4e8       ??_C@_0P@HLBEJOIH@other?5players?4?$AA@ 005574e8     Game.obj
 0002:0000f4fc       ??_C@_0BK@PAFGOAGI@You?5can?5make?5a?5party?5with?$AA@ 005574fc     Game.obj
 0002:0000f51c       ??_C@_0BI@GGGILOBO@You?5are?5not?5in?5a?5party?4?$AA@ 0055751c     Game.obj
 0002:0000f538       ??_C@_0BP@NLNHEPIH@see?5the?5list?5of?5party?5members?4?$AA@ 00557538     Game.obj
 0002:0000f560       ??_C@_0BL@LANGGKMH@withdraw?5from?5the?5party?5or?$AA@ 00557560     Game.obj
 0002:0000f580       ??_C@_0BM@KHHENKEA@You?5are?5in?5a?5party?4?5You?5can?$AA@ 00557580     Game.obj
 0002:0000f5a4       ??_C@_0BP@DJNLFHHL@Party?5leader?5disabled?5pinging?4?$AA@ 005575a4     Game.obj
 0002:0000f5cc       ??_C@_0BO@CAPLIPAP@Party?5leader?5enabled?5pinging?4?$AA@ 005575cc     Game.obj
 0002:0000f5f0       ??_C@_0BL@OFAHFJEB@Enable?5party?5member?5pings?4?$AA@ 005575f0     Game.obj
 0002:0000f610       ??_C@_0BM@DJHNGCMH@Disable?5party?5member?5pings?4?$AA@ 00557610     Game.obj
 0002:0000f634       ??_C@_0BK@EKAFPIDH@Enable?5party?5auto?5accept?4?$AA@ 00557634     Game.obj
 0002:0000f654       ??_C@_0BL@OGDDLBBJ@Disable?5party?5auto?5accept?4?$AA@ 00557654     Game.obj
 0002:0000f674       ??_C@_0BP@NMFLFDOG@See?5the?5list?5of?5party?5members?4?$AA@ 00557674     Game.obj
 0002:0000f69c       ??_C@_0BJ@LHPAHKKM@Withdraw?5from?5the?5party?4?$AA@ 0055769c     Game.obj
 0002:0000f6bc       ??_C@_0O@MGILGJLM@Join?5a?5party?4?$AA@ 005576bc     Game.obj
 0002:0000f6cc       ??_C@_0BA@HNBBFCGN@You?5dropped?5?$CFs?4?$AA@ 005576cc     Game.obj
 0002:0000f6e0       ??_C@_0BC@DEPNPNGG@You?5dropped?5a?5?$CFs?4?$AA@ 005576e0     Game.obj
 0002:0000f6f8       ??_C@_0CF@PEBIINLP@You?5threw?5the?5?$CFs?5away?5on?5the?5gro@ 005576f8     Game.obj
 0002:0000f724       ??_C@_0CG@KPLJNNLC@Item?5?$CFs?3?5equipment?5has?5been?5rele@ 00557724     Game.obj
 0002:0000f754       ??_C@_08CJMOKNEG@Princess?$AA@ 00557754     Game.obj
 0002:0000f760       ??_C@_0CF@PPCHDHLI@You?5gave?5?$CFd?5?$CFs?5to?5Blacksmith?5Kee@ 00557760     Game.obj
 0002:0000f78c       ??_C@_03JAMCBOB@Tom?$AA@   0055778c     Game.obj
 0002:0000f790       ??_C@_0CE@JFHJCHHI@You?5gave?5?$CFd?5?$CFs?5to?5Cityhall?5Offic@ 00557790     Game.obj
 0002:0000f7bc       ??_C@_07JOIDJMBL@Kennedy?$AA@ 005577bc     Game.obj
 0002:0000f7c8       ??_C@_0CF@BJHHLADI@You?5gave?5?$CFd?5?$CFs?5to?5Guildhall?5Offi@ 005577c8     Game.obj
 0002:0000f7f4       ??_C@_07CHIMIKGG@William?$AA@ 005577f4     Game.obj
 0002:0000f800       ??_C@_0CE@KKGNJFMF@You?5gave?5?$CFd?5?$CFs?5to?5Warehouse?5Keep@ 00557800     Game.obj
 0002:0000f82c       ??_C@_06HCFJBIDE@Howard?$AA@ 0055782c     Game.obj
 0002:0000f834       ??_C@_0CH@PMMJIFBH@You?5dropped?5?$CFd?5?$CFs?4?5Unable?5to?5tra@ 00557834     Game.obj
 0002:0000f864       ??_C@_0BF@ELMIEEDE@Item?5?$CFs?3?5was?5broken?4?$AA@ 00557864     Game.obj
 0002:0000f880       ??_C@_0M@CDIHJCFF@You?5ate?5?$CFs?4?$AA@ 00557880     Game.obj
 0002:0000f890       ??_C@_0N@DNOHBLDG@You?5used?5?$CFs?4?$AA@ 00557890     Game.obj
 0002:0000f8a0       ??_C@_0BE@JJLEDCGK@Item?5?$CFs?3?5exhausted?4?$AA@ 005578a0     Game.obj
 0002:0000f8b8       ??_C@_0BE@BOCMCOKF@Item?5?$CFs?3?5exhausted?$CB?$AA@ 005578b8     Game.obj
 0002:0000f8d0       ??_C@_0P@JFKNDCID@AngelicPendant?$AA@ 005578d0     Game.obj
 0002:0000f8e8       ??_7?$basic_stringstream@DU?$char_traits@D@std@@V?$allocator@D@2@@std@@6B@ 005578e8     Game.obj
 0002:0000f8f0       ??_C@_08EPJLHIJG@bad?5cast?$AA@ 005578f0     Game.obj
 0002:0000f8fc       ??_C@_0BE@JONHPENG@map?1set?$DMT?$DO?5too?5long?$AA@ 005578fc     Game.obj
 0002:0000f918       ??_7?$_Impl_no_alloc0@U?$_Callable_obj@V?$_Bind_fty@V?$mem_fun_t@XVCGame@@@std@@U_Notforced@tr1@2@V?$_Bind1@U?$_Callable_obj@V?$mem_fun_t@XVCGame@@@std@@$0A@@tr1@std@@PAVCGame@@@42@@tr1@std@@$0A@@tr1@std@@X@tr1@std@@6B@ 00557918     Game.obj
 0002:0000f938       ??_C@_0BP@LGNPBLGA@Connecting?5to?5Server?4?4?4?5?$CF3dSec?$AA@ 00557938     Game.obj
 0002:0000f960       ??_C@_0BJ@NFGPIMKO@inrerupt?5the?5connection?$DP?$AA@ 00557960     Game.obj
 0002:0000f980       ??_C@_0BC@IPACANOC@Would?5you?5like?5to?$AA@ 00557980     Game.obj
 0002:0000f998       ??_C@_0P@KJMANIDG@Account?5in?5use?$AA@ 00557998     Game.obj
 0002:0000f9ac       ??_C@_0P@IAJENAFP@CONTENTS?2mutes?$AA@ 005579ac     Game.obj
 0002:0000f9c0       ??_C@_0BG@JHNLBOPD@CONTENTS?2mutes?2?$CFs?4txt?$AA@ 005579c0     Game.obj
 0002:0000f9dc       ??_C@_06MEPBJJFP@Remove?$AA@ 005579dc     Game.obj
 0002:0000f9e4       ??_C@_09DMDFCMCD@Mute?5list?$AA@ 005579e4     Game.obj
 0002:0000f9f0       ??_C@_0BM@PAPJHAGI@invalid?5map?1set?$DMT?$DO?5iterator?$AA@ 005579f0     Game.obj
 0002:0000fa18       __real@4052000000000000    00557a18     Game.obj
 0002:0000fa28       __real@405a400000000000    00557a28     Game.obj
 0002:0000fa34       ??_C@_03HFJGAJFE@All?$AA@  00557a34     Game.obj
 0002:0000fa38       ??_C@_02DALMIMOA@GM?$AA@   00557a38     Game.obj
 0002:0000fa3c       ??_C@_05IKNCGCHC@Party?$AA@ 00557a3c     Game.obj
 0002:0000fa44       ??_C@_05GLCACPFJ@Guild?$AA@ 00557a44     Game.obj
 0002:0000fa4c       ??_C@_06POFEFLFH@Nearby?$AA@ 00557a4c     Game.obj
 0002:0000fa54       ??_C@_04DNMLLOEA@Town?$AA@ 00557a54     Game.obj
 0002:0000fa5c       ??_C@_06JGBJPOPP@Global?$AA@ 00557a5c     Game.obj
 0002:0000fa64       ??_C@_0BC@HBAPLCCH@?$CFu?5Huntmaster?$CIs?$CJ?4?$AA@ 00557a64     Game.obj
 0002:0000fa80       ??_C@_0MI@DPAKOHJK@This?5upgrade?5allows?5the?5Guildmas@ 00557a80     Game.obj
 0002:0000fb70       ??_C@_0BG@MCMEGHAM@Huntmasters?5Level?3?5?$CFu?$AA@ 00557b70     Game.obj
 0002:0000fb8c       ??_C@_0BC@FMBHAIKN@?$CFu?5Raidmaster?$CIs?$CJ?4?$AA@ 00557b8c     Game.obj
 0002:0000fba8       ??_C@_0MA@GNGGPFFE@This?5upgrade?5allows?5the?5Guildmas@ 00557ba8     Game.obj
 0002:0000fc90       ??_C@_0BG@FHDLEJAD@Raidmasters?5Level?3?5?$CFu?$AA@ 00557c90     Game.obj
 0002:0000fcac       ??_C@_0P@EHEMAJKE@?$CFu?5Captain?$CIs?$CJ?4?$AA@ 00557cac     Game.obj
 0002:0000fcc0       ??_C@_0IM@POFODNKH@This?5upgrade?5allows?5the?5Guildmas@ 00557cc0     Game.obj
 0002:0000fd68       ??_C@_07FMBAPPNM@?$CFss?3?5?$CFu?$AA@ 00557d68     Game.obj
 0002:0000fd74       ??_C@_0BE@BJDMOJDP@Captaincy?5Level?3?5?$CFu?$AA@ 00557d74     Game.obj
 0002:0000fd8c       ??_C@_0P@NGHBFLEM@?$CFu?5item?5slots?4?$AA@ 00557d8c     Game.obj
 0002:0000fda0       ??_C@_0BE@JGLNGALJ@?$CFuM?5Gold?0?5?$CFuk?5Cont?4?$AA@ 00557da0     Game.obj
 0002:0000fdb8       ??_C@_09GDDOIEPC@Level?5?$CFu?3?$AA@ 00557db8     Game.obj
 0002:0000fdc8       ??_C@_0FG@ENJCMAIF@The?5Guild?5Warehouse?5is?5a?5shared?5@ 00557dc8     Game.obj
 0002:0000fe30       ??_C@_07CJFOONCK@Upgrade?$AA@ 00557e30     Game.obj
 0002:0000fe3c       ??_C@_0BK@PNHIPHGH@Guild?5Warehouse?5Level?3?5?$CFu?$AA@ 00557e3c     Game.obj
 0002:0000fe5c       ??_C@_0CA@GOAINAEA@Huntmasters?5?$CIlevel?3?5?$CFu?0?5?$CFu?5?$CFss?$CJ?$AA@ 00557e5c     Game.obj
 0002:0000fe84       ??_C@_0CA@EOILINIB@Raidmasters?5?$CIlevel?3?5?$CFu?0?5?$CFu?5?$CFss?$CJ?$AA@ 00557e84     Game.obj
 0002:0000feac       ??_C@_0BO@MGBBGKOG@Captaincy?5?$CIlevel?3?5?$CFu?0?5?$CFu?5?$CFss?$CJ?$AA@ 00557eac     Game.obj
 0002:0000fed0       ??_C@_0BM@OIDOBJND@Guild?5Warehouse?5?$CIlevel?3?5?$CFu?$CJ?$AA@ 00557ed0     Game.obj
 0002:0000fef4       ??_C@_04FEOMFELI@Back?$AA@ 00557ef4     Game.obj
 0002:0000fefc       ??_C@_0CD@NPEPCMLM@Click?5a?5player?8s?5rank?5to?5change?5@ 00557efc     Game.obj
 0002:0000ff28       ??_C@_03NBOPHIOC@Map?$AA@  00557f28     Game.obj
 0002:0000ff2c       ??_C@_04DMNEFAGJ@Rank?$AA@ 00557f2c     Game.obj
 0002:0000ff34       ??_C@_04FABLJDN@Name?$AA@  00557f34     Game.obj
 0002:0000ff3c       ??_C@_08NPIALNAO@Upgrades?$AA@ 00557f3c     Game.obj
 0002:0000ff48       ??_C@_0BL@OEMFLBIM@Give?5contribution?5to?5guild?$AA@ 00557f48     Game.obj
 0002:0000ff68       ??_C@_08GLNGGDPJ@DISABLED?$AA@ 00557f68     Game.obj
 0002:0000ff74       ??_C@_0BD@DOEHBGDK@Give?5gold?5to?5guild?$AA@ 00557f74     Game.obj
 0002:0000ff8c       ??_C@_0BD@BGBGOIKK@See?5online?5members?$AA@ 00557f8c     Game.obj
 0002:0000ffa4       ??_C@_09HLPFOGIP@Cont?4?3?5?$CFs?$AA@ 00557fa4     Game.obj
 0002:0000ffb0       ??_C@_08EIKPNHC@Gold?3?5?$CFs?$AA@ 00557fb0     Game.obj
 0002:0000ffbc       ??_C@_0BD@ELNJLKOD@Online?5members?3?5?$CFu?$AA@ 00557fbc     Game.obj
 0002:0000ffd4       ??_8?$basic_istream@DU?$char_traits@D@std@@@std@@7B@ 00557fd4     Game.obj
 0002:0000ffe0       ??_C@_06DJHOIPC@?$CFs?3?5?$CFs?$AA@ 00557fe0     Game.obj
 0002:0000ffe8       ??_C@_0M@DIBJNGJI@?$FL?$CFs?$FN?5?$CFs?3?5?$CFs?$AA@ 00557fe8     Game.obj
 0002:0000fff8       ??_C@_0M@MGICBHEF@?$CI?$CFs?$CJ?5?$CFs?3?5?$CFs?$AA@ 00557ff8     Game.obj
 0002:00010008       ??_C@_0BA@KAIEDICC@?$FL?$CFs?$FN?$CI?$CFs?$CJ?5?$CFs?3?5?$CFs?$AA@ 00558008     Game.obj
 0002:0001001c       ??_C@_06JHIFDACE@Armors?$AA@ 0055801c     Game.obj
 0002:00010024       ??_C@_07DNEKOHB@Weapons?$AA@ 00558024     Game.obj
 0002:00010030       ??_C@_0L@JEKEECLH@?5?$CFd?$HO?$CFd?5?$CIL?$CJ?$AA@ 00558030     Game.obj
 0002:00010040       ??_C@_0N@GCIAJKBL@?5?$CFd?$HO?$CFd?5?$CIS?9M?$CJ?$AA@ 00558040     Game.obj
 0002:00010050       ??_C@_0BD@CIOIENMI@Total?5Base?5Damage?3?$AA@ 00558050     Game.obj
 0002:00010068       ??_C@_0BD@HNPDBJKF@Total?5Dash?5Damage?3?$AA@ 00558068     Game.obj
 0002:00010080       ??_C@_0BH@HDIBJNFK@Total?5Critical?5Damage?3?$AA@ 00558080     Game.obj
 0002:0001009c       ??_C@_0BL@FDBMDAPD@?$CL?$CFd?$CF?$CF?5Ice?5Magic?5Absorption?$AA@ 0055809c     Game.obj
 0002:000100bc       ??_C@_0BM@KAEANLA@?$CL?$CFd?$CF?$CF?5Fire?5Magic?5Absorption?$AA@ 005580bc     Game.obj
 0002:000100e0       ??_C@_0BL@HIIHCJPK@?$CL?$CFd?$CF?$CF?5Air?5Magic?5Absorption?$AA@ 005580e0     Game.obj
 0002:00010100       ??_C@_0BN@IEIKAHDL@?$CL?$CFd?$CF?$CF?5Earth?5Magic?5Absorption?$AA@ 00558100     Game.obj
 0002:00010124       ??_C@_0CC@BIDKECAG@?$CFd?$CF?$CF?5Physical?5Absorption?5?$FLSHIELD@ 00558124     Game.obj
 0002:0001014c       ??_C@_0CA@NNHAFINF@?$CFd?$CF?$CF?5Physical?5Absorption?5?$FLLEGS?$FN?$AA@ 0055814c     Game.obj
 0002:00010174       ??_C@_0CA@NMJDOAPN@?$CFd?$CF?$CF?5Physical?5Absorption?5?$FLARMS?$FN?$AA@ 00558174     Game.obj
 0002:0001019c       ??_C@_0CB@MGLGHOMC@?$CFd?$CF?$CF?5Physical?5Absorption?5?$FLCHEST?$FN@ 0055819c     Game.obj
 0002:000101c4       ??_C@_0CA@HKODPAOK@?$CFd?$CF?$CF?5Physical?5Absorption?5?$FLHEAD?$FN?$AA@ 005581c4     Game.obj
 0002:000101ec       ??_C@_0BE@FJJNAGIL@?$CL?$CFd?5Magic?5Hit?5Ratio?$AA@ 005581ec     Game.obj
 0002:00010204       ??_C@_0BH@IONBMMDC@?$CL?$CFd?5Physical?5Hit?5Ratio?$AA@ 00558204     Game.obj
 0002:00010220       ??_C@_0BD@EOIAGCNE@?$CL?$CFd?$CF?$CF?5Magic?5Damage?$AA@ 00558220     Game.obj
 0002:00010238       ??_C@_0BB@IAGMJIFN@?$CL?$CFd?5Magic?5Damage?$AA@ 00558238     Game.obj
 0002:0001024c       ??_C@_0BE@MBIMFBAM@?$CL?$CFd?5Physical?5Damage?$AA@ 0055824c     Game.obj
 0002:00010264       ??_C@_0CM@FPFLHBO@The?5Guild?5?$CFs?5has?5been?5upgraded?5t@ 00558264     Game.obj
 0002:00010298       ??_C@_01KMDKNFGN@?1?$AA@   00558298     Game.obj
 0002:0001029c       ??_C@_0CH@MKLMNFOO@Referer?3?5http?3?1?1helbreathlegion?4@ 0055829c     Game.obj
 0002:000102cc       ??_C@_0CM@NFFDLHHB@Accept?3?5image?1png?0image?1?$CK?$DLq?$DN0?48?0@ 005582cc     Game.obj
 0002:00010300       ??_C@_0GH@HMJJFDME@User?9Agent?3?5Mozilla?15?40?5?$CIWindows@ 00558300     Game.obj
 0002:0001037c       ??_C@_02PCIJFNDE@?$AN?6?$AA@ 0055837c     Game.obj
 0002:00010380       ??_C@_06KICEPCA@Host?3?5?$AA@ 00558380     Game.obj
 0002:00010388       ??_C@_0M@IHFDHEJ@?5HTTP?11?41?$AN?6?$AA@ 00558388     Game.obj
 0002:00010398       ??_C@_04IBPFIGHK@GET?5?$AA@ 00558398     Game.obj
 0002:000103a0       ??_8?$basic_iostream@DU?$char_traits@D@std@@@std@@7B?$basic_ostream@DU?$char_traits@D@std@@@1@@ 005583a0     Game.obj
 0002:000103ac       ??_8?$basic_iostream@DU?$char_traits@D@std@@@std@@7B?$basic_istream@DU?$char_traits@D@std@@@1@@ 005583ac     Game.obj
 0002:000103b8       ??_C@_0BC@HMKDLFBB@?$CFd?5?9?5?$CFd?5?9?5?$CFs?5?9?5?$CFs?$AA@ 005583b8     Game.obj
 0002:000103d0       ??_C@_05PABKJLOM@Title?$AA@ 005583d0     Game.obj
 0002:000103d8       ??_C@_0BF@HPNGJAHG@?$CI2500?$CJ?5Gold?5Required?$AA@ 005583d8     Game.obj
 0002:000103f4       ??_C@_0BA@FJMMFLPC@Dungeon?5Level?52?$AA@ 005583f4     Game.obj
 0002:00010408       ??_C@_0BE@JKCKADGJ@?$CI250?$CJ?5Gold?5Required?$AA@ 00558408     Game.obj
 0002:00010420       ??_C@_0O@NKCGDIAC@Players?5Arena?$AA@ 00558420     Game.obj
 0002:00010430       ??_C@_0CB@FDKOBCEC@Would?5you?5like?5to?5teleport?5here?$DP@ 00558430     Game.obj
 0002:00010458       ??_C@_0BE@NNIGOECH@?$CI100?$CJ?5Gold?5Required?$AA@ 00558458     Game.obj
 0002:00010470       ??_C@_0CF@INJMBLND@Would?5you?5like?5to?5receive?5this?5i@ 00558470     Game.obj
 0002:0001049c       ??_C@_0BL@DDEKKBLI@Enter?5a?5new?5character?5name?$AA@ 0055849c     Game.obj
 0002:000104bc       ??_C@_02GMHACPFF@?$CFu?$AA@ 005584bc     Game.obj
 0002:000104c0       ??_C@_05NFJELHBG@Price?$AA@ 005584c0     Game.obj
 0002:000104c8       ??_C@_06LMAGPFNF@Update?$AA@ 005584c8     Game.obj
 0002:000104d0       ??_C@_0BC@CGNBJGGD@Legion?5points?3?5?$CFu?$AA@ 005584d0     Game.obj
 0002:000104e8       ??_C@_0P@IPGAHMCK@current?5quest?$DP?$AA@ 005584e8     Game.obj
 0002:000104fc       ??_C@_0BG@GJJCCHDJ@Do?5you?5want?5to?5cancel?$AA@ 005584fc     Game.obj
 0002:00010518       ??_C@_0BJ@DICLAJIG@Upgrade?5Hero?5Set?5Options?$AA@ 00558518     Game.obj
 0002:00010538       ??_C@_0CN@MIMKBKEE@Hero?8s?5Leggings?5Tier?51?5?$CIEK?5150?5?9@ 00558538     Game.obj
 0002:00010570       ??_C@_0CM@LPCPEJEE@Hero?8s?5Hauberk?5Tier?51?5?$CIEK?5100?5?9?5@ 00558570     Game.obj
 0002:000105a4       ??_C@_0CJ@NEHCGNNL@Hero?8s?5Robe?5Tier?51?5?$CIEK?5200?5?9?5Con@ 005585a4     Game.obj
 0002:000105d8       ??_C@_0DG@EDIOCKOM@Hero?8s?5Battle?9Mage?5Armor?5Tier?51?5@ 005585d8     Game.obj
 0002:00010618       ??_C@_0DE@KBNFHLON@Hero?8s?5Battle?9Mage?5Cap?5Tier?51?5?$CIE@ 00558618     Game.obj
 0002:00010658       ??_C@_0CK@HDAAOFIE@Hero?8s?5Armor?5Tier?51?5?$CIEK?5300?5?9?5Co@ 00558658     Game.obj
 0002:0001068c       ??_C@_0CI@PPHEFMMN@Hero?8s?5Cap?5Tier?51?5?$CIEK?5100?5?9?5Cont@ 0055868c     Game.obj
 0002:000106bc       ??_C@_0CJ@IFOPKNNH@Hero?8s?5Helm?5Tier?51?5?$CIEK?5150?5?9?5Con@ 005586bc     Game.obj
 0002:000106f0       ??_C@_0BF@MNKIADGO@Hero?8s?5Cape?5?$CIEK?5300?$CJ?$AA@ 005586f0     Game.obj
 0002:0001070c       ??_C@_0CL@BLGAJHGM@Here?5are?5the?5available?5Tier?51?5He@ 0055870c     Game.obj
 0002:00010740       ??_C@_0CJ@KOFFHMII@Confirm?5upgrading?5the?5selected?5h@ 00558740     Game.obj
 0002:00010774       ??_C@_0BA@EGCLNCGB@Battle?9Mage?5Set?$AA@ 00558774     Game.obj
 0002:00010788       ??_C@_08CBHEHJNH@Mage?5Set?$AA@ 00558788     Game.obj
 0002:00010794       ??_C@_0M@JIPMGMDK@Warrior?5Set?$AA@ 00558794     Game.obj
 0002:000107a4       ??_C@_0O@PGMFMKPJ@Cost?3?5?$CFd?5EK?8s?$AA@ 005587a4     Game.obj
 0002:000107b4       __real@40000000            005587b4     Game.obj
 0002:000107b8       ??_C@_0BI@LBDGLBDI@?$CL?$CFd?5Hitting?5Probability?$AA@ 005587b8     Game.obj
 0002:000107d4       ??_C@_0L@KEIONAKC@?$CL?$CFd?5Damage?$AA@ 005587d4     Game.obj
 0002:000107e4       ??_C@_0BB@IEBJKLNL@New?5Set?5Bonuses?3?$AA@ 005587e4     Game.obj
 0002:000107f8       ??_C@_0BP@OJHDDDFL@Hero?5BM?5Armor?5Tier?5?$CFd?5?$CI?$CFd?5?1?51?$CJ?$AA@ 005587f8     Game.obj
 0002:00010820       ??_C@_0BN@NLDONIPI@Hero?5BM?5Cap?5Tier?5?$CFd?5?$CI?$CFd?5?1?51?$CJ?$AA@ 00558820     Game.obj
 0002:00010844       ??_C@_0BL@DPHCHNKA@Hero?5Robe?5Tier?5?$CFd?5?$CI?$CFd?5?1?51?$CJ?$AA@ 00558844     Game.obj
 0002:00010864       ??_C@_0BK@LKKMABNF@Hero?5Cap?5Tier?5?$CFd?5?$CI?$CFd?5?1?51?$CJ?$AA@ 00558864     Game.obj
 0002:00010884       ??_C@_0CA@MOMJCEAF@Hero?5PlateMail?5Tier?5?$CFd?5?$CI?$CFd?5?1?51?$CJ?$AA@ 00558884     Game.obj
 0002:000108ac       ??_C@_0BL@NAPJIGII@Hero?5Helm?5Tier?5?$CFd?5?$CI?$CFd?5?1?51?$CJ?$AA@ 005588ac     Game.obj
 0002:000108cc       ??_C@_0BP@PPKBLIBF@Hero?5Leggings?5Tier?5?$CFd?5?$CI?$CFd?5?1?51?$CJ?$AA@ 005588cc     Game.obj
 0002:000108f4       ??_C@_0BO@IIAOODHM@Hero?5Hauberk?5Tier?5?$CFd?5?$CI?$CFd?5?1?51?$CJ?$AA@ 005588f4     Game.obj
 0002:00010918       ??_C@_0M@HMBMNKMM@HeroBMArmor?$AA@ 00558918     Game.obj
 0002:00010928       ??_C@_08BEKNGDEO@HeroRobe?$AA@ 00558928     Game.obj
 0002:00010934       ??_C@_08JDAHKLAL@HeroHelm?$AA@ 00558934     Game.obj
 0002:00010940       ??_C@_09MELPGMAG@HeroArmor?$AA@ 00558940     Game.obj
 0002:0001094c       ??_C@_0M@FAIAPGAB@HeroHauberk?$AA@ 0055894c     Game.obj
 0002:0001095c       ??_C@_0N@NMEKCFLF@HeroLeggings?$AA@ 0055895c     Game.obj
 0002:0001096c       ??_C@_0CM@CHFPOC@Items?5required?5to?5obtain?5hero?5se@ 0055896c     Game.obj
 0002:000109a0       ??_C@_06MGDAAAEN@Tier?53?$AA@ 005589a0     Game.obj
 0002:000109a8       ??_C@_06NPCLDBAM@Tier?52?$AA@ 005589a8     Game.obj
 0002:000109b0       ??_C@_0BJ@IODNCEJH@Upgrade?5Hero?5Set?5Tier?5?$CFd?$AA@ 005589b0     Game.obj
 0002:000109d0       ??_C@_0BD@GNNKFCJL@can?8t?5be?5a?5citizen?$AA@ 005589d0     Game.obj
 0002:000109e8       ??_C@_0CA@DNKKMGMM@Low?5Level?5or?5Criminal?5Character?$AA@ 005589e8     Game.obj
 0002:00010a10       ??_C@_0CB@DHILJBMO@Failed?5on?5acquiring?5citizenship?$CB@ 00558a10     Game.obj
 0002:00010a38       ??_C@_0CL@LHMKCGLD@Congratulations?$CB?$CB?5You?5acquired?5C@ 00558a38     Game.obj
 0002:00010a6c       ??_C@_0BI@BLJKCJLJ@Offering?5Citizenship?4?4?4?$AA@ 00558a6c     Game.obj
 0002:00010a88       ??_C@_0BF@DMHNBBPB@citizen?5of?5our?5town?$DP?$AA@ 00558a88     Game.obj
 0002:00010aa4       ??_C@_0BI@GNPFPAHB@and?5responsibility?5as?5a?$AA@ 00558aa4     Game.obj
 0002:00010ac0       ??_C@_0BH@DDFGCCKI@Would?5you?5do?5your?5duty?$AA@ 00558ac0     Game.obj
 0002:00010adc       ??_C@_0BB@MHENDDFB@join?5any?5guilds?4?$AA@ 00558adc     Game.obj
 0002:00010af0       ??_C@_0CB@LLJGBDMK@can?5get?5prize?5gold?4?5You?5can?5also@ 00558af0     Game.obj
 0002:00010b18       ??_C@_0CH@HIHDPOLK@repelling?5enemies?5of?5opposing?5ci@ 00558b18     Game.obj
 0002:00010b48       ??_C@_0CF@BNLIKMIL@which?5are?5produced?5in?5town?4?5Also@ 00558b48     Game.obj
 0002:00010b74       ??_C@_0CG@CBHIKFFE@You?5can?5buy?5and?5sell?5almost?5all?5@ 00558b74     Game.obj
 0002:00010ba4       ??_C@_0CH@PKNKEOFA@restriction?5as?5a?5traveller?5is?5re@ 00558ba4     Game.obj
 0002:00010bd4       ??_C@_0CD@HPGIEHJI@If?5you?5become?5a?5citizen?0?5the?5lev@ 00558bd4     Game.obj
 0002:00010c00       ??_C@_0BJ@JDKIIEFK@Select?5an?5Item?5you?5want?4?$AA@ 00558c00     Game.obj
 0002:00010c20       ??_C@_0BO@IJCCAOKL@Change?5the?5part?5of?5total?5war?4?$AA@ 00558c20     Game.obj
 0002:00010c44       ??_C@_0N@KJEJCHKH@Slayer?5Items?$AA@ 00558c44     Game.obj
 0002:00010c54       ??_C@_0BF@MHIMAINN@Convert?5Contribution?$AA@ 00558c54     Game.obj
 0002:00010c70       ??_C@_0M@HIALFOGJ@Quest?5List?4?$AA@ 00558c70     Game.obj
 0002:00010c80       ??_C@_0P@CKPOLNOC@Teleport?5List?4?$AA@ 00558c80     Game.obj
 0002:00010c94       ??_C@_0BI@JHLKIOPK@Legion?5points?5services?4?$AA@ 00558c94     Game.obj
 0002:00010cb0       ??_C@_0BC@DPIJIPIE@Cancel?5the?5Quest?4?$AA@ 00558cb0     Game.obj
 0002:00010cc8       ??_C@_0BL@JPMJIMMG@Trade?5EK?8s?5For?5Hero?5items?4?$AA@ 00558cc8     Game.obj
 0002:00010ce8       ??_C@_0BC@BGAJJLGI@Contribution?5Shop?$AA@ 00558ce8     Game.obj
 0002:00010d00       ??_C@_0BF@DDGMCMFC@Citizenship?5request?4?$AA@ 00558d00     Game.obj
 0002:00010d1c       ??_C@_0BC@IBEHADPL@Change?5Your?5Title?$AA@ 00558d1c     Game.obj
 0002:00010d34       ??_C@_0BI@NDLHDBJG@?$CFs?5?$CC?$CFs?$CC?5has?5logged?5out?4?$AA@ 00558d34     Game.obj
 0002:00010d50       ??_C@_0CF@FEHCHKGF@?$CFs?8s?5rank?5was?5changed?5from?5?$CFs?5to@ 00558d50     Game.obj
 0002:00010d7c       ??_C@_0BH@ONDEJJOH@?$CFs?5?$CC?$CFs?$CC?5has?5logged?5on?4?$AA@ 00558d7c     Game.obj
 0002:00010d98       ??_C@_0CF@HBFPLAPC@Your?5rank?5was?5changed?5from?5?$CFs?5to@ 00558d98     Game.obj
 0002:00010dc4       ??_C@_0CG@GBOLFJIB@The?5guild?5warehouse?5cannot?5be?5lo@ 00558dc4     Game.obj
 0002:00010df4       ??_8?$basic_stringstream@DU?$char_traits@D@std@@V?$allocator@D@2@@std@@7B?$basic_ostream@DU?$char_traits@D@std@@@1@@ 00558df4     Game.obj
 0002:00010e00       ??_8?$basic_stringstream@DU?$char_traits@D@std@@V?$allocator@D@2@@std@@7B?$basic_istream@DU?$char_traits@D@std@@@1@@ 00558e00     Game.obj
 0002:00010e0c       ??_C@_0P@HPJPHKHN@EK?5?$CFd?5?1?5NPC?5?$CFd?$AA@ 00558e0c     Game.obj
 0002:00010e20       ??_C@_05LCKIIOJE@?$CFd?1?$CFd?$AA@ 00558e20     Game.obj
 0002:00010e28       ??_C@_0P@LGNOJIJA@?$CF3?42f?5?1?5100?400?$AA@ 00558e28     Game.obj
 0002:00010e3c       ??_C@_0L@PGAOILPK@?5Combatant?$AA@ 00558e3c     Game.obj
 0002:00010e4c       ??_C@_0BD@KDBBDHJH@Contribution?5?$CI?$CFd?$CJ?5?$AA@ 00558e4c     Game.obj
 0002:00010e64       ??_C@_0O@GEOCCBKL@Criminal?5?$CI?$CFd?$CJ?$AA@ 00558e64     Game.obj
 0002:00010e74       ??_C@_03MCPBMLDJ@?5?3?5?$AA@ 00558e74     Game.obj
 0002:00010e78       ??_C@_08MAIAGND@2?5hours?4?$AA@ 00558e78     Game.obj
 0002:00010e84       ??_C@_0M@DPFOHNBK@30?5minutes?4?$AA@ 00558e84     Game.obj
 0002:00010e94       ??_C@_0M@NDGFODIF@10?5minutes?4?$AA@ 00558e94     Game.obj
 0002:00010ea4       ??_C@_0CG@EPPEDICC@An?5unknown?5event?5will?5be?5startin@ 00558ea4     Game.obj
 0002:00010ed4       ??_C@_0P@BBEFBPNE@The?5portal?5to?5?$AA@ 00558ed4     Game.obj
 0002:00010ee8       ??_C@_0BC@EJEMEMKA@?5will?5be?5open?5in?5?$AA@ 00558ee8     Game.obj
 0002:00010f00       ??_C@_04NBEEJDGM@The?5?$AA@ 00558f00     Game.obj
 0002:00010f08       ??_C@_0BG@KKBGNNIN@?5will?5be?5starting?5in?5?$AA@ 00558f08     Game.obj
 0002:00010f24       ??_C@_02OEGCOFLI@A?5?$AA@  00558f24     Game.obj
 0002:00010f28       ??_C@_0BM@JCPKDDEC@?5event?5will?5be?5starting?5in?5?$AA@ 00558f28     Game.obj
 0002:00010f4c       ??_C@_0DP@FEGCLLEK@Character?5?$CFs?5has?5been?5released?5f@ 00558f4c     Game.obj
 0002:00010f9c       ??_7CGame@@6B@             00558f9c     Game.obj
 0002:00010fa4       ??_C@_0BP@CDJHEBON@Quest?5Count?5is?5now?5turned?5off?4?$AA@ 00558fa4     Game.obj
 0002:00010fcc       ??_C@_0BO@KEEDMLIN@Quest?5Count?5is?5now?5turned?5on?4?$AA@ 00558fcc     Game.obj
 0002:00010ff0       ??_C@_0L@LLINKIIG@?1showquest?$AA@ 00558ff0     Game.obj
 0002:00011000       ??_C@_0DF@IDFLIPLC@The?5character?8s?5name?5you?5want?5to@ 00559000     Game.obj
 0002:00011040       ??_C@_0DL@IOLLOAAE@Character?5?$CFs?5has?5been?5listed?5on?5@ 00559040     Game.obj
 0002:00011088       ??_C@_0CE@ILBOICDO@You?5can?8t?5refuse?5your?5own?5messag@ 00559088     Game.obj
 0002:000110b4       ??_C@_0BK@HFLDBKPD@Unable?5to?5chat?5in?5public?4?$AA@ 005590b4     Game.obj
 0002:000110d4       ??_C@_0BK@NPOBEBIL@Enable?5to?5chat?5in?5public?4?$AA@ 005590d4     Game.obj
 0002:000110f4       ??_C@_0BO@BBNIFJKI@Unable?5to?5listen?5to?5whispers?4?$AA@ 005590f4     Game.obj
 0002:00011118       ??_C@_0BO@GBDEGFKK@Enable?5to?5listen?5to?5whispers?4?$AA@ 00559118     Game.obj
 0002:0001113c       ??_C@_0BE@FJNFFJGF@?1enabletogglescreen?$AA@ 0055913c     Game.obj
 0002:00011154       ??_C@_0DH@IAFDAFMN@Items?5will?5now?5be?5manually?5chose@ 00559154     Game.obj
 0002:00011198       ??_C@_0DM@EHIIJJLM@Items?5will?5now?5be?5automatically?5@ 00559198     Game.obj
 0002:000111e0       ??_C@_09ELPBIOED@?1manufill?$AA@ 005591e0     Game.obj
 0002:000111ec       ??_C@_0DI@FFKAABHC@Notification?5of?5your?5name?5outsid@ 005591ec     Game.obj
 0002:00011230       ??_C@_0EB@EPDMOJJN@You?5will?5now?5be?5notified?5outside@ 00559230     Game.obj
 0002:00011280       ??_C@_09FAFFCHDF@?1notifyme?$AA@ 00559280     Game.obj
 0002:0001128c       ??_C@_0DD@OHJIPKJ@Auto?5screenshot?5upon?5Enemy?5kill?5@ 0055928c     Game.obj
 0002:000112cc       ??_C@_0DC@EIGCACHC@Auto?5screenshot?5upon?5Enemy?5kill?5@ 005592cc     Game.obj
 0002:00011308       ??_C@_0O@EHKOFNCE@?1ekscreenshot?$AA@ 00559308     Game.obj
 0002:00011318       ??_C@_0CI@CHEDPJBK@Items?5on?5ground?5are?5now?5shown?5as@ 00559318     Game.obj
 0002:00011348       ??_C@_0CI@DOIHIEJK@Items?5on?5ground?5are?5now?5shown?5as@ 00559348     Game.obj
 0002:00011378       ??_C@_09DKEPMCOH@?1bigitems?$AA@ 00559378     Game.obj
 0002:00011384       ??_C@_0CH@GHKJKDKD@Damage?5is?5now?5shown?5one?5after?5an@ 00559384     Game.obj
 0002:000113b4       ??_C@_0CH@JPPNAAOC@Damage?5is?5now?5shown?5by?5groups?5of@ 005593b4     Game.obj
 0002:000113e4       ??_C@_0M@LOPCAMOI@?1showalldmg?$AA@ 005593e4     Game.obj
 0002:000113f4       ??_C@_09KPGJBHPJ@?1showgrid?$AA@ 005593f4     Game.obj
 0002:00011400       ??_C@_0CN@IOOBCDNJ@Time?5stamping?5on?5messages?5is?5now@ 00559400     Game.obj
 0002:00011438       ??_C@_0CM@LFKJLJOH@Time?5stamping?5on?5messages?5is?5now@ 00559438     Game.obj
 0002:0001146c       ??_C@_0L@HBFAHJLE@?1timestamp?$AA@ 0055946c     Game.obj
 0002:0001147c       ??_C@_09OBOGOEFC@?1questlog?$AA@ 0055947c     Game.obj
 0002:00011488       ??_C@_09BBCDLDKI@?1showtime?$AA@ 00559488     Game.obj
 0002:00011494       ??_C@_0L@NNHNHMII@?1showframe?$AA@ 00559494     Game.obj
 0002:000114a4       ??_C@_0BF@CJBCKMGP@?5?5?5?5?5?5?5?5?5?5?5?5?5?5?5?5?5?5?5?5?$AA@ 005594a4     Game.obj
 0002:000114c0       ??_C@_0BF@GKCLBHOB@GuildSecessionTicket?$AA@ 005594c0     Game.obj
 0002:000114dc       ??_C@_0BF@ODHGDLIP@GuildAdmissionTicket?$AA@ 005594dc     Game.obj
 0002:000114f8       ??_C@_07LPDBDIGK@Casting?$AA@ 005594f8     Game.obj
 0002:00011504       ??_C@_0BG@HJJJLPKP@KURURURURURURURURU?$CB?$CB?$CB?$AA@ 00559504     Game.obj
 0002:00011520       ??_C@_0CK@PIIGJOIL@Stone?5of?5Xelima?5or?5Merien?5is?5not@ 00559520     Game.obj
 0002:00011554       ??_C@_0BG@OELMMHML@RetrieveItemHandler?52?$AA@ 00559554     Game.obj
 0002:00011570       ??_C@_0BB@DGEBNHIE@You?5took?5out?5?$CFs?4?$AA@ 00559570     Game.obj
 0002:00011584       ??_C@_0BG@MPJBJEAI@RetrieveItemHandler?51?$AA@ 00559584     Game.obj
 0002:000115a0       ??_C@_0N@HNBNPJKK@?1tp?5?$CFs?5?$CFu?5?$CFu?$AA@ 005595a0     Game.obj
 0002:000115b0       ??_C@_09DPIADIHE@?5Criminal?$AA@ 005595b0     Game.obj
 0002:000115bc       ??_C@_05DNIIFBMG@?$CFs?5?$CFs?$AA@ 005595bc     Game.obj
 0002:000115c4       ??_C@_05EHMBKEBF@?$DP?$DP?$DP?$DP?$DP?$AA@ 005595c4     Game.obj
 0002:000115cc       ??_C@_0P@LAOCMJDP@?0?5Party?5Member?$AA@ 005595cc     Game.obj
 0002:000115e0       ??_C@_09GBMHKGMF@Mercenary?$AA@ 005595e0     Game.obj
 0002:000115ec       ??_C@_0BJ@GKIFGEBC@Stopped?5using?5the?5skill?4?$AA@ 005595ec     Game.obj
 0002:0001160c       ??_C@_0CC@DCJPMONK@You?5already?5reserved?5other?5arena@ 0055960c     Game.obj
 0002:00011634       ??_C@_0BD@FKFOEOBO@in?5odd?5number?5day?4?$AA@ 00559634     Game.obj
 0002:0001164c       ??_C@_0CE@LBAJNEFL@number?5day?4?5Elvine?5can?5use?51?53?55@ 0055964c     Game.obj
 0002:00011678       ??_C@_0CG@HJKEKPNJ@Aresden?5can?5use?52?54?56?58?5arena?5in@ 00559678     Game.obj
 0002:000116a8       ??_C@_0BH@CFMAKHFH@Please?5try?5other?5one?4?4?$AA@ 005596a8     Game.obj
 0002:000116c4       ??_C@_0CD@CFFMOJEN@This?5arena?5is?5not?5available?5toda@ 005596c4     Game.obj
 0002:000116f0       ??_C@_0BG@LCADECNP@Reserving?5an?5arena?4?4?4?$AA@ 005596f0     Game.obj
 0002:0001170c       ??_C@_0CM@FGCFLNHG@You?5don?8t?5have?5enough?5gold?5for?5r@ 0055970c     Game.obj
 0002:00011740       ??_C@_0BK@NPMMNKD@Please?5select?5other?5one?4?4?$AA@ 00559740     Game.obj
 0002:00011760       ??_C@_0CE@PFCAPPBO@Selected?5arena?5is?5already?5reserv@ 00559760     Game.obj
 0002:0001178c       ??_C@_0BL@HFIHFNIK@Please?5try?5it?5again?5later?4?$AA@ 0055978c     Game.obj
 0002:000117ac       ??_C@_0CP@PIGFEJBD@This?5is?5not?5the?5available?5time?5f@ 005597ac     Game.obj
 0002:000117e4       ??_C@_06MBIBBLCM@arena?4?$AA@ 005597e4     Game.obj
 0002:000117ec       ??_C@_0BK@GDCPLMLL@You?5can?5not?5reserve?5other?$AA@ 005597ec     Game.obj
 0002:0001180c       ??_C@_0BI@IGHICMJM@You?5reserved?5the?5arena?4?$AA@ 0055980c     Game.obj
 0002:00011828       ??_C@_0BK@HNEFGLBC@and?5you?5can?5use?5arena?5for?$AA@ 00559828     Game.obj
 0002:00011848       ??_C@_0BL@CABDCDNK@be?5able?5to?5get?550?5tickets?0?$AA@ 00559848     Game.obj
 0002:00011868       ??_C@_0BK@KBKDEMLC@want?5to?5reserve?4?5You?5will?$AA@ 00559868     Game.obj
 0002:00011888       ??_C@_0BJ@ODLGPGFH@Click?5the?5arena?5that?5you?$AA@ 00559888     Game.obj
 0002:000118a8       ??_C@_0BI@BENGBAJA@a?5reservation?5of?5arena?4?$AA@ 005598a8     Game.obj
 0002:000118c4       ??_C@_0BK@LIGHODJ@It?5takes?51500gold?5to?5make?$AA@ 005598c4     Game.obj
 0002:000118e4       ??_C@_0CE@BIPGMDBC@You?5bought?5a?5guild?5secession?5pap@ 005598e4     Game.obj
 0002:00011910       ??_C@_0BD@HAEMHAOO@to?5your?5secession?4?$AA@ 00559910     Game.obj
 0002:00011928       ??_C@_0CC@JMBDINK@The?5price?5for?5the?5guild?5secessio@ 00559928     Game.obj
 0002:00011950       ??_C@_0CE@ONGFJELM@You?5bought?5the?5guild?5joining?5pap@ 00559950     Game.obj
 0002:0001197c       ??_C@_0BE@FBFIMMOH@Do?5you?5want?5to?5buy?$DP?$AA@ 0055997c     Game.obj
 0002:00011994       ??_C@_0BI@EPLDEEJE@decide?5to?5your?5joining?4?$AA@ 00559994     Game.obj
 0002:000119b0       ??_C@_0CH@GMHPJAHI@of?5the?5guild?5you?5want?5to?5join?4?5H@ 005599b0     Game.obj
 0002:000119e0       ??_C@_0CH@EBAKOEPD@paper?5is?550Gold?4?5Give?5it?5to?5the?5@ 005599e0     Game.obj
 0002:00011a10       ??_C@_0CG@JMGPFFMB@The?5price?5for?5the?5guild?5joining?5@ 00559a10     Game.obj
 0002:00011a40       ??_C@_0BP@EKLGOPOI@Failed?5on?5dismission?5of?5guild?4?$AA@ 00559a40     Game.obj
 0002:00011a68       ??_C@_0BO@FLHCMGMH@Your?5guild?5has?5been?5dismissed?$AA@ 00559a68     Game.obj
 0002:00011a8c       ??_C@_0BJ@ELPJNFMO@Breaking?5up?5the?5guild?4?4?4?$AA@ 00559a8c     Game.obj
 0002:00011aac       ??_C@_0CB@OHKFMCKH@will?5be?5dismissed?5automatically?4@ 00559aac     Game.obj
 0002:00011ad4       ??_C@_0CA@JNKPLLCG@be?5lost?4?5And?5your?5guild?5members?$AA@ 00559ad4     Game.obj
 0002:00011afc       ??_C@_0CA@POOAGCBA@orization?5as?5a?5GuildMaster?5will?$AA@ 00559afc     Game.obj
 0002:00011b24       ??_C@_0CB@FCGBLIHC@Break?5up?5your?5guild?4?5Your?5auth?9?5@ 00559b24     Game.obj
 0002:00011b4c       ??_C@_0BC@CJCJCPAB@Guild?5dismission?3?$AA@ 00559b4c     Game.obj
 0002:00011b64       ??_C@_0BL@GAHJIPNC@Guild?5name?5already?5exists?4?$AA@ 00559b64     Game.obj
 0002:00011b84       ??_C@_0BO@KHICOFPE@Failed?5on?5making?5a?5new?5guild?4?$AA@ 00559b84     Game.obj
 0002:00011ba8       ??_C@_0BH@DGJOMMML@You?5are?5a?5GuildMaster?4?$AA@ 00559ba8     Game.obj
 0002:00011bc4       ??_C@_0BG@MBIGHAHA@A?5new?5guild?5was?5made?4?$AA@ 00559bc4     Game.obj
 0002:00011be0       ??_C@_0BG@MDJGAAIH@Making?5a?5new?5guild?4?4?4?$AA@ 00559be0     Game.obj
 0002:00011bfc       ??_C@_0BH@PFOFEDHC@Enter?5a?5new?5guild?5name?$AA@ 00559bfc     Game.obj
 0002:00011c18       ??_C@_0BL@EMLLNOHF@?$CK?5Select?5an?5Item?5you?5want?4?$AA@ 00559c18     Game.obj
 0002:00011c38       ??_C@_0BH@BKIINONO@Get?5an?5entrance?5ticket?$AA@ 00559c38     Game.obj
 0002:00011c54       ??_C@_0BC@BDHNDFIG@Reserve?5the?5arena?$AA@ 00559c54     Game.obj
 0002:00011c6c       ??_C@_0BO@CODEOJ@Buy?5a?5guild?5withdrawal?5ticket?$AA@ 00559c6c     Game.obj
 0002:00011c90       ??_C@_0BN@KMBNGPCN@Buy?5a?5guild?5admission?5ticket?$AA@ 00559c90     Game.obj
 0002:00011cb4       ??_C@_0BE@MPIMKMHG@Break?5up?5your?5guild?$AA@ 00559cb4     Game.obj
 0002:00011ccc       ??_C@_0BP@MJBABBNO@Make?5a?5new?5guild?5?$CI20?5Charisma?$CJ?$AA@ 00559ccc     Game.obj
 0002:00011cf4       ??_C@_0BI@ILHBJPHH@Failed?5on?5manufacture?4?4?$AA@ 00559cf4     Game.obj
 0002:00011d10       ??_C@_0CD@MBJEHNAA@The?5completion?5of?5product?5is?5?$CFd?$CF@ 00559d10     Game.obj
 0002:00011d3c       ??_C@_0BP@OFEMAJOE@The?5purity?5of?5product?5is?5?$CFd?$CF?$CF?4?$AA@ 00559d3c     Game.obj
 0002:00011d64       ??_C@_0BJ@MOKLFEPK@?5Success?5in?5manufacture?$CB?$AA@ 00559d64     Game.obj
 0002:00011d84       ??_C@_0CI@PHJKJAIH@Please?5wait?5until?5manufacture?5fi@ 00559d84     Game.obj
 0002:00011db4       ??_C@_0BN@MMKCHBAG@?5Manufacturing?5the?5items?4?4?4?4?$AA@ 00559db4     Game.obj
 0002:00011dd8       ??_C@_0BD@FEGKDDDO@displayed?5in?5grey?4?$AA@ 00559dd8     Game.obj
 0002:00011df0       ??_C@_0CC@KEHCOHOH@manufacture?4?5Needed?5materials?5ar@ 00559df0     Game.obj
 0002:00011e18       ??_C@_0CF@LOCKJKAP@?5There?5are?5not?5enough?5ingredient@ 00559e18     Game.obj
 0002:00011e44       ??_C@_0M@GEMPNCML@Manufacture?$AA@ 00559e44     Game.obj
 0002:00011e54       ??_C@_0BL@HGGMEEAL@to?5manufacture?5above?5item?4?$AA@ 00559e54     Game.obj
 0002:00011e74       ??_C@_0CD@EGHKAFHH@dragging?5ingredients?5in?5the?5blan@ 00559e74     Game.obj
 0002:00011ea0       ??_C@_0CA@OEKONLBE@?5Click?5MANUFACTURE?5button?5after?$AA@ 00559ea0     Game.obj
 0002:00011ec8       ??_C@_0BE@GJHFDEJN@Ingredients?5Needed?3?$AA@ 00559ec8     Game.obj
 0002:00011ee0       ??_C@_0BD@BMPLDOAO@Skill?5level?3?5?$CFd?1?$CFd?$AA@ 00559ee0     Game.obj
 0002:00011ef8       ??_C@_0BG@MCOCLOHP@Automatic?5filling?5is?5?$AA@ 00559ef8     Game.obj
 0002:00011f14       ??_C@_0CI@BFEGLKFK@Select?5an?5item?5you?5want?5to?5manuf@ 00559f14     Game.obj
 0002:00011f44       ??_C@_0BH@EMCGHKEH@be?5displayed?5in?5blue?4?5?$AA@ 00559f44     Game.obj
 0002:00011f60       ??_C@_0CG@PDNBOFMA@make?5now?5with?5your?5current?5stuff@ 00559f60     Game.obj
 0002:00011f90       ??_C@_0CG@OPKCBKL@your?5current?5skill?4?5The?5items?5yo@ 00559f90     Game.obj
 0002:00011fc0       ??_C@_0CH@NLKHCKEF@?5List?5of?5items?5which?5you?5can?5mak@ 00559fc0     Game.obj
 0002:00011ff0       ??_C@_04FCMNJMCO@?$CFd?$CF?$CF?$AA@ 00559ff0     Game.obj
 0002:00011ff8       ??_C@_09HGENNEPJ@Max?4Skill?$AA@ 00559ff8     Game.obj
 0002:00012004       ??_C@_0M@EPKOAEJB@Creating?4?4?4?$AA@ 0055a004     Game.obj
 0002:00012014       ??_C@_0DH@MDMAEAHF@You?5can?8t?5release?5equipment?5whil@ 0055a014     Game.obj
 0002:00012058       ??_C@_0N@JLLHMJNN@BANK?$FL?$CFd?$FN?3?5?$CFs?$AA@ 0055a058     Game.obj
 0002:00012068       ??_C@_0DH@KNBDHNEI@You?5cannot?5withdraw?5the?5item?5bec@ 0055a068     Game.obj
 0002:000120ac       ??_C@_0BH@POEPKPNF@Attempting?5to?5Fish?4?4?4?4?$AA@ 0055a0ac     Game.obj
 0002:000120c8       ??_C@_0DC@KFKMAMMF@You?5cannot?5buy?5anything?5because?5@ 0055a0c8     Game.obj
 0002:00012104       ??_C@_0CM@NIIKHLKH@You?5can?8t?5use?5a?5skill?5while?5you?5@ 0055a104     Game.obj
 0002:00012138       ??_C@_0CD@EEKLFIKL@You?5are?5already?5using?5other?5skil@ 0055a138     Game.obj
 0002:00012164       ??_C@_0P@LNCDPIGG@You?5got?5?$CFd?5?$CFs?4?$AA@ 0055a164     Game.obj
 0002:00012178       ??_C@_0O@CLJMEAOF@You?5got?5a?5?$CFs?4?$AA@ 0055a178     Game.obj
 0002:00012188       ??_C@_0BO@GIEMAKBC@You?5bought?5a?5?$CFs?5with?5?$CFd?5Gold?4?$AA@ 0055a188     Game.obj
 0002:000121ac       ??_C@_0DF@GPDMDJAM@to?5start?5again?0?5or?5click?5the?5Log@ 0055a1ac     Game.obj
 0002:000121ec       ??_C@_0DJ@NHHLEKIC@You?5have?5died?$CB?5?5Click?5the?5restar@ 0055a1ec     Game.obj
 0002:00012230       ??_C@_0N@BHECDMDA@?5?$CK?5Failed?$CB?5?$CK?$AA@ 0055a230     Game.obj
 0002:00012240       ??_C@_04OLONAODB@Crit?$AA@ 0055a240     Game.obj
 0002:00012248       ??_C@_03LDPEHNKI@?9?$CFd?$AA@ 0055a248     Game.obj
 0002:0001224c       ??_C@_07JPMJJGCJ@?$CFs?9Crit?$AA@ 0055a24c     Game.obj
 0002:00012258       ??_C@_05MKGBANIN@?$CFs?9?$CFd?$AA@ 0055a258     Game.obj
 0002:00012260       ??_C@_09NPIPGLBP@Critical?$CB?$AA@ 0055a260     Game.obj
 0002:0001226c       ??_C@_05NNKKPINH@Crit?$CB?$AA@ 0055a26c     Game.obj
 0002:00012274       ??_C@_04FECBMKEE@?9?$CFd?$CB?$AA@ 0055a274     Game.obj
 0002:0001227c       ??_C@_08MOLCEEBJ@?$CFs?9Crit?$CB?$AA@ 0055a27c     Game.obj
 0002:00012288       ??_C@_06BPFMILHD@?$CFs?9?$CFd?$CB?$AA@ 0055a288     Game.obj
 0002:00012290       ??_C@_03JDHPLMAF@?$CFs?$CB?$AA@ 0055a290     Game.obj
 0002:00012294       ??_C@_0BJ@MNDDHCG@Converted?5to?5peace?5mode?4?$AA@ 0055a294     Game.obj
 0002:000122b4       ??_C@_0BK@CACEBPEI@Converted?5to?5attack?5mode?4?$AA@ 0055a2b4     Game.obj
 0002:000122d4       ??_C@_0CD@JDMFIONL@Construction?5area?5set?5related?5he@ 0055a2d4     Game.obj
 0002:00012300       ??_C@_0CI@CNIOALMP@Select?5the?5construction?5area?5and@ 0055a300     Game.obj
 0002:00012330       ??_C@_09HJKBMBCP@Hold?5Mode?$AA@ 0055a330     Game.obj
 0002:0001233c       ??_C@_0L@DCCBOFNK@Guard?5Mode?$AA@ 0055a33c     Game.obj
 0002:0001234c       ??_C@_0CG@MDHCCPLD@To?5see?5the?5content?5press?5help?5bu@ 0055a34c     Game.obj
 0002:0001237c       ??_C@_0CD@GBBDHMFG@Click?5the?5unit?5icon?4?5More?5detail@ 0055a37c     Game.obj
 0002:000123a8       ??_C@_0DB@GBIINHKG@Select?5the?5unit?5to?5recall?5and?5se@ 0055a3a8     Game.obj
 0002:000123e4       ??_C@_0BK@OCMOKBEP@God?8s?5Hand?5Knight?5Cavalry?$AA@ 0055a3e4     Game.obj
 0002:00012404       ??_C@_0CC@CBAODLIF@Warfare?5units?5recall?5related?5hel@ 0055a404     Game.obj
 0002:0001242c       ??_C@_0CF@NODPJLOI@Returns?5to?5the?5commander?8s?5main?5@ 0055a42c     Game.obj
 0002:00012458       ??_C@_0BL@BBOLCFAO@Self?5protect?5location?5mode?$AA@ 0055a458     Game.obj
 0002:00012478       ??_C@_0CB@JEHOCNKI@Follows?5the?5owner?5in?5a?5safe?5mode@ 0055a478     Game.obj
 0002:000124a0       ??_C@_0BC@BLDEPOFM@Recall?5point?51500?$AA@ 0055a4a0     Game.obj
 0002:000124b8       ??_C@_0BC@CMOKAOGO@Recall?5point?51000?$AA@ 0055a4b8     Game.obj
 0002:000124d0       ??_C@_0BC@GLEKHELO@Recall?5point?52000?$AA@ 0055a4d0     Game.obj
 0002:000124e8       ??_C@_0BC@FGCKFNAO@Recall?5point?53000?$AA@ 0055a4e8     Game.obj
 0002:00012500       ??_C@_05DIALNFFA@?$CFs?5?$CFd?$AA@ 0055a500     Game.obj
 0002:00012508       ??_C@_0BF@HJENBHML@Actual?5recall?5point?3?$AA@ 0055a508     Game.obj
 0002:00012524       ??_C@_0CB@HNLOLFMG@Teleport?5move?5possibilities?5help@ 0055a524     Game.obj
 0002:0001254c       ??_C@_0CI@LCBDJOAL@Teleport?5confirmation?$CIClick?5once@ 0055a54c     Game.obj
 0002:0001257c       ??_C@_0BL@KMNOFGGP@Teleport?5location?5set?5help?$AA@ 0055a57c     Game.obj
 0002:0001259c       ??_C@_0CB@MOIHGCGB@Returns?5to?5commander?8s?5main?5menu@ 0055a59c     Game.obj
 0002:000125c4       ??_C@_0CI@INEAMNNL@Click?5and?5select?5the?5teleport?5lo@ 0055a5c4     Game.obj
 0002:000125f4       ??_C@_0BG@HMNILMA@Commander?8s?5duty?5help?$AA@ 0055a5f4     Game.obj
 0002:00012610       ??_C@_0CF@LACGDKCC@Middleland?5construction?5building@ 0055a610     Game.obj
 0002:0001263c       ??_C@_0BF@CGJEDEMC@Recall?5warfare?5units?$AA@ 0055a63c     Game.obj
 0002:00012658       ??_C@_0BO@DBAGJIMD@Teleport?5to?5the?5selected?5area?$AA@ 0055a658     Game.obj
 0002:0001267c       ??_C@_0CB@PHCDCEKB@Middleland?5teleport?5position?5set@ 0055a67c     Game.obj
 0002:000126a4       ??_C@_0DA@MCCKECFL@Middleland?5warfare?5building?5stru@ 0055a6a4     Game.obj
 0002:000126e0       ??_C@_0CF@KHIMANGG@Commander?5sets?5the?5teleport?5posi@ 0055a6e0     Game.obj
 0002:0001270c       ??_C@_0BI@PLEILBAO@Constructor?8s?5duty?5help?$AA@ 0055a70c     Game.obj
 0002:00012728       ??_C@_0CO@IHPKPCGI@Construction?5unavailable?3?5Unable@ 0055a728     Game.obj
 0002:00012760       ??_C@_0CF@NCMFBCMI@Construction?5location?3?5?$CFs?5near?5?$CF@ 0055a760     Game.obj
 0002:0001278c       ??_C@_0BK@JDFEMNH@Back?5to?5Construction?5menu?$AA@ 0055a78c     Game.obj
 0002:000127ac       ??_C@_0BG@GEAPBNMI@Help?5for?5construction?$AA@ 0055a7ac     Game.obj
 0002:000127c8       ??_C@_0BE@BHBLLIJP@while?5constructing?4?$AA@ 0055a7c8     Game.obj
 0002:000127e0       ??_C@_0BK@JBBLFDEF@Building?5is?5not?5activated?$AA@ 0055a7e0     Game.obj
 0002:00012800       ??_C@_0CC@EJNEPCK@Attack?5the?5building?5with?5Pickaxe@ 0055a800     Game.obj
 0002:00012828       ??_C@_0CM@LNPEDAH@the?5base?5will?5be?5formed?5and?5slow@ 0055a828     Game.obj
 0002:0001285c       ??_C@_0BM@MACPGIIC@Press?5the?5building?5icon?5and?$AA@ 0055a85c     Game.obj
 0002:00012880       ??_C@_0CC@OIMOGCJK@Constructs?5the?5war?5building?5here@ 0055a880     Game.obj
 0002:000128a8       ??_C@_0BE@NKDIPBGB@Select?5war?5building?$AA@ 0055a8a8     Game.obj
 0002:000128c0       ??_C@_0BK@HMJLIDAE@Back?5to?5construction?5mode?$AA@ 0055a8c0     Game.obj
 0002:000128e0       ??_C@_0BP@KBOJPBJC@Confirm?5teleport?$CI1?5more?5click?$CJ?$AA@ 0055a8e0     Game.obj
 0002:00012908       ??_C@_0BC@FNDBDEFH@Help?5for?5teleport?$AA@ 0055a908     Game.obj
 0002:00012920       ??_C@_0CM@KHJJPOHE@Teleport?5to?5position?5that?5comman@ 0055a920     Game.obj
 0002:00012954       ??_C@_0BB@LNBEACPL@Help?5for?5soldier?$AA@ 0055a954     Game.obj
 0002:00012968       ??_C@_0BO@BAGPBGBA@Teleport?5position?5is?5not?5set?4?$AA@ 0055a968     Game.obj
 0002:0001298c       ??_C@_0CC@JCKMHNGG@Teleport?5position?3?5?$CFs?5near?5?$CFd?0?5?$CF@ 0055a98c     Game.obj
 0002:000129b4       ??_C@_0BF@FGEEJPKP@Back?5to?5soldier?5mode?$AA@ 0055a9b4     Game.obj
 0002:000129d0       ??_C@_0CI@FNELDDBH@A?5point?5to?5upgrade?5items?5is?5not?5@ 0055a9d0     Game.obj
 0002:00012a00       ??_C@_0CE@CBEPMAHF@Upgrading?5the?5item?5is?5not?5possib@ 0055aa00     Game.obj
 0002:00012a2c       ??_C@_0CN@BBFECLBP@Upgrading?5the?5item?5is?5not?5possib@ 0055aa2c     Game.obj
 0002:00012a64       ??_C@_0BN@LPBNNEIL@item?5is?5gone?4?5Try?5next?5time?$CB?$AA@ 0055aa64     Game.obj
 0002:00012a88       ??_C@_0CD@DPMOEHMH@Due?5to?5the?5failure?5of?5upgrade?0?5t@ 0055aa88     Game.obj
 0002:00012ab4       ??_C@_0CB@EEOKAJAM@The?5number?5of?5upgrade?$CIarmor?$CJ?3?5?$CFd@ 0055aab4     Game.obj
 0002:00012adc       ??_C@_0BN@CJGOIJGC@You?5can?5upgrade?5only?5weapon?4?$AA@ 0055aadc     Game.obj
 0002:00012b00       ??_C@_0CC@IKEIHLCF@The?5number?5of?5upgrade?$CIweapon?$CJ?3?5?$CF@ 0055ab00     Game.obj
 0002:00012b28       ??_C@_0BM@FIEGLJIP@You?5can?5upgrade?5only?5armor?4?$AA@ 0055ab28     Game.obj
 0002:00012b4c       ??_C@_0BM@PLKHOIH@press?5the?5?8Upgrade?8?5button?4?$AA@ 0055ab4c     Game.obj
 0002:00012b70       ??_C@_0BM@BMIANJJA@upgrade?5from?5the?5inventory?0?$AA@ 0055ab70     Game.obj
 0002:00012b94       ??_C@_0BN@EEBALDHG@After?5bring?5a?5normal?5item?5to?$AA@ 0055ab94     Game.obj
 0002:00012bb8       ??_C@_0CA@PGNJKBBO@upgraded?5with?5this?5performance?4?$AA@ 0055abb8     Game.obj
 0002:00012be0       ??_C@_0BJ@DLDMKBEO@?$CK?5Normal?5items?5cannot?5be?$AA@ 0055abe0     Game.obj
 0002:00012c00       ??_C@_0BK@BMPGBNOA@Limitations?5are?5included?4?$AA@ 0055ac00     Game.obj
 0002:00012c20       ??_C@_0CN@BFDDFDG@sufficient?5contribution?5points?5a@ 0055ac20     Game.obj
 0002:00012c58       ??_C@_0CN@DLGICDCE@In?5order?5to?5upgrade?5items?5with?5c@ 0055ac58     Game.obj
 0002:00012c90       ??_C@_0BN@FPJMONPJ@Contribution?5Item?5Upgrading?3?$AA@ 0055ac90     Game.obj
 0002:00012cb4       ??_C@_0BH@PPHOAHC@Contribution?5Upgrading?$AA@ 0055acb4     Game.obj
 0002:00012cd0       ??_C@_0BL@BGIDLBHB@Stone?5of?5Merien?5is?5needed?4?$AA@ 0055acd0     Game.obj
 0002:00012cf0       ??_C@_0BM@GFLLDNGA@With?5upgrading?5armor?5items?0?$AA@ 0055acf0     Game.obj
 0002:00012d14       ??_C@_0BL@OFGIPLI@Stone?5of?5Xelima?5is?5needed?4?$AA@ 0055ad14     Game.obj
 0002:00012d34       ??_C@_0BN@MAOBDOME@With?5upgrading?5weapon?5items?0?$AA@ 0055ad34     Game.obj
 0002:00012d58       ??_C@_0BH@FBCCJLJL@Normal?5Item?5Upgrading?3?$AA@ 0055ad58     Game.obj
 0002:00012d74       ??_C@_0BB@PPADAIJP@Normal?5Upgrading?$AA@ 0055ad74     Game.obj
 0002:00012d88       ??_C@_0CH@JCLMLAHF@Select?5which?5kind?5of?5items?5to?5up@ 0055ad88     Game.obj
 0002:00012db8       ??_C@_0BJ@LPHPBPLM@Item?5upgrade?5has?5failed?4?$AA@ 0055adb8     Game.obj
 0002:00012dd8       ??_C@_0BE@DBNKLNGH@has?5been?5succeeded?4?$AA@ 0055add8     Game.obj
 0002:00012df0       ??_C@_0BN@BJLPGDDC@Congratulation?$CB?5item?5upgrade?$AA@ 0055adf0     Game.obj
 0002:00012e14       ??_C@_0BB@PIBAJNHC@Wait?5a?5moment?4?4?4?$AA@ 0055ae14     Game.obj
 0002:00012e28       ??_C@_0CA@EDOGMCCG@Item?5upgrade?5is?5in?5process?5now?4?$AA@ 0055ae28     Game.obj
 0002:00012e50       ??_C@_0BK@JPLBJNFC@Needed?5upgrade?5point?5?3?5?$CFd?$AA@ 0055ae50     Game.obj
 0002:00012e70       ??_C@_0BC@PLNLLBPG@?8Upgrade?8?5button?4?$AA@ 0055ae70     Game.obj
 0002:00012e88       ??_C@_0BP@OBBGKHEA@from?5the?5inventory?4?5Then?5press?$AA@ 0055ae88     Game.obj
 0002:00012eb0       ??_C@_0CA@IPPDBPOF@Drag?5item?5needed?5to?5be?5upgraded?$AA@ 0055aeb0     Game.obj
 0002:00012ed8       ??_C@_0CK@EBJKJFPH@?$CFs?5has?5been?5disabled?4?5You?5cannot@ 0055aed8     Game.obj
 0002:00012f0c       ??_C@_0CA@POBMJFAF@Can?8t?5cast?5while?5using?5a?5skill?4?$AA@ 0055af0c     Game.obj
 0002:00012f34       ??_C@_0CH@NNDANMDL@Your?5hands?5must?5be?5free?5to?5cast?5@ 0055af34     Game.obj
 0002:00012f64       ??_C@_0BB@EBJECGOP@You?5equipped?5?$CFs?4?$AA@ 0055af64     Game.obj
 0002:00012f78       ??_C@_0BM@MDGKIDFN@Shields?5have?5been?5disabled?4?$AA@ 0055af78     Game.obj
 0002:00012f9c       ??_C@_0CC@MKMDEHDI@Use?5of?5armors?5have?5been?5disabled@ 0055af9c     Game.obj
 0002:00012fc4       ??_C@_0BM@NIPKLNNH@The?5item?5is?5not?5for?5female?4?$AA@ 0055afc4     Game.obj
 0002:00012fe8       ??_C@_0BK@CLDPNEFA@The?5item?5is?5not?5for?5male?4?$AA@ 0055afe8     Game.obj
 0002:00013008       ??_C@_0DC@DNBIEMAP@You?5can?8t?5use?5the?5item?5while?5usi@ 0055b008     Game.obj
 0002:00013044       ??_C@_0CB@ELPIAFCJ@Your?5level?5is?5too?5low?5to?5use?5it?4@ 0055b044     Game.obj
 0002:0001306c       ??_C@_0CP@CCHPJCKE@The?5item?5is?5too?5heavy?5to?5equip?0?5@ 0055b06c     Game.obj
 0002:000130a4       ??_C@_0CJ@NHKAKFNK@The?5item?5is?5exhausted?4?5Fix?5it?5to@ 0055b0a4     Game.obj
 0002:000130d8       ??_C@_0BL@CJNIOHKB@The?5item?5is?5not?5available?4?$AA@ 0055b0d8     Game.obj
 0002:000130f8       ??_C@_06EKBBMHLP@?1to?5?$CFs?$AA@ 0055b0f8     Game.obj
 0002:00013100       ??_C@_0CL@EKGAANOB@Click?5the?5character?5which?5you?5wa@ 0055b100     Game.obj
 0002:00013134       ??_C@_0CP@LKMJLFIJ@You?5can?5not?5have?5more?5than?512?5fr@ 0055b134     Game.obj
 0002:0001316c       ??_C@_0DH@GGMEACF@Your?5current?5guild?5rank?5doesn?8t?5@ 0055b16c     Game.obj
 0002:000131b0       ??_C@_01IHBHIGKO@?0?$AA@   0055b1b0     Game.obj
 0002:000131b8       __real@4070400000000000    0055b1b8     Game.obj
 0002:000131c8       __real@4071700000000000    0055b1c8     Game.obj
 0002:000131d8       ??_C@_0EL@IMAGCIOP@You?5can?5not?5use?5this?5ability?5ind@ 0055b1d8     Game.obj
 0002:00013234       ??_C@_0DE@MCPMNCAG@The?5commander?5didn?8t?5set?5the?5tel@ 0055b234     Game.obj
 0002:00013274       ??_C@_0DB@LMGLCLI@The?5commander?5didn?8t?5set?5the?5bui@ 0055b274     Game.obj
 0002:000132b0       ??_C@_0L@IIAIKEJJ@the?5prize?4?$AA@ 0055b2b0     Game.obj
 0002:000132c0       ??_C@_0CD@DKLKJIKH@the?5next?5battle?5so?5you?5can?5recei@ 0055b2c0     Game.obj
 0002:000132ec       ??_C@_0CB@GOOCLHCN@the?5previous?5and?5before?5starting@ 0055b2ec     Game.obj
 0002:00013314       ??_C@_0CB@EIBGJHGA@You?5must?5connect?5after?5finishing@ 0055b314     Game.obj
 0002:0001333c       ??_C@_04GMOJEHPC@done?$AA@ 0055b33c     Game.obj
 0002:00013344       ??_C@_0BE@EEAJFNEK@is?5already?5finished?$AA@ 0055b344     Game.obj
 0002:0001335c       ??_C@_0CG@DDGLHHKB@The?5battle?5that?5you?5have?5partici@ 0055b35c     Game.obj
 0002:0001338c       ??_C@_0BE@OEFENNH@in?5the?5next?5battle?4?$AA@ 0055b38c     Game.obj
 0002:000133a4       ??_C@_0BG@KBDJKBIJ@May?5you?5be?5victorious?$AA@ 0055b3a4     Game.obj
 0002:000133c0       ??_C@_0O@MAHAPJHE@lesser?5prize?4?$AA@ 0055b3c0     Game.obj
 0002:000133d0       ??_C@_0BE@LKIJOOIN@you?5will?5be?5given?5a?$AA@ 0055b3d0     Game.obj
 0002:000133e8       ??_C@_0BH@GHJMAGKN@As?5a?5defeated?5citizen?0?$AA@ 0055b3e8     Game.obj
 0002:00013404       ??_C@_0BL@FNLOBPDG@have?5lost?5the?5all?5out?5war?4?$AA@ 0055b404     Game.obj
 0002:00013424       ??_C@_0BM@GDMKINIL@Unfortunately?$CB?5Your?5country?$AA@ 0055b424     Game.obj
 0002:00013448       ??_C@_0CB@EMMDOHMC@You?5gained?5?$CFd?5experience?5points?$CB@ 0055b448     Game.obj
 0002:00013470       ??_C@_0CN@PBBLNIAB@Experience?5point?5of?5the?5battle?5c@ 0055b470     Game.obj
 0002:000134a8       ??_C@_08NEKBDFCC@a?5prize?4?$AA@ 0055b4a8     Game.obj
 0002:000134b4       ??_C@_0BB@PLAPLPKG@you?5will?5receive?$AA@ 0055b4b4     Game.obj
 0002:000134c8       ??_C@_0BJ@MJLAIJP@As?5a?5victorious?5citizen?0?$AA@ 0055b4c8     Game.obj
 0002:000134e8       ??_C@_0BO@KMCAHLMA@was?5victorious?5in?5the?5battle?$CB?$AA@ 0055b4e8     Game.obj
 0002:0001350c       ??_C@_0BN@MNHAHEJD@Congratulations?$CB?5Your?5nation?$AA@ 0055b50c     Game.obj
 0002:00013530       ??_C@_0BG@GBABMJOK@you?5will?5not?5be?5given?$AA@ 0055b530     Game.obj
 0002:0001354c       ??_C@_0CE@KLGPPFCJ@as?5a?5member?5of?5the?5defeated?5nati@ 0055b54c     Game.obj
 0002:00013578       ??_C@_0P@PPFMPAEA@Unfortunately?0?$AA@ 0055b578     Game.obj
 0002:0001358c       ??_C@_0BB@NFKMINFM@You?5will?5receive?$AA@ 0055b58c     Game.obj
 0002:000135a0       ??_C@_0BI@BPMLMLCI@As?5a?5victorious?5citizen?$AA@ 0055b5a0     Game.obj
 0002:000135bc       ??_C@_0BB@HFIHPPIM@Congratulations?$CB?$AA@ 0055b5bc     Game.obj
 0002:000135d0       ??_C@_07INNIIBIF@battle?4?$AA@ 0055b5d0     Game.obj
 0002:000135dc       ??_C@_0BI@FAJGILK@There?5was?5a?5draw?5in?5the?$AA@ 0055b5dc     Game.obj
 0002:000135f8       ??_C@_0BH@IDJAAOJD@Aresden?5was?5victorious?$AA@ 0055b5f8     Game.obj
 0002:00013614       ??_C@_0BL@NFNMIFLH@and?5put?5an?5end?5to?5the?5war?4?$AA@ 0055b614     Game.obj
 0002:00013634       ??_C@_0BG@GNMFCDKN@Elvine?5was?5victorious?$AA@ 0055b634     Game.obj
 0002:00013650       ??_C@_0BG@IAJBIIB@All?5out?5war?5finished?$CB?$AA@ 0055b650     Game.obj
 0002:0001366c       ??_C@_0CH@OOJDKNKK@?5for?5information?5on?5how?5to?5get?5p@ 0055b66c     Game.obj
 0002:0001369c       ??_C@_0DB@PFNGDHKG@?5Go?5to?5http?3?1?1www?4helbreathlegio@ 0055b69c     Game.obj
 0002:000136d8       ??_C@_0CG@GDNNCDKH@You?5do?5not?5have?5enough?5Legion?5po@ 0055b6d8     Game.obj
 0002:00013708       ??_C@_0BM@HGAEBMEK@You?5do?5not?5have?5that?5spell?4?$AA@ 0055b708     Game.obj
 0002:0001372c       ??_C@_0CG@BLFNGIOK@You?5do?5not?5have?5enough?5Legion?5To@ 0055b72c     Game.obj
 0002:0001375c       ??_C@_0L@HCMHMJO@LegionCoin?$AA@ 0055b75c     Game.obj
 0002:0001376c       ??_C@_0BP@KKNPNEIK@Using?5a?5manufacturing?5skill?4?4?4?$AA@ 0055b76c     Game.obj
 0002:00013798       ??_C@_0EM@BFJMFBBJ@You?5need?5Smiths?5Anvil?5to?5manufac@ 0055b798     Game.obj
 0002:000137f4       ??_C@_0CM@OHJFCEID@Your?5hands?5should?5be?5free?5to?5use@ 0055b7f4     Game.obj
 0002:00013828       ??_C@_0CF@KBKBOMMD@You?5are?5already?5using?5another?5sk@ 0055b828     Game.obj
 0002:00013854       ??_C@_0DH@HABOMLGC@The?5manufacturing?5manual?5is?5purc@ 0055b854     Game.obj
 0002:00013898       ??_C@_0EN@GNCNAJDH@To?5manufacture?5item?0?5skill?5of?5ma@ 0055b898     Game.obj
 0002:000138f4       ??_C@_0BM@DHJNKCOC@Press?5F1?5for?5news?5and?5help?4?$AA@ 0055b8f4     Game.obj
 0002:00013918       ??_C@_0BK@GBFDBPD@contents?2contents1000?4txt?$AA@ 0055b918     Game.obj
 0002:00013938       ??_C@_02BKFDOEMK@wt?$AA@   0055b938     Game.obj
 0002:0001393c       ??_C@_0BG@FEALJIDB@Logout?5count?5stopped?4?$AA@ 0055b93c     Game.obj
 0002:00013958       ??_C@_0BG@HPMHIKON@Restarting?5game?4?4?4?4?$CFd?$AA@ 0055b958     Game.obj
 0002:00013974       ??_C@_08NOPICKKG@Music?5On?$AA@ 0055b974     Game.obj
 0002:00013980       ??_C@_09CNPGDGO@Music?5Off?$AA@ 0055b980     Game.obj
 0002:0001398c       ??_C@_08JLHEEHDE@Sound?5On?$AA@ 0055b98c     Game.obj
 0002:00013998       ??_C@_09BMJLBNGL@Sound?5Off?$AA@ 0055b998     Game.obj
 0002:000139a4       ??_C@_0BE@PGDPOMDF@Detail?5Level?5?3?5High?$AA@ 0055b9a4     Game.obj
 0002:000139bc       ??_C@_0BG@FDACNHOC@Detail?5Level?5?3?5Medium?$AA@ 0055b9bc     Game.obj
 0002:000139d8       ??_C@_0BD@EIOHOAL@Detail?5Level?5?3?5Low?$AA@ 0055b9d8     Game.obj
 0002:000139f0       ??_C@_0P@HDMHMDDF@So?0?5would?5you?$DP?$AA@ 0055b9f0     Game.obj
 0002:00013a04       ??_C@_0CF@ENJGPIOH@I?5will?5appreciate?5it?5if?5you?5succ@ 0055ba04     Game.obj
 0002:00013a30       ??_C@_0BK@GCNJAHOB@Would?5you?5try?5this?5quest?$DP?$AA@ 0055ba30     Game.obj
 0002:00013a50       ??_C@_0BG@HKMCCCJE@Contribution?3?$CFdPoints?$AA@ 0055ba50     Game.obj
 0002:00013a6c       ??_C@_0BH@NNPEHFAF@Contribution?3?5?$CFdPoints?$AA@ 0055ba6c     Game.obj
 0002:00013a88       ??_C@_0CB@OGCIHABK@Position?3?5?$CFd?0?$CFd?5within?5?$CFd?5blocks@ 0055ba88     Game.obj
 0002:00013ab0       ??_C@_0BJ@OGJIBLN@Teleport?5destination?3?5?$CFs?$AA@ 0055bab0     Game.obj
 0002:00013ad0       ??_C@_0CM@LLAHKOLE@Teleport?5destination?3?5presuposit@ 0055bad0     Game.obj
 0002:00013b04       ??_C@_0BK@KIFKIIK@to?5obstruct?5their?5actions?$AA@ 0055bb04     Game.obj
 0002:00013b24       ??_C@_0CH@MDEHILAO@or?5a?5mission?5of?5making?5guerila?5t@ 0055bb24     Game.obj
 0002:00013b54       ??_C@_0CH@IDKAFCEI@and?5try?5to?5destroy?5the?5main?5faci@ 0055bb54     Game.obj
 0002:00013b84       ??_C@_0CH@MJAOBPFD@Direct?5teleport?5to?5enemy?8s?5rear?5@ 0055bb84     Game.obj
 0002:00013bb4       ??_C@_0CE@IIIODHDO@Operation?5plan?3?5Enemy?5rear?5invas@ 0055bbb4     Game.obj
 0002:00013be0       ??_C@_0CG@KEFNAJCH@You?5cannot?5add?5the?5same?5player?5t@ 0055bbe0     Game.obj
 0002:00013c10       ??_C@_0EM@HIGNJBP@A?5character?5for?5party?5member?5has@ 0055bc10     Game.obj
 0002:00013c6c       ??_C@_0DF@ENIKAMPA@You?5cannot?5sell?5more?5than?512?5ite@ 0055bc6c     Game.obj
 0002:00013cac       ??_C@_0BG@BJFLNOJG@You?5cannot?5sell?5gold?4?$AA@ 0055bcac     Game.obj
 0002:00013cc8       ??_C@_0BN@DNLGECJH@That?5is?5already?5on?5the?5list?4?$AA@ 0055bcc8     Game.obj
 0002:00013cec       ??_C@_0CL@NICPFDBH@There?5is?5no?5empty?5space?5left?5in?5@ 0055bcec     Game.obj
 0002:00013d20       ??_C@_0BH@LKCHBLJO@Using?5alchemy?5skill?4?4?4?$AA@ 0055bd20     Game.obj
 0002:00013d3c       ??_C@_0DN@BCCGFIBK@You?5need?5Alchemy?5Bowl?5to?5alchemy@ 0055bd3c     Game.obj
 0002:00013d88       ??_C@_0FM@DHIBBPOM@You?5should?5learn?5alchemy?5skill?5t@ 0055bd88     Game.obj
 0002:00013df8       ??_C@_0BO@FGGAPMNG@Talking?5to?5a?5town?5magician?4?4?4?$AA@ 0055bdf8     Game.obj
 0002:00013e1c       ??_C@_0BM@JBBOEKNC@Talking?5to?5a?5town?5maiden?4?4?4?$AA@ 0055be1c     Game.obj
 0002:00013e40       ??_C@_0BJ@GABPLPKN@Talking?5to?5a?5town?5man?4?4?4?$AA@ 0055be40     Game.obj
 0002:00013e60       ??_C@_0BG@GDNHJGP@Talking?5to?5Unicorn?4?4?4?$AA@ 0055be60     Game.obj
 0002:00013e7c       ??_C@_0BE@HAANHGKD@Talking?5to?5Guard?4?4?4?$AA@ 0055be7c     Game.obj
 0002:00013e94       ??_C@_0BK@CLBPOHAM@Too?5far?5to?5exchange?5item?4?$AA@ 0055be94     Game.obj
 0002:00013eb4       ??_C@_0BK@LHFAIHHP@Too?5far?5to?5give?5the?5item?4?$AA@ 0055beb4     Game.obj
 0002:00013ed4       ??_C@_0CD@KLCNKGLL@Talking?5to?5Auction?5House?5Keeper?4@ 0055bed4     Game.obj
 0002:00013f00       ??_C@_0BL@DDGLMJGL@Talking?5to?5Guild?5Banker?4?4?4?$AA@ 0055bf00     Game.obj
 0002:00013f20       ??_C@_0BH@CBBFIGGC@Talking?5to?5Sorcerer?4?4?4?$AA@ 0055bf20     Game.obj
 0002:00013f3c       ??_C@_0BP@EFNIDHPI@Talking?5to?5Warehouse?5Keeper?4?4?4?$AA@ 0055bf3c     Game.obj
 0002:00013f64       ??_C@_0BP@DBNMAKLJ@Talking?5to?5Cityhall?5Officer?4?4?4?$AA@ 0055bf64     Game.obj
 0002:00013f8c       ??_C@_0BK@HBBPEDAI@Talking?5to?5Shop?5Keeper?4?4?4?$AA@ 0055bf8c     Game.obj
 0002:00013fac       ??_C@_0CA@MEDJDKBL@Talking?5to?5Blacksmith?5Keeper?4?4?4?$AA@ 0055bfac     Game.obj
 0002:00013fd4       ??_C@_0CA@IMGGFCID@Talking?5to?5Guildhall?5Officer?4?4?4?$AA@ 0055bfd4     Game.obj
 0002:00013ffc       ??_C@_0BD@FNAKLONE@Started?5to?5fish?4?4?4?$AA@ 0055bffc     Game.obj
 0002:00014014       ??_C@_0CD@EOONDLBM@Contribution?5descent?5to?5?$CFd?5point@ 0055c014     Game.obj
 0002:00014040       ??_C@_0CC@FLJFCHKM@Contribution?5ascent?5to?5?$CFd?5points@ 0055c040     Game.obj
 0002:00014068       ??_C@_0N@JHLDNKEB@Prize?3?5?$CFd?5?$CFs?$AA@ 0055c068     Game.obj
 0002:00014078       ??_C@_0BM@DPIOOLEO@Prize?3?5Experience?5?$CFd?5points?$AA@ 0055c078     Game.obj
 0002:0001409c       ??_C@_0CE@GPGKGKHN@There?5isn?8t?5any?5map?5for?5this?5are@ 0055c09c     Game.obj
 0002:000140c8       ??_C@_0M@NEOPEEBG@This?5is?5?$CFs?4?$AA@ 0055c0c8     Game.obj
 0002:000140d8       ??_C@_04IFCIPPDB@?4amd?$AA@ 0055c0d8     Game.obj
 0002:000140e0       ??_C@_0N@KNJOCMPO@mw?2defaultmw?$AA@ 0055c0e0     Game.obj
 0002:000140f0       ??_C@_09CKMJJPLC@defaultmw?$AA@ 0055c0f0     Game.obj
 0002:000140fc       ??_C@_08MIICGKJJ@mapdata?2?$AA@ 0055c0fc     Game.obj
 0002:00014108       ??_C@_0BM@HCDILOMH@situated?5in?5the?5middleland?4?$AA@ 0055c108     Game.obj
 0002:0001412c       ??_C@_0BI@NNOCIEAF@Elvine?8s?5damage?5content?$AA@ 0055c12c     Game.obj
 0002:00014148       ??_C@_0CG@GOMNMDBK@It?8s?5about?5the?5Aresden?8s?5magic?5a@ 0055c148     Game.obj
 0002:00014178       ??_C@_0CB@HOCMKMGJ@collectors?5near?5the?5mana?5stones?4@ 0055c178     Game.obj
 0002:000141a0       ??_C@_0BO@PBIDBNND@must?5destroy?5the?5enemy?8s?5mana?$AA@ 0055c1a0     Game.obj
 0002:000141c4       ??_C@_0BL@EBFKDBGL@To?5stop?5enemy?8s?5attack?5you?$AA@ 0055c1c4     Game.obj
 0002:000141e4       ??_C@_0BG@EPFJMMJF@you?5will?5be?5defeated?4?$AA@ 0055c1e4     Game.obj
 0002:00014200       ??_C@_0BJ@EHPCALEB@buildings?5are?5destroyed?0?$AA@ 0055c200     Game.obj
 0002:00014220       ??_C@_0BJ@IBKEJAML@the?5enemy?5forces?$CB?5If?5all?$AA@ 0055c220     Game.obj
 0002:00014240       ??_C@_0BO@NGPHHEFN@Our?5buildings?5were?5damaged?5by?$AA@ 0055c240     Game.obj
 0002:00014264       ??_C@_0CI@CEAILJOD@the?5enemy?8s?5building?5will?5be?5des@ 0055c264     Game.obj
 0002:00014294       ??_C@_0CC@GHJGBNE@the?5magic?5attack?4?5If?5you?5continu@ 0055c294     Game.obj
 0002:000142bc       ??_C@_0CG@KHFPNGG@You?5damaged?5the?5enemy?8s?5building@ 0055c2bc     Game.obj
 0002:000142ec       ??_C@_0BE@FPCFDFNO@to?5the?5Mana?5Stones?4?$AA@ 0055c2ec     Game.obj
 0002:00014304       ??_C@_0CA@MJCCLMEA@situated?5in?5the?5middleland?5near?$AA@ 0055c304     Game.obj
 0002:0001432c       ??_C@_0CF@OBOADJIK@you?5must?5destroy?5the?5mana?5collec@ 0055c32c     Game.obj
 0002:00014358       ??_C@_0CG@PPDLCDKG@the?5all?5out?5war?4?5To?5stop?5their?5a@ 0055c358     Game.obj
 0002:00014388       ??_C@_0BI@MCEDHOCI@you?5will?5be?5defeated?5in?$AA@ 0055c388     Game.obj
 0002:000143a4       ??_C@_0BP@LMPABJB@If?5all?5buildings?5are?5destroyed?$AA@ 0055c3a4     Game.obj
 0002:000143cc       ??_C@_0BG@GKFKNCDF@our?5forces?5buildings?$CB?$AA@ 0055c3cc     Game.obj
 0002:000143e8       ??_C@_0CC@LIKILOEF@The?5enemy?8s?5attack?5have?5destroye@ 0055c3e8     Game.obj
 0002:00014410       ??_C@_0BG@DPJBCCAG@will?5win?5the?5crusade?4?$AA@ 0055c410     Game.obj
 0002:0001442c       ??_C@_0CI@JGDMDOLP@if?5you?5destroy?5all?5enemy?5buildin@ 0055c42c     Game.obj
 0002:0001445c       ??_C@_0CJ@KFAAPDAO@You?5have?5destroyed?5the?5enemy?8s?5b@ 0055c45c     Game.obj
 0002:00014490       ??_C@_0CJ@BKIFGNNH@in?5the?5middleland?5near?5the?5magic@ 0055c490     Game.obj
 0002:000144c4       ??_C@_0CJ@BBBEEIKP@you?5must?5destroy?5enemy?8s?5Mana?5Co@ 0055c4c4     Game.obj
 0002:000144f8       ??_C@_0CE@NOOLKCEI@If?5you?5want?5to?5stop?5enemies?5atta@ 0055c4f8     Game.obj
 0002:00014524       ??_C@_0CE@BPPKMDC@any?5damage?5to?5our?5forces?5buildin@ 0055c524     Game.obj
 0002:00014550       ??_C@_0CD@DJMJKCHG@The?5enemy?8s?5magic?5attack?5didn?8t?5@ 0055c550     Game.obj
 0002:0001457c       ??_C@_0BM@JOEGGBFM@the?5Magic?5shield?5generators?$AA@ 0055c57c     Game.obj
 0002:000145a0       ??_C@_0CB@HBIFBKGM@to?5the?5enemy?5country?5and?5destroy@ 0055c5a0     Game.obj
 0002:000145c8       ??_C@_0CL@DHPNHIKM@with?5the?5magic?5attack?4?5You?5must?5@ 0055c5c8     Game.obj
 0002:000145fc       ??_C@_0CF@GNKAGJOP@You?5didn?8t?5damage?5the?5enemy?5buil@ 0055c5fc     Game.obj
 0002:00014628       ??_C@_0P@GOFAHLEL@?$CFs?5?$CFd?5?$CFd?5?$CFd?5?$CFd?$AA@ 0055c628     Game.obj
 0002:0001463c       ??_C@_0BG@IKOGNCOD@Building?5durability?5?3?$AA@ 0055c63c     Game.obj
 0002:00014658       ??_C@_0BA@GFPIBJGF@Buildings?5left?3?$AA@ 0055c658     Game.obj
 0002:0001466c       ??_C@_0BD@HFJFIAGP@Quantity?5of?5death?3?$AA@ 0055c66c     Game.obj
 0002:00014684       ??_C@_0BB@OEPEKMFC@Building?5damage?3?$AA@ 0055c684     Game.obj
 0002:00014698       ??_C@_0CA@LCMLCDNG@Quantity?5of?5building?5destroyed?3?$AA@ 0055c698     Game.obj
 0002:000146c0       ??_C@_0BJ@NJPICNFI@Aresden?8s?5damage?5content?$AA@ 0055c6c0     Game.obj
 0002:000146e0       ??_C@_0CF@BAOEBCM@It?8s?5about?5the?5Elvine?8s?5magic?5at@ 0055c6e0     Game.obj
 0002:00014710       ??_C@_0EG@GEHPNHPA@?5Cast?5a?5spell?5first?5then?5press?5t@ 0055c710     Game.obj
 0002:00014764       ??_C@_0DD@OPFOGJFG@?5To?5Equip?5an?5item?0?5weapon?0?5or?5ma@ 0055c764     Game.obj
 0002:000147a4       ??_C@_0DA@NPALABNI@?5There?5is?5no?5item?5or?5magic?5for?5h@ 0055c7a4     Game.obj
 0002:000147e0       ??_C@_0BK@HJDKNGFI@Magic?$CI?$CFs?$CJ?5?3?5set?5to?5?$FLF?$CFd?$FN?4?$AA@ 0055c7e0     Game.obj
 0002:00014800       ??_C@_0BP@ECIOPOGL@Item?$CI?$CFs?5?$CFs?5?$CFs?$CJ?5?3?5set?5to?5?$FLF?$CFd?$FN?4?$AA@ 0055c800     Game.obj
 0002:00014828       ??_C@_0BO@DCNJBKHE@You?5won?8t?5receive?5any?5reward?4?$AA@ 0055c828     Game.obj
 0002:0001484c       ??_C@_0O@BJJLJKJC@To?5our?5regret?$AA@ 0055c84c     Game.obj
 0002:0001485c       ??_C@_06GGLIPOFD@?5?5?5?5?5?5?$AA@ 0055c85c     Game.obj
 0002:00014864       ??_C@_0BL@KACKJCJ@You?5will?5receive?5a?5reward?4?$AA@ 0055c864     Game.obj
 0002:00014884       ??_C@_0BB@PCBPODED@Congratulations?4?$AA@ 0055c884     Game.obj
 0002:00014898       ??_C@_09HJFKDMFF@in?5a?5tie?4?$AA@ 0055c898     Game.obj
 0002:000148a4       ??_C@_0BF@LPBCJFDB@in?5favor?5of?5Aresden?4?$AA@ 0055c8a4     Game.obj
 0002:000148c0       ??_C@_0BE@JNFPJDOC@in?5favor?5of?5Elvine?4?$AA@ 0055c8c0     Game.obj
 0002:000148d8       ??_C@_0BJ@GHGBMFOP@Heldenian?5Holy?5war?5ended?$AA@ 0055c8d8     Game.obj
 0002:000148f8       ??_C@_0CE@FEMGEMDJ@Heldenian?5holy?5war?5has?5been?5clos@ 0055c8f8     Game.obj
 0002:00014924       ??_C@_0CO@HKPAECIG@You?5don?8t?5have?5any?5items?5that?5re@ 0055c924     Game.obj
 0002:0001495c       ??_C@_0BP@NFKJEJMH@Top?5notification?5bar?5disabled?4?$AA@ 0055c95c     Game.obj
 0002:00014984       ??_C@_0BO@LHNJPAKN@Top?5notification?5bar?5enabled?4?$AA@ 0055c984     Game.obj
 0002:000149a8       ??_C@_0CA@HPNDNKAA@Ping?5alert?5sounds?5are?5disabled?4?$AA@ 0055c9a8     Game.obj
 0002:000149d0       ??_C@_0BP@MHAGGIMD@Ping?5alert?5sounds?5are?5enabled?4?$AA@ 0055c9d0     Game.obj
 0002:000149f8       ??_C@_04DDIFCFKP@?1afk?$AA@ 0055c9f8     Game.obj
 0002:00014a00       ??_C@_0CG@ENJDCBBC@?8Trebuchet?5MS?8?5font?5has?5been?5ena@ 0055ca00     Game.obj
 0002:00014a30       ??_C@_0CH@OOPHCHEG@?8Comic?5Sans?5MS?8?5font?5has?5been?5en@ 0055ca30     Game.obj
 0002:00014a60       ??_C@_0BO@IFGLHKPC@Trees?5are?5now?5shown?5as?5small?4?$AA@ 0055ca60     Game.obj
 0002:00014a84       ??_C@_0BO@JMKPAHHC@Trees?5are?5now?5shown?5as?5large?4?$AA@ 0055ca84     Game.obj
 0002:00014aa8       ??_C@_0CF@HEBPIJAO@You?8r?5town?5won?8t?5receive?5any?5rew@ 0055caa8     Game.obj
 0002:00014ad4       ??_C@_0CC@BAKAKKFI@You?8r?5town?5will?5receive?5a?5reward@ 0055cad4     Game.obj
 0002:00014afc       ??_C@_0CD@NKCMFGBK@Soccer?5event?5has?5finished?5in?5a?5t@ 0055cafc     Game.obj
 0002:00014b28       ??_C@_0CJ@CEKGNGJO@Soccer?5event?5has?5finished?4?5Aresd@ 0055cb28     Game.obj
 0002:00014b5c       ??_C@_0CI@PEJMEHFK@Soccer?5event?5has?5finished?4?5Elvin@ 0055cb5c     Game.obj
 0002:00014b8c       ??_C@_0BL@GIDCDEAJ@Soccer?5event?5Has?5Finished?$CB?$AA@ 0055cb8c     Game.obj
 0002:00014bac       ??_C@_0CA@MADKEAKB@hbtop50?4com?1button?4php?$DPu?$DNlegion?$AA@ 0055cbac     Game.obj
 0002:00014bd4       ??_C@_08LAFMIMJL@Dilution?$AA@ 0055cbd4     Game.obj
 0002:00014be0       ??_C@_0CN@CNJAEGPB@Your?5guild?5doesn?8t?5have?5enough?5C@ 0055cbe0     Game.obj
 0002:00014c18       ??_C@_0CF@JOGDFIIE@Your?5guild?5doesn?8t?5have?5enough?5G@ 0055cc18     Game.obj
 0002:00014c44       ??_C@_0CG@KAJCHEJH@This?5upgrade?5is?5already?5at?5max?5l@ 0055cc44     Game.obj
 0002:00014c78       ??_C@_0EH@GNJEEPMK@Ability?5that?5makes?5character?5unt@ 0055cc78     Game.obj
 0002:00014cd0       ??_C@_0EJ@FDGCNHAJ@Ability?5that?5protects?5from?5physi@ 0055ccd0     Game.obj
 0002:00014d28       ??_C@_0ED@PHADGOGD@Ability?5that?5exhausts?5enemy?8s?5we@ 0055cd28     Game.obj
 0002:00014d78       ??_C@_0EL@MNPMFOOP@Ability?5that?5earns?5same?5HP?5as?5yo@ 0055cd78     Game.obj
 0002:00014dd8       ??_C@_0ED@BHJBFGHL@Ability?5that?5kills?5enemy?5at?5one?5@ 0055cdd8     Game.obj
 0002:00014e28       ??_C@_0ED@GKDPPEEG@Ability?5that?5holds?5an?5enemy?5in?5p@ 0055ce28     Game.obj
 0002:00014e78       ??_C@_0DJ@HONHBFFF@Ability?5that?5freezes?5enemy?3?5Can?5@ 0055ce78     Game.obj
 0002:00014ec0       ??_C@_0EH@HMCNOBEC@Ability?5that?5decreases?5enemy?8s?5H@ 0055cec0     Game.obj
 0002:00014f18       ??_C@_0ED@IAMGNPHJ@Ability?5that?5makes?5character?5unt@ 0055cf18     Game.obj
 0002:00014f68       ??_C@_0EF@JLLKKEHD@Ability?5that?5protects?5from?5physi@ 0055cf68     Game.obj
 0002:00014fbc       ??_C@_0DP@DFCIKHKO@Ability?5that?5exhausts?5enemy?8s?5we@ 0055cfbc     Game.obj
 0002:00015008       ??_C@_0EL@MBIOPJGK@Ability?5that?5earns?5same?5HP?5as?5yo@ 0055d008     Game.obj
 0002:00015064       ??_C@_0DP@JGIKCDJI@Ability?5that?5kills?5enemy?5at?5one?5@ 0055d064     Game.obj
 0002:000150b0       ??_C@_0DP@JPGCMJHG@Ability?5that?5holds?5an?5enemy?5in?5p@ 0055d0b0     Game.obj
 0002:000150fc       ??_C@_0DF@JKDJEIFP@Ability?5that?5freezes?5enemy?3?5Can?5@ 0055d0fc     Game.obj
 0002:00015140       ??_C@_0ED@BPFPLKED@Ability?5that?5decreases?5enemy?8s?5H@ 0055d140     Game.obj
 0002:00015190       ??_C@_0CJ@BOCHPCFA@You?5are?5already?5using?5a?5special?5@ 0055d190     Game.obj
 0002:000151c4       ??_C@_0CK@JCEBHOAA@No?5item?5with?5special?5ability?5is?5@ 0055d1c4     Game.obj
 0002:000151f8       ??_C@_08NIOOCJBE@Canceled?$AA@ 0055d1f8     Game.obj
 0002:00015204       ??_C@_0CJ@DPIHPNAI@You?5can?8t?5use?5a?5potion?5while?5exc@ 0055d204     Game.obj
 0002:00015238       ??_C@_0CP@NIJPKKNJ@You?5can?5use?5after?5the?5usage?5of?5t@ 0055d238     Game.obj
 0002:00015270       ??_C@_04EIBOCPED@?1to?5?$AA@ 0055d270     Game.obj
 0002:00015278       ??_C@_0BL@GEOIEKGN@Converted?5to?5running?5mode?4?$AA@ 0055d278     Game.obj
 0002:00015298       ??_C@_0BL@JJJNKJB@Converted?5to?5walking?5mode?4?$AA@ 0055d298     Game.obj
 0002:000152b8       ??_C@_0DC@BIPLFLPB@Targeting?5neutral?5and?5your?5side?5@ 0055d2b8     Game.obj
 0002:000152f4       ??_C@_0DD@LHNLHGLD@Targeting?5neutral?5and?5your?5side?5@ 0055d2f4     Game.obj
 0002:00015334       ??_C@_0CD@IFMILEK@Auto?5Attack?5Mode?5has?5been?5enable@ 0055d334     Game.obj
 0002:00015360       ??_C@_0CE@OLHILLGH@Auto?5Attack?5Mode?5has?5been?5disabl@ 0055d360     Game.obj
 0002:0001538c       ??_C@_0CN@MLOOALND@?5Your?5reservation?5of?5the?5arena?5?$CF@ 0055d38c     Game.obj
 0002:000153c4       ??_C@_0CG@FOFAAKJE@?5You?5took?5the?5whole?5admission?5ti@ 0055d3c4     Game.obj
 0002:000153f4       ??_C@_0DJ@CIGDGMHE@?5Your?5reservation?5has?5been?5cance@ 0055d3f4     Game.obj
 0002:00015438       ??_C@_0CO@KIAHIBFJ@?5Game?5master?5canceled?5your?5arena@ 0055d438     Game.obj
 0002:00015470       ??_C@_0CB@JEMEFDOC@?5Force?5recall?5mode?5has?5been?5set?4@ 0055d470     Game.obj
 0002:00015498       ??_C@_0CG@DLEMAOFD@?5Force?5recall?5mode?5has?5been?5rele@ 0055d498     Game.obj
 0002:000154c8       ??_C@_0DL@PNGEKFOP@You?5can?8t?5set?5teleport?5within?515@ 0055d4c8     Game.obj
 0002:00015510       ??_C@_0EB@GEEODAAF@You?5can?8t?5use?5guild?5teleport?5wit@ 0055d510     Game.obj
 0002:00015560       ??_C@_0EL@FKDILLKJ@You?5can?8t?5set?5guild?5construct?5lo@ 0055d560     Game.obj
 0002:000155c0       ??_C@_0EO@BMLIHMON@You?5can?8t?5recall?5within?510?5secon@ 0055d5c0     Game.obj
 0002:00015620       ??_C@_0BP@HLABANKP@You?5cannot?5recall?5in?5this?5map?4?$AA@ 0055d620     Game.obj
 0002:00015648       ??_C@_0CH@BEKMODH@Magic?$CI?$CFs?$CJ?5charges?5has?5increased?5@ 0055d648     Game.obj
 0002:00015678       ??_C@_0BJ@IIGALLJM@Not?5enough?5Contribution?4?$AA@ 0055d678     Game.obj
 0002:00015698       ??_C@_0BB@BFMJNCCP@Not?5enough?5Gold?4?$AA@ 0055d698     Game.obj
 0002:000156ac       ??_C@_0BD@DOFFMKAC@?5Your?5bag?5is?5full?4?$AA@ 0055d6ac     Game.obj
 0002:000156c4       ??_C@_0BP@HABEOMCP@You?5can?8t?5carry?5anymore?5items?4?$AA@ 0055d6c4     Game.obj
 0002:000156ec       ??_C@_0DJ@DILDHCB@?5Trial?5version?5user?5can?5not?5rise@ 0055d6ec     Game.obj
 0002:00015730       ??_C@_0DD@KAAGAGBF@Travelers?5cannot?5level?5up?5to?551?4@ 0055d730     Game.obj
 0002:00015770       ??_C@_0CD@IEKPEDIJ@You?5cannot?5deposit?5items?5any?5mor@ 0055d770     Game.obj
 0002:0001579c       ??_C@_0CL@PEHDPHLK@Time?5has?5run?5out?0?5you?5are?5forced@ 0055d79c     Game.obj
 0002:000157d0       ??_C@_0BN@GABHCHEK@He?5is?5not?5your?5guild?5member?4?$AA@ 0055d7d0     Game.obj
 0002:000157f4       ??_C@_0CG@ILIGADAA@You?5succeeded?5in?5banishing?5guild@ 0055d7f4     Game.obj
 0002:00015824       ??_C@_0DC@OFOBEJDJ@You?5don?8t?5have?5rights?5to?5use?5gui@ 0055d824     Game.obj
 0002:00015860       ??_C@_0CK@EKFKMHDF@You?5can?8t?5use?5the?5administrative@ 0055d860     Game.obj
 0002:00015894       ??_C@_0BG@OOHFNHNC@You?5failed?5to?5fish?4?4?4?$AA@ 0055d894     Game.obj
 0002:000158b0       ??_C@_0CD@IKKHAENF@You?5were?5successful?5on?5fishing?$CB?$CB@ 0055d8b0     Game.obj
 0002:000158dc       ??_C@_0DD@HEEFOLON@You?5can?8t?5fish?5anymore?5because?5y@ 0055d8dc     Game.obj
 0002:0001591c       ??_C@_0DJ@LFHGCENF@The?5other?5player?5took?5first?5the?5@ 0055d91c     Game.obj
 0002:00015960       ??_C@_0CH@EEJIIBJJ@You?5can?8t?5fish?5anymore?4?5The?5fish@ 0055d960     Game.obj
 0002:00015990       ??_C@_0BO@LJHADBDJ@Safe?5attack?5mode?5inactivated?4?$AA@ 0055d990     Game.obj
 0002:000159b4       ??_C@_0BM@HKEPIFHO@Safe?5attack?5mode?5activated?4?$AA@ 0055d9b4     Game.obj
 0002:000159d8       ??_C@_0CJ@ONGEDKLB@Incorrect?5ingredients?5to?5mix?5the@ 0055d9d8     Game.obj
 0002:00015a0c       ??_C@_0DB@OHAEBNCB@Your?5alchemy?5level?5is?5too?5low?5to@ 0055da0c     Game.obj
 0002:00015a48       ??_C@_0BP@FGMBFFFG@You?5failed?5on?5mixing?5a?5potion?4?$AA@ 0055da48     Game.obj
 0002:00015a70       ??_C@_0CB@KBPJAKAA@You?5successfully?5mixed?5a?5potion?$CB@ 0055da70     Game.obj
 0002:00015a98       ??_C@_0BM@MLCGLMJB@You?5can?8t?5place?5flags?5here?$CB?$AA@ 0055da98     Game.obj
 0002:00015abc       ??_C@_0DB@KDACMODP@Maybe?5the?5other?5side?5has?5cancell@ 0055dabc     Game.obj
 0002:00015af8       ??_C@_0CC@JNLMDCON@Item?5exchange?5has?5been?5cancelled@ 0055daf8     Game.obj
 0002:00015b20       ??_C@_0BA@GMJIHJKM@Item?5exchanged?$CB?$AA@ 0055db20     Game.obj
 0002:00015b34       ??_C@_0BO@CCAKPDAA@Failed?5on?5manufacturing?5item?4?$AA@ 0055db34     Game.obj
 0002:00015b58       ??_C@_0BC@MALHEEDP@Observer?5Mode?5Off?$AA@ 0055db58     Game.obj
 0002:00015b70       ??_C@_0DE@IKECHAPB@Observer?5Mode?5On?4?5Press?5?8SHIFT?5?$CL@ 0055db70     Game.obj
 0002:00015bb0       ??_C@_0CM@LGJJOLAM@Energy?5sphere?5was?5dropped?5in?5?$CI?$CFd@ 0055dbb0     Game.obj
 0002:00015be4       ??_C@_0BG@BICHGJPJ@Aresden?5?$CFs?5?3?5Goal?5in?$CB?$AA@ 0055dbe4     Game.obj
 0002:00015c00       ??_C@_0BF@EDGLHLPL@Elvine?5?$CFs?5?3?5Goal?5in?$CB?$AA@ 0055dc00     Game.obj
 0002:00015c20       ??_C@_0EP@NAAHGMPO@Congulaturations?$CB?5You?5brought?5en@ 0055dc20     Game.obj
 0002:00015c80       ??_C@_0DH@EHHOOEJB@?$CFs?$CIElvine?$CJ?5pushed?5energy?5sphere?5@ 0055dc80     Game.obj
 0002:00015cc4       ??_C@_0DI@FHHDJBAC@?$CFs?$CIAresden?$CJ?5pushed?5energy?5sphere@ 0055dcc4     Game.obj
 0002:00015d08       ??_C@_0FB@IACDHAAK@You?5pushed?5energy?5sphere?5to?5enem@ 0055dd08     Game.obj
 0002:00015d6c       ??_C@_0CD@IDENEONJ@You?5can?5now?5use?5a?5special?5abilit@ 0055dd6c     Game.obj
 0002:00015d98       ??_C@_0CD@DIEHLPLO@Special?5ability?5has?5been?5release@ 0055dd98     Game.obj
 0002:00015dc4       ??_C@_0DO@JHEGHEIM@Special?5ability?5has?5run?5out?$CB?5Wil@ 0055ddc4     Game.obj
 0002:00015e10       ??_C@_0DO@PFJNFAFL@Special?5ability?5has?5run?5out?$CB?5Wil@ 0055de10     Game.obj
 0002:00015e5c       ??_C@_0DK@KMAHNFPD@Special?5ability?5has?5run?5out?$CB?5Wil@ 0055de5c     Game.obj
 0002:00015ea4       ??_C@_0BO@GNAMBEIK@Special?5ability?5has?5been?5set?$CB?$AA@ 0055dea4     Game.obj
 0002:00015ec8       ??_C@_0EM@DCNGLKEA@You?5cast?5a?5powerfull?5incantation@ 0055dec8     Game.obj
 0002:00015f24       ??_C@_0DO@HMONEHKP@Ability?5that?5makes?5character?5unt@ 0055df24     Game.obj
 0002:00015f70       ??_C@_0EA@CBDELIFP@Ability?5that?5protects?5from?5physi@ 0055df70     Game.obj
 0002:00015fbc       ??_C@_0DK@DGJEFADC@Ability?5that?5exhausts?5enemy?8s?5we@ 0055dfbc     Game.obj
 0002:00016004       ??_C@_0DK@DIPNGJMM@Ability?5that?5kills?5enemy?5at?5one?5@ 0055e004     Game.obj
 0002:0001604c       ??_C@_0DC@GMAJMBJN@Ability?5that?5paralyzes?5enemy?3?5Ca@ 0055e04c     Game.obj
 0002:00016088       ??_C@_0DA@FLBDLAJD@Ability?5that?5freezes?5enemy?3?5Can?5@ 0055e088     Game.obj
 0002:000160c4       ??_C@_0DO@EEOBLFOL@Ability?5that?5decreases?5enemy?8s?5H@ 0055e0c4     Game.obj
 0002:00016110       ??_C@_0EM@FAANJOJH@You?5cast?5a?5powerfull?5incantation@ 0055e110     Game.obj
 0002:0001616c       ??_C@_0DO@HAJPOACK@Ability?5that?5makes?5character?5unt@ 0055e16c     Game.obj
 0002:000161b8       ??_C@_0EA@CNEGBPNK@Ability?5that?5protects?5from?5physi@ 0055e1b8     Game.obj
 0002:00016204       ??_C@_0DK@DKOGPHLH@Ability?5that?5exhausts?5enemy?8s?5we@ 0055e204     Game.obj
 0002:0001624c       ??_C@_0DK@DEIPMOEJ@Ability?5that?5kills?5enemy?5at?5one?5@ 0055e24c     Game.obj
 0002:00016294       ??_C@_0DC@GAHLGGBI@Ability?5that?5paralyzes?5enemy?3?5Ca@ 0055e294     Game.obj
 0002:000162d0       ??_C@_0DA@FHGBBHBG@Ability?5that?5freezes?5enemy?3?5Can?5@ 0055e2d0     Game.obj
 0002:0001630c       ??_C@_0DO@EIJDBCGO@Ability?5that?5decreases?5enemy?8s?5H@ 0055e30c     Game.obj
 0002:00016358       ??_C@_0BF@LNLHELHP@Use?5special?5ability?$CB?$AA@ 0055e358     Game.obj
 0002:00016374       ??_C@_0BM@CGCOEKBB@You?5can?5resurrect?5a?5player?$CB?$AA@ 0055e374     Game.obj
 0002:00016398       ??_C@_0CE@FPGGELJN@You?5are?5untouchable?5for?5?$CFd?5secon@ 0055e398     Game.obj
 0002:000163c4       ??_C@_0DA@NHIHJMBJ@Protect?5from?5physical?5attack?$CB?5La@ 0055e3c4     Game.obj
 0002:00016400       ??_C@_0CK@OKFHEGIM@Exhaust?5enemy?8s?5weapon?$CB?5Lasts?5?$CFd@ 0055e400     Game.obj
 0002:00016434       ??_C@_0DH@FFNBDCOK@Earn?5same?5HP?5as?5you?5decrease?5ene@ 0055e434     Game.obj
 0002:00016478       ??_C@_0CG@MOCANGNJ@Kill?5enemy?5at?5once?$CB?5Lasts?5?$CFd?5sec@ 0055e478     Game.obj
 0002:000164a8       ??_C@_0CC@JFPGNPOL@Paralyze?5enemy?$CB?5Lasts?5?$CFd?5seconds@ 0055e4a8     Game.obj
 0002:000164d0       ??_C@_0CA@CBGDMANC@Freeze?5enemy?$CB?5Lasts?5?$CFd?5seconds?$CB?$AA@ 0055e4d0     Game.obj
 0002:000164f8       ??_C@_0CO@PHDAFNC@Decrease?5enemy?8s?5HP?5by?550?$CF?$CB?5Last@ 0055e4f8     Game.obj
 0002:00016530       ??_C@_0CF@FJDJFGOC@The?5Elvine?9Aresden?5war?5have?5fini@ 0055e530     Game.obj
 0002:0001655c       ??_C@_0DD@GCMNAKG@The?5battle?5has?5started?5between?5A@ 0055e55c     Game.obj
 0002:0001659c       ??_C@_0DH@HKNMDJKB@Beginners?5cannot?5go?5to?5the?5town?5@ 0055e59c     Game.obj
 0002:000165e0       ??_C@_0DK@GHJLNBFB@You?5can?8t?5move?5to?5other?5position@ 0055e5e0     Game.obj
 0002:00016628       ??_C@_0O@NBGBDCCO@Meteor?5Strike?$AA@ 0055e628     Game.obj
 0002:00016638       ??_C@_0CN@IKDEGOEI@Limit?5of?5buildings?$CB?5Destroy?5one?5@ 0055e638     Game.obj
 0002:00016670       ??_C@_06NOCODLJK@?$CFs?5?9?$CFd?$AA@ 0055e670     Game.obj
 0002:00016678       ??_C@_06PLEFGEEG@?$CFs?5?$CL?$CFd?$AA@ 0055e678     Game.obj
 0002:00016680       ??_C@_0P@PEBPAOCJ@?$CFs?5?$CL?$CFd?0?5?$CFs?5?$CL?$CFd?$AA@ 0055e680     Game.obj
 0002:00016694       ??_C@_0BL@BLCFIBJC@Warfare?5unit?5recall?5points?$AA@ 0055e694     Game.obj
 0002:000166b4       ??_C@_0BM@MKKLCBKF@?$CFs?5withdrew?5from?5the?5party?4?$AA@ 0055e6b4     Game.obj
 0002:000166d8       ??_C@_0BO@FKOIFICG@?$CFs?5was?5banned?5from?5the?5party?4?$AA@ 0055e6d8     Game.obj
 0002:000166fc       ??_C@_0BF@EMEFNENL@?$CFs?5joined?5the?5party?4?$AA@ 0055e6fc     Game.obj
 0002:00016718       ??_C@_0CA@HCCPPDKK@Your?5Reputation?5Descends?5by?5?$CFd?4?$AA@ 0055e718     Game.obj
 0002:00016740       ??_C@_0BP@OGBCKPIK@Your?5Reputation?5Ascends?5by?5?$CFd?4?$AA@ 0055e740     Game.obj
 0002:00016768       ??_C@_0CC@KABOLCNA@Your?5Contribution?5Descends?5by?5?$CFd@ 0055e768     Game.obj
 0002:00016790       ??_C@_0CB@NKNGCIKM@Your?5Contribution?5Ascends?5by?5?$CFd?4@ 0055e790     Game.obj
 0002:000167b8       ??_C@_0BO@FJEBFPMK@Magic?$CI?$CFs?$CJ?5has?5been?5forgotten?$CB?$AA@ 0055e7b8     Game.obj
 0002:000167dc       ??_C@_0CB@KIMJPHFA@You?8ll?5be?5forced?5to?5recall?5soon?4@ 0055e7dc     Game.obj
 0002:00016808       ??_C@_0FI@POFFPIOI@You?5have?5?$CFd?5minutes?5to?5get?5force@ 0055e808     Game.obj
 0002:00016874       ??_C@_0BM@IOGBADIB@Play?5mode?5has?5been?5changed?4?$AA@ 0055e874     Game.obj
 0002:00016898       ??_C@_0BK@BBOMDIEI@You?5cannot?5farm?5any?5more?4?$AA@ 0055e898     Game.obj
 0002:000168b8       ??_C@_0DJ@FKHPKAPL@Farming?5is?5not?5possible?5with?5you@ 0055e8b8     Game.obj
 0002:000168fc       ??_C@_0BN@BDBKNAJK@This?5is?5not?5an?5area?5to?5farm?4?$AA@ 0055e8fc     Game.obj
 0002:00016920       ??_C@_0CA@BDFNBFCI@Your?5stat?5has?5not?5been?5changed?4?$AA@ 0055e920     Game.obj
 0002:00016948       ??_C@_0DB@NEFBBKAN@The?5effect?5of?5the?5prophecy?9slate@ 0055e948     Game.obj
 0002:00016988       ??_C@_0FN@KLDJNLBF@You?8ve?5got?5the?5wisdom?4?5Now?0?5the?5@ 0055e988     Game.obj
 0002:000169f8       ??_C@_0CM@HGHGFNJJ@Your?5mana?5will?5be?5refilled?5by?5gr@ 0055e9f8     Game.obj
 0002:00016a30       ??_C@_0EI@ECNFHELA@You?5are?5invincible?5by?5divine?5pro@ 0055ea30     Game.obj
 0002:00016a88       ??_C@_0CK@EFKPOJPB@The?5slates?5are?5broken?5with?5a?5sha@ 0055ea88     Game.obj
 0002:00016abc       ??_C@_0CJ@INAKMGMP@The?5ancient?5prophecy?5slate?5is?5co@ 0055eabc     Game.obj
 0002:00016af0       ??_C@_0EF@HBKGKJDB@Heldenian?5has?5been?5started?$CB?5Tele@ 0055eaf0     Game.obj
 0002:00016b44       ??_C@_0CE@NDFOFAPG@Heldenian?5holy?5war?5has?5been?5clos@ 0055eb44     Game.obj
 0002:00016b70       ??_C@_0BL@DEPABMHI@Abaddon?5is?5destroyed?5by?5?$CFs?$AA@ 0055eb70     Game.obj
 0002:00016b90       ??_C@_0DO@OLLPDCOI@You?5are?5recalled?5by?5force?0?5becau@ 0055eb90     Game.obj
 0002:00016bdc       ??_C@_0BO@PNOOGHBE@Rest?5Monster?5?3?$CFd?0?5Pos?3?5?$CFd?0?5?$CFd?$AA@ 0055ebdc     Game.obj
 0002:00016c00       ??_C@_0CI@GHFNBMKM@The?5portal?5to?5the?5Apocalypse?5is?5@ 0055ec00     Game.obj
 0002:00016c30       ??_C@_0CI@KJGHIPAM@The?5portal?5to?5the?5Apocalypse?5is?5@ 0055ec30     Game.obj
 0002:00016c60       ??_C@_0CK@MBINHBPI@Your?5hands?5must?5be?5free?5to?5use?5t@ 0055ec60     Game.obj
 0002:00016c94       ??_C@_0CG@PJEMOLOF@You?5have?5received?5the?5Tutelary?5A@ 0055ec94     Game.obj
 0002:00016cc4       ??_C@_0CE@GFKOBEJH@Impossible?5to?5get?5a?5Tutelary?5Ang@ 0055ecc4     Game.obj
 0002:00016cf0       ??_C@_0CD@PKPDABNC@You?5need?5additional?5Slayer?5Point@ 0055ecf0     Game.obj
 0002:00016d1c       ??_C@_0DD@MEHLELJ@Only?5Majesty?5characters?5can?5rece@ 0055ed1c     Game.obj
 0002:00016d5c       ??_C@_0BI@CAEONDFK@Item?5cannot?5be?5released?$AA@ 0055ed5c     Game.obj
 0002:00016d78       ??_C@_0CH@OHGMBPEO@There?5is?5not?5enough?5Contribution@ 0055ed78     Game.obj
 0002:00016da8       ??_C@_0BN@LMAKHPAF@There?5is?5not?5enough?5material?$AA@ 0055eda8     Game.obj
 0002:00016dcc       ??_C@_0BA@IGPCABEC@Crafting?5failed?$AA@ 0055edcc     Game.obj
 0002:00016de0       ??_C@_0BK@PAHPEIKD@Item?5manufacture?5success?$CB?$AA@ 0055ede0     Game.obj
 0002:00016e00       ??_C@_0CK@INELBNFG@All?5event?5restrictions?5have?5been@ 0055ee00     Game.obj
 0002:00016e34       ??_C@_0BI@CBDFOPNM@Party?5has?5been?5enabled?4?$AA@ 0055ee34     Game.obj
 0002:00016e50       ??_C@_0BJ@PCDNOEHC@Party?5has?5been?5disabled?4?$AA@ 0055ee50     Game.obj
 0002:00016e70       ??_C@_0DD@HFIBDFHH@Chat?5has?5been?5enabled?4?5You?5can?5n@ 0055ee70     Game.obj
 0002:00016eb0       ??_C@_0DK@KLIGFKDI@Chat?5has?5been?5disabled?4?5You?5are?5@ 0055eeb0     Game.obj
 0002:00016ef8       ??_C@_0BL@BINMCPHC@Shields?5have?5been?5enabled?4?$AA@ 0055eef8     Game.obj
 0002:00016f18       ??_C@_0CB@HFEGBHO@Use?5of?5armors?5have?5been?5enabled?4@ 0055ef18     Game.obj
 0002:00016f40       ??_C@_0DB@INHGOALK@?$CFs?5has?5been?5enabled?4?5You?8re?5now?5@ 0055ef40     Game.obj
 0002:00016f7c       ??_C@_0BP@JJKENIFK@You?5have?5unlocked?5the?5title?5?$CFs?$AA@ 0055ef7c     Game.obj
 0002:00016fa4       ??_C@_0CH@EFDEHPBG@Teleports?5to?5the?5event?5are?5now?5c@ 0055efa4     Game.obj
 0002:00016fd4       ??_C@_0DG@EANEECDE@Teleports?5to?5the?5event?5are?5now?5a@ 0055efd4     Game.obj
 0002:00017014       ??_C@_0DE@NHOANELN@The?5illusion?5effect?5for?5the?5even@ 0055f014     Game.obj
 0002:00017054       ??_C@_0CJ@JJAHIEPK@Illusion?5has?5been?5actived?5for?5th@ 0055f054     Game.obj
 0002:00017088       ??_C@_0EF@HLJHAEDK@Warning?3?5Your?5map?5file?5may?5be?5in@ 0055f088     Game.obj
 0002:000170dc       ??_C@_0CP@PFBGMCBA@You?5draw?5a?5blank?4?5Please?5try?5aga@ 0055f0dc     Game.obj
 0002:00017114       ??_C@_0BG@MBHIGKNM@Berserk?5magic?5casted?$CB?$AA@ 0055f114     Game.obj
 0002:00017130       ??_C@_0CB@JLGBIAHF@Your?5Legion?5Coins?5Descend?5by?5?$CFd?4@ 0055f130     Game.obj
 0002:00017158       ??_C@_0CA@KOPHMOFM@Your?5Legion?5Coins?5Ascend?5by?5?$CFd?4?$AA@ 0055f158     Game.obj
 0002:00017180       ??_C@_0BO@GKHHOAK@Soccer?5event?5has?5been?5closed?4?$AA@ 0055f180     Game.obj
 0002:000171a4       ??_C@_0CO@KGHFBJLG@You?5successfully?5changed?5your?5ch@ 0055f1a4     Game.obj
 0002:000171dc       ??_C@_0CD@JIAHILKH@Player?5?$CFs?5requests?5aid?5at?5?$CI?$CFd?0?$CFd@ 0055f1dc     Game.obj
 0002:00017208       ??_C@_0DO@HMOHNPGD@Your?5guild?5captain?5?$CI?$CFs?$CJ?5requests@ 0055f208     Game.obj
 0002:00017254       ??_C@_0DN@NCIODJMJ@Your?5guild?5master?5?$CI?$CFs?$CJ?5requests?5@ 0055f254     Game.obj
 0002:000172a0       ??_C@_0BP@OLBIFGBK@Soccer?5event?5has?5been?5started?4?$AA@ 0055f2a0     Game.obj
 0002:000172c8       ??_C@_0BM@FKPDOBNL@Initiating?5item?5Crafting?4?4?4?$AA@ 0055f2c8     Game.obj
 0002:000172ec       ??_C@_0DI@EMIMBMIM@You?5should?5learn?5manufacturing?5s@ 0055f2ec     Game.obj
 0002:00017330       ??_C@_0DB@DBPMNKHC@You?5should?5learn?5alchemy?5skill?5t@ 0055f330     Game.obj
 0002:0001736c       ??_C@_0CP@DHIPPHHD@Item?5?$CFs?3?5Select?5an?5item?5which?5yo@ 0055f36c     Game.obj
 0002:000173a4       ??_C@_0DC@HMHGCNHN@Item?5?$CFs?3?5Select?5a?5position?5which@ 0055f3a4     Game.obj
 0002:000173e0       ??_C@_0DB@NFELAKML@You?5can?8t?5use?5this?5item?5because?5@ 0055f3e0     Game.obj
 0002:00017420       ??_C@_0EG@EBCPKKOD@Item?5?$CFs?3?5Scrolls?5cannot?5be?5used?5@ 0055f420     Game.obj
 0002:00017474       ??_C@_0CI@IDECCDNI@You?5can?5use?5after?5using?5the?5othe@ 0055f474     Game.obj
 0002:000174a4       ??_C@_05IPGANIA@Bound?$AA@ 0055f4a4     Game.obj
 0002:000174ac       ??_C@_0BB@EAEJIIFB@Endurance?3?5?$CFd?1?$CFd?$AA@ 0055f4ac     Game.obj
 0002:000174c0       ??_C@_08CDGAEAIH@Uses?3?5?$CFd?$AA@ 0055f4c0     Game.obj
 0002:000174cc       ??_C@_0BE@LOIBGPCI@ZemstoneofSacrifice?$AA@ 0055f4cc     Game.obj
 0002:000174e4       ??_C@_02LMMGGCAJ@?3?5?$AA@ 0055f4e4     Game.obj
 0002:000174e8       ??_C@_0CK@BDPLGJEF@Use?5on?5a?5Socketed?5Item?5to?5Give?5A@ 0055f4e8     Game.obj
 0002:0001751c       ??_C@_0DF@PDPJLAJI@Use?5on?5a?5Non?9Socketed?5Stated?5Ite@ 0055f51c     Game.obj
 0002:0001755c       ??_C@_0BM@OENOHJKB@Defense?5Ratio?3?5?$CFd?5?$CI?$CFd?$CF?$CF?5PA?$CJ?$AA@ 0055f55c     Game.obj
 0002:00017580       ??_C@_0BP@FOCIDGAC@?$CFs?5?9?$CFd?5Damage?5Reduced?5By?5NPC?8s?$AA@ 0055f580     Game.obj
 0002:000175a8       ??_C@_0BO@PKDCMMCA@Damage?3?5?$CFd?$HO?$CFd?5?$CIS?9M?$CJ?5?$CFd?$HO?$CFd?5?$CIL?$CJ?$AA@ 0055f5a8     Game.obj
 0002:000175cc       ??_C@_0BA@GBPKKBNA@?$CL?$CFd?5True?5Damage?$AA@ 0055f5cc     Game.obj
 0002:000175e0       ??_C@_0CD@LJJCOJJB@?$CFs?5?$CFd?$CF?$CF?5Global?5Physical?5Absorpti@ 0055f5e0     Game.obj
 0002:0001760c       ??_C@_0CI@HIIFBJFB@?$CFs?5?$CFd?$CF?$CF?5chance?5to?5drop?5nothing?5o@ 0055f60c     Game.obj
 0002:0001763c       ??_C@_0BE@IJJJJNHM@Damage?3?5?$CFd?$HO?$CFd?5?$CIS?9M?$CJ?$AA@ 0055f63c     Game.obj
 0002:00017654       ??_C@_0DE@JPBFOCFH@?$CFs?5?$CL1?5Damage?5Per?5100?5EK?8s?5Less?5T@ 0055f654     Game.obj
 0002:00017694       ??_C@_0CN@PELPGIKH@?$CFs?5Untouchable?5From?5All?5Attacks?5@ 0055f694     Game.obj
 0002:000176cc       ??_C@_0DB@BIEAGAJE@?$CFs?5Protection?5From?5Physical?5Atta@ 0055f6cc     Game.obj
 0002:00017708       ??_C@_0DE@EBBNIENG@?$CFs?5Exhausts?5an?5Enemy?8s?5Weapon?5Wh@ 0055f708     Game.obj
 0002:00017748       ??_C@_0DJ@HEBLCEBH@?$CFs?5Each?5Hit?5Gains?5Life?5Equal?5To?5@ 0055f748     Game.obj
 0002:0001778c       ??_C@_0DC@DIEIMAIB@?$CFs?5Each?5Hit?5Instantly?5Kills?5An?5E@ 0055f78c     Game.obj
 0002:000177c8       ??_C@_0DB@KKGGGIGE@?$CFs?5Each?5Hit?5Holds?5an?5Enemy?5In?5Pl@ 0055f7c8     Game.obj
 0002:00017804       ??_C@_0CK@FFBAEHMA@?$CFs?5Each?5Hit?5Freezes?5an?5Enemy?5?$CIAc@ 0055f804     Game.obj
 0002:00017838       ??_C@_0DJ@OJGNKLAC@?$CFs?5Each?5Hit?5Decreases?5an?5Enemy?8s@ 0055f838     Game.obj
 0002:0001787c       ??_C@_0DC@CBMPAJIO@?$CFs?5?$CFd?$CF?$CF?5Physical?5Absorption?5Agai@ 0055f87c     Game.obj
 0002:000178b8       ??_C@_0BA@KDEDPIPA@?$CL?$CFd?$CF?$CF?5Mana?5Save?$AA@ 0055f8b8     Game.obj
 0002:000178cc       ??_C@_0CC@BMEECFIJ@?$CFs?5Reduces?5Maximum?5Health?5By?5?$CFd?$CF@ 0055f8cc     Game.obj
 0002:000178f4       ??_C@_0CA@GJMKFALP@?$CFs?5?$CL30?$CF?$CF?5Increased?5Magic?5Damage?$AA@ 0055f8f4     Game.obj
 0002:0001791c       ??_C@_0CN@LJGLIENC@?$CFs?5Resurrects?5a?5Friendly?5Player?5@ 0055f91c     Game.obj
 0002:00017954       ??_C@_0CO@EELFCHBF@?$CFs?5?$CL2?5Damage?5Dealt?5Per?5Nearby?5En@ 0055f954     Game.obj
 0002:0001798c       ??_C@_0CC@IFAGHFME@?$CFs?5?$CL?$CFd?5Bonus?5Damage?5Against?5NPC?8@ 0055f98c     Game.obj
 0002:000179b4       ??_C@_0DB@OHIJLMPH@?$CFs?5?92?5Damage?5Received?5Per?5Nearby@ 0055f9b4     Game.obj
 0002:000179f0       ??_C@_08CNDPDCJF@Ability?3?$AA@ 0055f9f0     Game.obj
 0002:000179fc       ??_C@_08LFPPEINB@?5?$CI?$CFu?1?$CFu?$CJ?$AA@ 0055f9fc     Game.obj
 0002:00017a08       ??_C@_03MFEGABGE@?$CL?$CFu?$AA@ 0055fa08     Game.obj
 0002:00017a0c       ??_C@_08BAELDFCI@?5Tier?5?$CFd?$AA@ 0055fa0c     Game.obj
 0002:00017a18       ??_C@_09JKMODIKO@Vortexed?5?$AA@ 0055fa18     Game.obj
 0002:00017a24       ??_C@_03IOOJPBPG@?$CFu?5?$AA@ 0055fa24     Game.obj
 0002:00017a28       ??_C@_07GGMEMKJJ@test1?93?$AA@ 0055fa28     Game.obj
 0002:00017a34       ??_C@_0BC@DHNPONIN@Space?5used?3?5?$CFd?1?$CFd?$AA@ 0055fa34     Game.obj
 0002:00017a4c       ??_C@_0CK@LGJIKOAC@deposit?5it?4?5Click?5an?5item?5to?5wit@ 0055fa4c     Game.obj
 0002:00017a80       ??_C@_0CD@NFFNEBBH@Drop?5an?5item?5to?5the?5bank?5window?5@ 0055fa80     Game.obj
 0002:00017ab0       __real@4016000000000000    0055fab0     Game.obj
 0002:00017abc       ??_C@_07HPNPPLNI@test1?92?$AA@ 0055fabc     Game.obj
 0002:00017ac8       ??_C@_07FEPCKIBL@test1?91?$AA@ 0055fac8     Game.obj
 0002:00017ad4       ??_C@_0CH@OPBGCJKB@Please?5wait?5until?5process?5is?5fin@ 0055fad4     Game.obj
 0002:00017b04       ??_C@_0BD@EOCKFGDC@Taking?5back?5items?4?$AA@ 0055fb04     Game.obj
 0002:00017b1c       ??_C@_06FMBNCPDL@Cancel?$AA@ 0055fb1c     Game.obj
 0002:00017b24       ??_C@_0CJ@FIENLMIB@will?5not?5be?5able?5to?5cancel?5the?5e@ 0055fb24     Game.obj
 0002:00017b58       ??_C@_0CI@GICEBABC@when?5you?5press?5the?5EXCHANGE?5butt@ 0055fb58     Game.obj
 0002:00017b88       ??_C@_0CG@BFMMELGE@CANCEL?5button?5to?5cancel?4?5Occasio@ 0055fb88     Game.obj
 0002:00017bb8       ??_C@_0CH@FOMPFIGJ@button?5to?5exchange?5as?5above?4?5Pre@ 0055fbb8     Game.obj
 0002:00017be8       ??_C@_0CG@GFGEINEF@has?5been?5finished?4?5Press?5the?5EXC@ 0055fbe8     Game.obj
 0002:00017c18       ??_C@_0CC@LJJJGALC@The?5preparation?5for?5item?5exchang@ 0055fc18     Game.obj
 0002:00017c40       ??_C@_0BM@HFHABPPN@pressing?5the?5CANCEL?5button?4?$AA@ 0055fc40     Game.obj
 0002:00017c64       ??_C@_0CG@GICCDJLK@And?5you?5can?5also?5reject?5an?5offer@ 0055fc64     Game.obj
 0002:00017c94       ??_C@_0CG@PICAPLLP@blank?5and?5press?5the?5EXCHANGE?5but@ 0055fc94     Game.obj
 0002:00017cc4       ??_C@_0CG@KHIBKIFH@hange?5with?5above?5item?0?5drag?5it?5t@ 0055fcc4     Game.obj
 0002:00017cf4       ??_C@_0CG@LGICCLGG@Select?5an?5item?5which?5you?5want?5to@ 0055fcf4     Game.obj
 0002:00017d24       ??_C@_0CG@BOIEEHLN@Other?5player?5offered?5an?5item?5exc@ 0055fd24     Game.obj
 0002:00017d54       ??_C@_0CG@HJDOCPCC@exchange?5press?5the?5CANCEL?5button@ 0055fd54     Game.obj
 0002:00017d84       ??_C@_0CH@DGCECIFB@to?5exchange?4?5If?5you?5want?5to?5canc@ 0055fd84     Game.obj
 0002:00017db4       ??_C@_0CH@BBAHOCMO@Please?5wait?5until?5other?5player?5d@ 0055fdb4     Game.obj
 0002:00017de4       ??_C@_0CO@EIBIHAAN@decided?5to?5exchange?0?5you?5can?8t?5c@ 0055fde4     Game.obj
 0002:00017e1c       ??_C@_0CL@FMNANPBI@CANCEL?5button?4?5But?5if?5other?5play@ 0055fe1c     Game.obj
 0002:00017e50       ??_C@_0CM@JAOFGLEE@you?5can?5cancel?5the?5exchange?5by?5p@ 0055fe50     Game.obj
 0002:00017e84       ??_C@_0CN@HICEMEKI@?5If?5other?5player?5does?5not?5decide@ 0055fe84     Game.obj
 0002:00017ebc       ??_C@_0BK@EAMBBKH@unless?5both?5people?5agree?4?$AA@ 0055febc     Game.obj
 0002:00017edc       ??_C@_0CJ@LEAFDCCE@exchange?4?5The?5exchange?5can?8t?5be?5@ 0055fedc     Game.obj
 0002:00017f10       ??_C@_0BP@LGMOIAPJ@Please?5wait?5until?5?$CFs?5agrees?5to?$AA@ 0055ff10     Game.obj
 0002:00017f38       ??_C@_0BB@IIAPKCAC@Buyout?5Price?3?5?$CFd?$AA@ 0055ff38     Game.obj
 0002:00017f4c       ??_C@_0L@NHNIPLNK@Bid?5Amount?$AA@ 0055ff4c     Game.obj
 0002:00017f5c       ??_C@_07PFLFDAOG@Tax?3?5?$CFd?$AA@ 0055ff5c     Game.obj
 0002:00017f68       ??_C@_0N@PCAKJBNE@Buyout?5Price?$AA@ 0055ff68     Game.obj
 0002:00017f78       ??_C@_0M@MJAOJDND@Minimum?5Bid?$AA@ 0055ff78     Game.obj
 0002:00017f88       ??_C@_06HKBMKICC@Amount?$AA@ 0055ff88     Game.obj
 0002:00017f90       ??_C@_0DG@OPPIGMHK@?$CK?5There?5is?5a?55?$CF?5transaction?5fee?5@ 0055ff90     Game.obj
 0002:00017fd0       ??_C@_0DI@JCBMACNI@Drop?5the?5item?5that?5you?5want?5to?5s@ 0055ffd0     Game.obj
 0002:00018018       __real@4071200000000000    00560018     Game.obj
 0002:00018024       ??_C@_08EOKDCCIB@sprfonts?$AA@ 00560024     Game.obj
 0002:00018030       ??_C@_0BF@CPBIOGMK@sprites?2sprfonts?4pak?$AA@ 00560030     Game.obj
 0002:0001804c       ??_C@_0L@MOHMJIIE@interface2?$AA@ 0056004c     Game.obj
 0002:0001805c       ??_C@_0BH@FLCBKILN@sprites?2interface2?4pak?$AA@ 0056005c     Game.obj
 0002:00018078       ??_C@_0L@JLNLPOG@lgn_dialog?$AA@ 00560078     Game.obj
 0002:00018088       ??_C@_0BH@CHMGFHCM@sprites?2lgn_dialog?4lpk?$AA@ 00560088     Game.obj
 0002:000180a4       ??_C@_0CD@GCOBLLEC@This?5program?5requires?5DirectX7?40@ 005600a4     Game.obj
 0002:000180d0       ??_C@_0CN@JIEJKLFK@SKILLCFG?4TXT?5file?5contains?5wrong@ 005600d0     Game.obj
 0002:00018108       ??_C@_0CK@BLKMGEC@Magic?4cfg?5file?5contains?5wrong?5in@ 00560108     Game.obj
 0002:0001813c       ??_C@_0CN@HNDAHFDD@ItemName?4cfg?5file?5contains?5wrong@ 0056013c     Game.obj
 0002:00018174       ??_C@_06DGAKKJMM@ERROR2?$AA@ 00560174     Game.obj
 0002:0001817c       ??_C@_0CJ@BEKILIPF@Item?4cfg?5file?5contains?5wrong?5inf@ 0056017c     Game.obj
 0002:000181b0       ??_C@_05OCGGJDIG@dataq?$AA@ 005601b0     Game.obj
 0002:000181b8       ??_C@_08GFKEPFEB@?1egparam?$AA@ 005601b8     Game.obj
 0002:000181c4       ??_C@_06KIABNEND@?$CG?$DN?5?0?7?6?$AA@ 005601c4     Game.obj
 0002:000181cc       ??_C@_0P@DNBNIPAJ@sounds?2E?$CFd?4wav?$AA@ 005601cc     Game.obj
 0002:000181e0       ??_C@_0P@OOPIJELM@sounds?2M?$CFd?4wav?$AA@ 005601e0     Game.obj
 0002:000181f4       ??_C@_0P@PLHCIGIO@sounds?2C?$CFd?4wav?$AA@ 005601f4     Game.obj
 0002:00018208       ??_C@_0M@DDDDFAOI@lgn_effects?$AA@ 00560208     Game.obj
 0002:00018218       ??_C@_09KOBFPIOA@yseffect3?$AA@ 00560218     Game.obj
 0002:00018224       ??_C@_09LHAOMJKB@yseffect2?$AA@ 00560224     Game.obj
 0002:00018230       ??_C@_08FLMPIADA@effect12?$AA@ 00560230     Game.obj
 0002:0001823c       ??_C@_08DPKDEFDE@effect16?$AA@ 0056023c     Game.obj
 0002:00018248       ??_C@_0L@HNMPGCHP@crueffect2?$AA@ 00560248     Game.obj
 0002:00018258       ??_C@_08BEIOBGPH@effect15?$AA@ 00560258     Game.obj
 0002:00018264       ??_C@_08NJFCHLG@effect14?$AA@ 00560264     Game.obj
 0002:00018270       ??_C@_09OBFEGOCH@yseffect4?$AA@ 00560270     Game.obj
 0002:0001827c       ??_C@_09CANGGLEA@effect11s?$AA@ 0056027c     Game.obj
 0002:00018288       ??_C@_08HAOCNDPD@effect11?$AA@ 00560288     Game.obj
 0002:00018294       ??_C@_08GJPJOCLC@effect10?$AA@ 00560294     Game.obj
 0002:000182a0       ??_C@_07BBCAPGDH@effect9?$AA@ 005602a0     Game.obj
 0002:000182ac       ??_C@_07IDLMHHG@effect8?$AA@ 005602ac     Game.obj
 0002:000182b8       ??_C@_07IPKDNLLJ@effect7?$AA@ 005602b8     Game.obj
 0002:000182c4       ??_C@_07JGLIOKPI@effect6?$AA@ 005602c4     Game.obj
 0002:000182d0       ??_C@_0L@CJAINMDN@CruEffect1?$AA@ 005602d0     Game.obj
 0002:000182e0       ??_C@_07LNJFLJDL@effect5?$AA@ 005602e0     Game.obj
 0002:000182ec       ??_C@_0BE@EDALPDAP@sprites?2effect5?4pak?$AA@ 005602ec     Game.obj
 0002:00018304       ??_C@_07KEIOIIHK@effect4?$AA@ 00560304     Game.obj
 0002:00018310       ??_C@_07OLMPBOLN@effect3?$AA@ 00560310     Game.obj
 0002:0001831c       ??_C@_07PCNECPPM@effect2?$AA@ 0056031c     Game.obj
 0002:00018328       ??_C@_06HOPIODND@effect?$AA@ 00560328     Game.obj
 0002:00018330       ??_C@_03HDPCCAFO@Wsh?$AA@  00560330     Game.obj
 0002:00018334       ??_C@_0BA@FCBAFNGH@sprites?2Wsh?4pak?$AA@ 00560334     Game.obj
 0002:00018348       ??_C@_0BA@IOLMPKKF@sprites?2Wbo?4pak?$AA@ 00560348     Game.obj
 0002:0001835c       ??_C@_03CBFHHPNO@Wbo?$AA@  0056035c     Game.obj
 0002:00018360       ??_C@_07GKNMILBO@GodCapW?$AA@ 00560360     Game.obj
 0002:0001836c       ??_C@_08KDOLPEBJ@GodHelmW?$AA@ 0056036c     Game.obj
 0002:00018378       ??_C@_07MFJHOEJD@WHHelm3?$AA@ 00560378     Game.obj
 0002:00018384       ??_C@_06ECKCPBGH@WHCap2?$AA@ 00560384     Game.obj
 0002:0001838c       ??_C@_06GJIPKCKE@WHCap1?$AA@ 0056038c     Game.obj
 0002:00018394       ??_C@_07NMIMNFNC@WHHelm2?$AA@ 00560394     Game.obj
 0002:000183a0       ??_C@_07PHKBIGBB@WHHelm1?$AA@ 005603a0     Game.obj
 0002:000183ac       ??_C@_07HILELEHD@NWHelm4?$AA@ 005603ac     Game.obj
 0002:000183b8       ??_C@_07DHPFCCLE@NWHelm3?$AA@ 005603b8     Game.obj
 0002:000183c4       ??_C@_07COOOBDPF@NWHelm2?$AA@ 005603c4     Game.obj
 0002:000183d0       ??_C@_07FMDEADG@NWHelm1?$AA@ 005603d0     Game.obj
 0002:000183dc       ??_C@_06LMONGELL@WHelm4?$AA@ 005603dc     Game.obj
 0002:000183e4       ??_C@_06MBJKJAPO@WHelm1?$AA@ 005603e4     Game.obj
 0002:000183ec       ??_C@_06JDDLKNGL@WWings?$AA@ 005603ec     Game.obj
 0002:000183f4       ??_C@_09NOCEHABH@Wmantle08?$AA@ 005603f4     Game.obj
 0002:00018400       ??_C@_09FJLMGMNI@Wmantle07?$AA@ 00560400     Game.obj
 0002:0001840c       ??_C@_09EAKHFNJJ@Wmantle06?$AA@ 0056040c     Game.obj
 0002:00018418       ??_C@_09GLIKAOFK@Wmantle05?$AA@ 00560418     Game.obj
 0002:00018424       ??_C@_09HCJBDPBL@Wmantle04?$AA@ 00560424     Game.obj
 0002:00018430       ??_C@_09DNNAKJNM@Wmantle03?$AA@ 00560430     Game.obj
 0002:0001843c       ??_C@_09CEMLJIJN@Wmantle02?$AA@ 0056043c     Game.obj
 0002:00018448       ??_C@_0N@DICAPOEA@Wmantle01_CT?$AA@ 00560448     Game.obj
 0002:00018458       ??_C@_09POGMLFO@Wmantle01?$AA@ 00560458     Game.obj
 0002:00018464       ??_C@_08PLMJKCNP@WFireBow?$AA@ 00560464     Game.obj
 0002:00018470       ??_C@_0L@FENCLFP@WDirectBow?$AA@ 00560470     Game.obj
 0002:00018480       ??_C@_07KNPNEPD@WStaff4?$AA@ 00560480     Game.obj
 0002:0001848c       ??_C@_0M@GMNJFBMJ@lgn_Staff4W?$AA@ 0056048c     Game.obj
 0002:0001849c       ??_C@_0N@KJEMEKKM@WKlonessWand?$AA@ 0056049c     Game.obj
 0002:000184ac       ??_C@_0N@FFPMHJBO@WReMagicWand?$AA@ 005604ac     Game.obj
 0002:000184bc       ??_C@_07EFJOECDE@WStaff3?$AA@ 005604bc     Game.obj
 0002:000184c8       ??_C@_07JDDIEKOJ@Wstaff2?$AA@ 005604c8     Game.obj
 0002:000184d4       ??_C@_07LIBFBJCK@Wstaff1?$AA@ 005604d4     Game.obj
 0002:000184e0       ??_C@_0N@IJIFGKIE@WBerserkWand?$AA@ 005604e0     Game.obj
 0002:000184f0       ??_C@_0O@PLEGGMBO@WBShadowSword?$AA@ 005604f0     Game.obj
 0002:00018500       ??_C@_0L@MJNDAKHE@WBabHammer?$AA@ 00560500     Game.obj
 0002:00018510       ??_C@_08CLMKGLAC@WBHammer?$AA@ 00560510     Game.obj
 0002:0001851c       ??_C@_07IKIJLDDF@WHammer?$AA@ 0056051c     Game.obj
 0002:00018528       ??_C@_0M@NENONAIJ@WLightBlade?$AA@ 00560528     Game.obj
 0002:00018538       ??_C@_0M@DPEKBDNK@WKlonessAxe?$AA@ 00560538     Game.obj
 0002:00018548       ??_C@_04BGHNNHCK@Whoe?$AA@ 00560548     Game.obj
 0002:00018550       ??_C@_05FDKOAHCH@WAxe6?$AA@ 00560550     Game.obj
 0002:00018558       ??_C@_09ODIOCMOP@WpickAxe1?$AA@ 00560558     Game.obj
 0002:00018564       ??_C@_05HIIDFEOE@WAxe5?$AA@ 00560564     Game.obj
 0002:0001856c       ??_C@_05GBJIGFKF@WAxe4?$AA@ 0056056c     Game.obj
 0002:00018574       ??_C@_05CONJPDGC@WAxe3?$AA@ 00560574     Game.obj
 0002:0001857c       ??_C@_05DHMCMCCD@WAxe2?$AA@ 0056057c     Game.obj
 0002:00018584       ??_C@_05BMOPJBOA@WAxe1?$AA@ 00560584     Game.obj
 0002:0001858c       ??_C@_0M@KAPMFNHD@WDebastator?$AA@ 0056058c     Game.obj
 0002:0001859c       ??_C@_0P@OPGCDHHE@WKlonessAstock?$AA@ 0056059c     Game.obj
 0002:000185b0       ??_C@_0O@DEKLHLKE@WKlonessBlade?$AA@ 005605b0     Game.obj
 0002:000185c0       ??_C@_09PPBCKIOI@WDarkExec?$AA@ 005605c0     Game.obj
 0002:000185cc       ??_C@_0O@IPGABJNA@WStormBringer?$AA@ 005605cc     Game.obj
 0002:000185dc       ??_C@_04GPLBAPKO@Wsw3?$AA@ 005605dc     Game.obj
 0002:000185e4       ??_C@_04HGKKDOOP@Wsw2?$AA@ 005605e4     Game.obj
 0002:000185ec       ??_C@_04HMDMJJGA@Wswx?$AA@ 005605ec     Game.obj
 0002:000185f4       ??_C@_03LOKICOMA@Wsw?$AA@  005605f4     Game.obj
 0002:000185f8       ??_C@_0BA@KAJAONCJ@sprites?2Wsw?4pak?$AA@ 005605f8     Game.obj
 0002:0001860c       ??_C@_07CLMIIDFD@WLBoots?$AA@ 0056060c     Game.obj
 0002:00018618       ??_C@_06IOPCHFMG@WShoes?$AA@ 00560618     Game.obj
 0002:00018620       ??_C@_0N@IALGIFNP@GodLeggingsW?$AA@ 00560620     Game.obj
 0002:00018630       ??_C@_0M@LCMAFAMJ@WHLeggings2?$AA@ 00560630     Game.obj
 0002:00018640       ??_C@_0M@JJONADAK@WHLeggings1?$AA@ 00560640     Game.obj
 0002:00018650       ??_C@_09LKKBHLGB@WLeggings?$AA@ 00560650     Game.obj
 0002:0001865c       ??_C@_07HLDAPBLM@WCHoses?$AA@ 0056065c     Game.obj
 0002:00018668       ??_C@_09GKGDFIGE@WHTrouser?$AA@ 00560668     Game.obj
 0002:00018674       ??_C@_08EHFBDECN@WTrouser?$AA@ 00560674     Game.obj
 0002:00018680       ??_C@_06LKBBHDPI@WSkirt?$AA@ 00560680     Game.obj
 0002:00018688       ??_C@_0M@HIAKIOIE@GodHauberkW?$AA@ 00560688     Game.obj
 0002:00018698       ??_C@_0L@PDOBHBJN@WHHauberk2?$AA@ 00560698     Game.obj
 0002:000186a8       ??_C@_0L@NIMMCCFO@WHHauberk1?$AA@ 005606a8     Game.obj
 0002:000186b8       ??_C@_08LNOFOINL@WHauberk?$AA@ 005606b8     Game.obj
 0002:000186c4       ??_C@_06PNLBAJCI@WShirt?$AA@ 005606c4     Game.obj
 0002:000186cc       ??_C@_08DNJOGJMC@WChemiss?$AA@ 005606cc     Game.obj
 0002:000186d8       ??_C@_09HBDAIEMC@GodPMailW?$AA@ 005606d8     Game.obj
 0002:000186e4       ??_C@_08KFNKOLMO@GodRobeW?$AA@ 005606e4     Game.obj
 0002:000186f0       ??_C@_07NKLNMKAF@WHRobe2?$AA@ 005606f0     Game.obj
 0002:000186fc       ??_C@_07PBJAJJMG@WHRobe1?$AA@ 005606fc     Game.obj
 0002:00018708       ??_C@_08CLGPGOPC@WHPMail2?$AA@ 00560708     Game.obj
 0002:00018714       ??_C@_08ECDNDB@WHPMail1?$AA@ 00560714     Game.obj
 0002:00018720       ??_C@_06FOEOMJEG@WSanta?$AA@ 00560720     Game.obj
 0002:00018728       ??_C@_06MHKLIPCJ@WRobe1?$AA@ 00560728     Game.obj
 0002:00018730       ??_C@_06CFNICHNF@WPMail?$AA@ 00560730     Game.obj
 0002:00018738       ??_C@_06KDEMFFHL@WSMail?$AA@ 00560738     Game.obj
 0002:00018740       ??_C@_06KAJKFHOA@WCMail?$AA@ 00560740     Game.obj
 0002:00018748       ??_C@_07JGENBHJF@WLArmor?$AA@ 00560748     Game.obj
 0002:00018754       ??_C@_08JEDLGDFF@WBodice2?$AA@ 00560754     Game.obj
 0002:00018760       ??_C@_08LPBGDAJG@WBodice1?$AA@ 00560760     Game.obj
 0002:0001876c       ??_C@_03NDKMJGBE@Whr?$AA@  0056076c     Game.obj
 0002:00018770       ??_C@_0BA@JFIELEKO@sprites?2Whr?4pak?$AA@ 00560770     Game.obj
 0002:00018784       ??_C@_03JHMDMDFK@Wpt?$AA@  00560784     Game.obj
 0002:00018788       ??_C@_0BA@BHOMIFBK@sprites?2Wpt?4pak?$AA@ 00560788     Game.obj
 0002:0001879c       ??_C@_06JJKECIEG@GodCap?$AA@ 0056079c     Game.obj
 0002:000187a4       ??_C@_07KCPLKJDF@GodHelm?$AA@ 005607a4     Game.obj
 0002:000187b0       ??_C@_06IBAMDCOH@MHCap2?$AA@ 005607b0     Game.obj
 0002:000187b8       ??_C@_06KKCBGBCE@MHCap1?$AA@ 005607b8     Game.obj
 0002:000187c0       ??_C@_07DBPHPIDB@MHHelm2?$AA@ 005607c0     Game.obj
 0002:000187cc       ??_C@_07BKNKKLPC@MHHelm1?$AA@ 005607cc     Game.obj
 0002:000187d8       ??_C@_07LLBKHHPD@NMHelm4?$AA@ 005607d8     Game.obj
 0002:000187e4       ??_C@_07PEFLOBDE@NMHelm3?$AA@ 005607e4     Game.obj
 0002:000187f0       ??_C@_07ONEANAHF@NMHelm2?$AA@ 005607f0     Game.obj
 0002:000187fc       ??_C@_07MGGNIDLG@NMHelm1?$AA@ 005607fc     Game.obj
 0002:00018808       ??_C@_06HPEDKHDL@MHelm4?$AA@ 00560808     Game.obj
 0002:00018810       ??_C@_06DAACDBPM@MHelm3?$AA@ 00560810     Game.obj
 0002:00018818       ??_C@_06CJBJAALN@MHelm2?$AA@ 00560818     Game.obj
 0002:00018820       ??_C@_06CDEFDHO@MHelm1?$AA@ 00560820     Game.obj
 0002:00018828       ??_C@_06FAJFGOOL@MWings?$AA@ 00560828     Game.obj
 0002:00018830       ??_C@_09OOKIGBDG@Mmantle08?$AA@ 00560830     Game.obj
 0002:0001883c       ??_C@_09GJDAHNPJ@Mmantle07?$AA@ 0056083c     Game.obj
 0002:00018848       ??_C@_09HACLEMLI@Mmantle06?$AA@ 00560848     Game.obj
 0002:00018854       ??_C@_09FLAGBPHL@Mmantle05?$AA@ 00560854     Game.obj
 0002:00018860       ??_C@_09ECBNCODK@Mmantle04?$AA@ 00560860     Game.obj
 0002:0001886c       ??_C@_09NFMLIPN@Mmantle03?$AA@ 0056086c     Game.obj
 0002:00018878       ??_C@_09BEEHIJLM@Mmantle02?$AA@ 00560878     Game.obj
 0002:00018884       ??_C@_09DPGKNKHP@Mmantle01?$AA@ 00560884     Game.obj
 0002:00018890       ??_C@_03EMFGJHKF@Msh?$AA@  00560890     Game.obj
 0002:00018894       ??_C@_0BA@LPGLHAIE@sprites?2Msh?4pak?$AA@ 00560894     Game.obj
 0002:000188a8       ??_C@_0BA@GDMHNHEG@sprites?2Mbo?4pak?$AA@ 005608a8     Game.obj
 0002:000188bc       ??_C@_03BOPDMICF@Mbo?$AA@  005608bc     Game.obj
 0002:000188c0       ??_C@_07OHKEPJBA@MStaff4?$AA@ 005608c0     Game.obj
 0002:000188cc       ??_C@_08MCCHGKDA@MFireBow?$AA@ 005608cc     Game.obj
 0002:000188d8       ??_C@_0L@EJBELHBA@MDirectBow?$AA@ 005608d8     Game.obj
 0002:000188e8       ??_C@_0M@NMPEKLBC@lgn_Staff4M?$AA@ 005608e8     Game.obj
 0002:000188f8       ??_C@_0N@CHBEIKFA@MKlonessWand?$AA@ 005608f8     Game.obj
 0002:00018908       ??_C@_0N@NLKELJOC@MReMagicWand?$AA@ 00560908     Game.obj
 0002:00018918       ??_C@_07KIOFGPNH@MStaff3?$AA@ 00560918     Game.obj
 0002:00018924       ??_C@_07HOEDGHAK@Mstaff2?$AA@ 00560924     Game.obj
 0002:00018930       ??_C@_07FFGODEMJ@Mstaff1?$AA@ 00560930     Game.obj
 0002:0001893c       ??_C@_0N@HNNKKHI@MBerserkWand?$AA@ 0056093c     Game.obj
 0002:0001894c       ??_C@_0O@EPMDIKOJ@MBShadowSword?$AA@ 0056094c     Game.obj
 0002:0001895c       ??_C@_0L@IFIKJGDL@MBabHammer?$AA@ 0056095c     Game.obj
 0002:0001896c       ??_C@_08BCCEKDON@MBHammer?$AA@ 0056096c     Game.obj
 0002:00018978       ??_C@_07GHPCJONG@MHammer?$AA@ 00560978     Game.obj
 0002:00018984       ??_C@_0M@DCPBNFBE@MLightBlade?$AA@ 00560984     Game.obj
 0002:00018994       ??_C@_0M@NJGFBGEH@MKlonessAxe?$AA@ 00560994     Game.obj
 0002:000189a4       ??_C@_04DMCNFIAJ@Mhoe?$AA@ 005609a4     Game.obj
 0002:000189ac       ??_C@_05PBODCGNK@MAxe6?$AA@ 005609ac     Game.obj
 0002:000189b4       ??_C@_09FBPDLPGN@MPickAxe1?$AA@ 005609b4     Game.obj
 0002:000189c0       ??_C@_05NKMOHFBJ@MAxe5?$AA@ 005609c0     Game.obj
 0002:000189c8       ??_C@_05MDNFEEFI@MAxe4?$AA@ 005609c8     Game.obj
 0002:000189d0       ??_C@_05IMJENCJP@MAxe3?$AA@ 005609d0     Game.obj
 0002:000189d8       ??_C@_05JFIPODNO@MAxe2?$AA@ 005609d8     Game.obj
 0002:000189e0       ??_C@_05LOKCLABN@MAxe1?$AA@ 005609e0     Game.obj
 0002:000189e8       ??_C@_0M@EGNDFIOO@MDebastator?$AA@ 005609e8     Game.obj
 0002:000189f8       ??_C@_0P@MMAPNFCN@MKlonessAstock?$AA@ 005609f8     Game.obj
 0002:00018a0c       ??_C@_0O@IACOJNFD@MKlonessBlade?$AA@ 00560a0c     Game.obj
 0002:00018a1c       ??_C@_09MPJOLJMJ@MDarkExec?$AA@ 00560a1c     Game.obj
 0002:00018a28       ??_C@_0O@DLOFPPCH@MStormBringer?$AA@ 00560a28     Game.obj
 0002:00018a38       ??_C@_04EFOBIAIN@Msw3?$AA@ 00560a38     Game.obj
 0002:00018a40       ??_C@_04FMPKLBMM@Msw2?$AA@ 00560a40     Game.obj
 0002:00018a48       ??_C@_04FGGMBGED@Mswx?$AA@ 00560a48     Game.obj
 0002:00018a50       ??_C@_03IBAMJJDL@Msw?$AA@  00560a50     Game.obj
 0002:00018a54       ??_C@_0BA@ENOLMAMK@sprites?2Msw?4pak?$AA@ 00560a54     Game.obj
 0002:00018a68       ??_C@_07MGLDKOLA@MLBoots?$AA@ 00560a68     Game.obj
 0002:00018a74       ??_C@_06ENFMLGEG@MShoes?$AA@ 00560a74     Game.obj
 0002:00018a7c       ??_C@_0M@CGONNAMC@GodLeggings?$AA@ 00560a7c     Game.obj
 0002:00018a8c       ??_C@_0M@FEOPFFFE@MHLeggings2?$AA@ 00560a8c     Game.obj
 0002:00018a9c       ??_C@_0M@HPMCAGJH@MHLeggings1?$AA@ 00560a9c     Game.obj
 0002:00018aac       ??_C@_09IKCNGKEA@MLeggings?$AA@ 00560aac     Game.obj
 0002:00018ab8       ??_C@_07JGELNMFP@MCHoses?$AA@ 00560ab8     Game.obj
 0002:00018ac4       ??_C@_09FKOPEJEF@MHTrouser?$AA@ 00560ac4     Game.obj
 0002:00018ad0       ??_C@_08HOLPPMMC@MTrouser?$AA@ 00560ad0     Game.obj
 0002:00018adc       ??_C@_0L@PIEIOCBP@GodHauberk?$AA@ 00560adc     Game.obj
 0002:00018aec       ??_C@_0L@LPLIONNC@MHHauberk2?$AA@ 00560aec     Game.obj
 0002:00018afc       ??_C@_0L@JEJFLOBB@MHHauberk1?$AA@ 00560afc     Game.obj
 0002:00018b0c       ??_C@_08IEALCADE@MHauberk?$AA@ 00560b0c     Game.obj
 0002:00018b18       ??_C@_06DOBPMKKI@MShirt?$AA@ 00560b18     Game.obj
 0002:00018b20       ??_C@_08HEAOIPBD@GodPMail?$AA@ 00560b20     Game.obj
 0002:00018b2c       ??_C@_07CFFBGBHA@GodRobe?$AA@ 00560b2c     Game.obj
 0002:00018b38       ??_C@_07DHMGOHOG@MHRobe2?$AA@ 00560b38     Game.obj
 0002:00018b44       ??_C@_07BMOLLECF@MHRobe1?$AA@ 00560b44     Game.obj
 0002:00018b50       ??_C@_08BCIBKGBN@MHPMail2?$AA@ 00560b50     Game.obj
 0002:00018b5c       ??_C@_08DJKMPFNO@MHPMail1?$AA@ 00560b5c     Game.obj
 0002:00018b68       ??_C@_06JNOAAKMG@MSanta?$AA@ 00560b68     Game.obj
 0002:00018b70       ??_C@_06EAFEMKJ@MRobe1?$AA@ 00560b70     Game.obj
 0002:00018b78       ??_C@_06DEOBFMKL@Mtunic?$AA@ 00560b78     Game.obj
 0002:00018b80       ??_C@_06OGHGOEFF@MPMail?$AA@ 00560b80     Game.obj
 0002:00018b88       ??_C@_06GAOCJGPL@MSMail?$AA@ 00560b88     Game.obj
 0002:00018b90       ??_C@_06GDDEJEGA@MCMail?$AA@ 00560b90     Game.obj
 0002:00018b98       ??_C@_07HLDGDKHG@MLArmor?$AA@ 00560b98     Game.obj
 0002:00018ba4       ??_C@_03OMAICBOP@Mhr?$AA@  00560ba4     Game.obj
 0002:00018ba8       ??_C@_0BA@HIPPJJEN@sprites?2Mhr?4pak?$AA@ 00560ba8     Game.obj
 0002:00018bbc       ??_C@_03KIGHHEKB@Mpt?$AA@  00560bbc     Game.obj
 0002:00018bc0       ??_C@_0BA@PKJHKIPJ@sprites?2Mpt?4pak?$AA@ 00560bc0     Game.obj
 0002:00018bd4       ??_C@_07LHFIEKMM@EDragon?$AA@ 00560bd4     Game.obj
 0002:00018be0       ??_C@_0N@ECINHJLD@lgn_Princess?$AA@ 00560be0     Game.obj
 0002:00018bf0       ??_C@_09CIGGOOML@Scarecrow?$AA@ 00560bf0     Game.obj
 0002:00018bfc       ??_C@_07IMKPNCNG@ACannon?$AA@ 00560bfc     Game.obj
 0002:00018c08       ??_C@_08FNAFANNO@Babarian?$AA@ 00560c08     Game.obj
 0002:00018c14       ??_C@_08FOEPCOFE@CBTurret?$AA@ 00560c14     Game.obj
 0002:00018c20       ??_C@_06NNKOBNND@HBTank?$AA@ 00560c20     Game.obj
 0002:00018c28       ??_C@_0L@NEKOKPML@DarkKnight?$AA@ 00560c28     Game.obj
 0002:00018c38       ??_C@_09CHHLPHMM@ElfMaster?$AA@ 00560c38     Game.obj
 0002:00018c44       ??_C@_08CINILLKI@TPKnight?$AA@ 00560c44     Game.obj
 0002:00018c50       ??_C@_05CENPDIA@yspro?$AA@ 00560c50     Game.obj
 0002:00018c58       ??_C@_09EAJHFGM@Minotaurs?$AA@ 00560c58     Game.obj
 0002:00018c64       ??_C@_0O@POHOMPNI@MasterMageOrc?$AA@ 00560c64     Game.obj
 0002:00018c74       ??_C@_0L@KGLOGJG@GiantPlant?$AA@ 00560c74     Game.obj
 0002:00018c84       ??_C@_0M@KDJKFOEK@GiantLizard?$AA@ 00560c84     Game.obj
 0002:00018c94       ??_C@_0O@GOOIAMLB@GiantCrayfish?$AA@ 00560c94     Game.obj
 0002:00018ca4       ??_C@_0L@NNBHJEPA@FireWyvern?$AA@ 00560ca4     Game.obj
 0002:00018cb4       ??_C@_0L@EPPJKAHJ@ClawTurtle?$AA@ 00560cb4     Game.obj
 0002:00018cc4       ??_C@_09MHMOPCKJ@Centaurus?$AA@ 00560cc4     Game.obj
 0002:00018cd0       ??_C@_06OJHKBCEH@Barlog?$AA@ 00560cd0     Game.obj
 0002:00018cd8       ??_C@_08JOAMKDOF@McGaffin?$AA@ 00560cd8     Game.obj
 0002:00018ce4       ??_C@_08KKNBEMF@IceGolem?$AA@ 00560ce4     Game.obj
 0002:00018cf0       ??_C@_05GNCDIMBK@frost?$AA@ 00560cf0     Game.obj
 0002:00018cf8       ??_C@_08GDIIALDO@DireBoar?$AA@ 00560cf8     Game.obj
 0002:00018d04       ??_C@_08ODONBLAL@CanPlant?$AA@ 00560d04     Game.obj
 0002:00018d10       ??_C@_07PDCANPFI@MTGiant?$AA@ 00560d10     Game.obj
 0002:00018d1c       ??_C@_09LIBKNAGG@GiantFrog?$AA@ 00560d1c     Game.obj
 0002:00018d28       ??_C@_03FFFMMKNF@Cat?$AA@  00560d28     Game.obj
 0002:00018d2c       ??_C@_05FKNCDOCB@Bunny?$AA@ 00560d2c     Game.obj
 0002:00018d34       ??_C@_07GMGDBHCM@DarkElf?$AA@ 00560d34     Game.obj
 0002:00018d40       ??_C@_07NFKHDBPN@Gagoyle?$AA@ 00560d40     Game.obj
 0002:00018d4c       ??_C@_09LGJBJCDA@Tigerworm?$AA@ 00560d4c     Game.obj
 0002:00018d58       ??_C@_08FBJOAGCB@Hellclaw?$AA@ 00560d58     Game.obj
 0002:00018d64       ??_C@_02MMJIKGIB@BG?$AA@   00560d64     Game.obj
 0002:00018d68       ??_C@_02HIIGDGEP@TK?$AA@   00560d68     Game.obj
 0002:00018d6c       ??_C@_06OODHOCEO@GHKABS?$AA@ 00560d6c     Game.obj
 0002:00018d74       ??_C@_03LFHMAKNB@GHK?$AA@  00560d74     Game.obj
 0002:00018d78       ??_C@_03KEMFNCNE@LWB?$AA@  00560d78     Game.obj
 0002:00018d7c       ??_C@_09GLEHNJGN@ManaStone?$AA@ 00560d7c     Game.obj
 0002:00018d88       ??_C@_03BPACIHDG@GMG?$AA@  00560d88     Game.obj
 0002:00018d8c       ??_C@_03KDLDMBMH@ESG?$AA@  00560d8c     Game.obj
 0002:00018d90       ??_C@_0O@FKCKKGMC@ManaCollector?$AA@ 00560d90     Game.obj
 0002:00018da0       ??_C@_09NOJLNMJO@GT?9Cannon?$AA@ 00560da0     Game.obj
 0002:00018dac       ??_C@_08HJNGEBKC@GT?9Arrow?$AA@ 00560dac     Game.obj
 0002:00018db8       ??_C@_07EEODNLGN@Effect5?$AA@ 00560db8     Game.obj
 0002:00018dc4       ??_C@_0BE@FLDKCIPH@sprites?2Effect5?4pak?$AA@ 00560dc4     Game.obj
 0002:00018ddc       ??_C@_08CPBMDMDB@WereWolf?$AA@ 00560ddc     Game.obj
 0002:00018de8       ??_C@_04HHFKONCK@Orge?$AA@ 00560de8     Game.obj
 0002:00018df0       ??_C@_04ELKACHDK@Helb?$AA@ 00560df0     Game.obj
 0002:00018df8       ??_C@_03KJDOIONP@tom?$AA@  00560df8     Game.obj
 0002:00018dfc       ??_C@_03GKDBLPJC@Cla?$AA@  00560dfc     Game.obj
 0002:00018e00       ??_C@_03JCCDDODO@Amp?$AA@  00560e00     Game.obj
 0002:00018e04       ??_C@_06MALLOAJE@Gandlf?$AA@ 00560e04     Game.obj
 0002:00018e0c       ??_C@_03OJNDFGNC@Zom?$AA@  00560e0c     Game.obj
 0002:00018e10       ??_C@_03GCKNIMCA@Scp?$AA@  00560e10     Game.obj
 0002:00018e14       ??_C@_03PEAJEFGD@Ant?$AA@  00560e14     Game.obj
 0002:00018e18       ??_C@_07FMICIIFH@Shopkpr?$AA@ 00560e18     Game.obj
 0002:00018e24       ??_C@_03EGJOMNC@Orc?$AA@   00560e24     Game.obj
 0002:00018e28       ??_C@_03ECOKLMIL@Cyc?$AA@  00560e28     Game.obj
 0002:00018e2c       ??_C@_03FCLLOINB@Gol?$AA@  00560e2c     Game.obj
 0002:00018e30       ??_C@_03PLDJJELC@ske?$AA@  00560e30     Game.obj
 0002:00018e34       ??_C@_03DGKPAIDP@slm?$AA@  00560e34     Game.obj
 0002:00018e38       ??_C@_02DKNNMOD@Yw?$AA@    00560e38     Game.obj
 0002:00018e3c       ??_C@_02JDDPBOJ@Ww?$AA@    00560e3c     Game.obj
 0002:00018e40       ??_C@_02BDNOJAHC@Bw?$AA@   00560e40     Game.obj
 0002:00018e44       ??_C@_0O@NCMOBHBE@TutelarAngel4?$AA@ 00560e44     Game.obj
 0002:00018e54       ??_C@_0O@JNIPIBND@TutelarAngel3?$AA@ 00560e54     Game.obj
 0002:00018e64       ??_C@_0O@IEJELAJC@TutelarAngel2?$AA@ 00560e64     Game.obj
 0002:00018e74       ??_C@_0O@KPLJODFB@TutelarAngel1?$AA@ 00560e74     Game.obj
 0002:00018e84       ??_C@_02LDIACGDI@Ym?$AA@   00560e84     Game.obj
 0002:00018e88       ??_C@_02LJBOALDC@Wm?$AA@   00560e88     Game.obj
 0002:00018e8c       ??_C@_02KDPDGKKJ@Bm?$AA@   00560e8c     Game.obj
 0002:00018e90       ??_C@_0P@DKMLBDGI@lgn_itemequipW?$AA@ 00560e90     Game.obj
 0002:00018ea4       ??_C@_0BL@BDFOEJAC@sprites?2lgn_itemequipW?4lpk?$AA@ 00560ea4     Game.obj
 0002:00018ec4       ??_C@_0P@IKOGOJLD@lgn_itemequipM?$AA@ 00560ec4     Game.obj
 0002:00018ed8       ??_C@_0BL@LBBDGIPP@sprites?2lgn_itemequipM?4lpk?$AA@ 00560ed8     Game.obj
 0002:00018ef8       ??_C@_0N@FDOCOPHF@item?9dynamic?$AA@ 00560ef8     Game.obj
 0002:00018f08       ??_C@_0BL@HPADFNL@sprites?2lgn_itemground?4lpk?$AA@ 00560f08     Game.obj
 0002:00018f28       ??_C@_0P@PJIMPMKB@lgn_itemground?$AA@ 00560f28     Game.obj
 0002:00018f3c       ??_C@_0BJ@DHNCPOG@sprites?2lgn_itempack?4lpk?$AA@ 00560f3c     Game.obj
 0002:00018f5c       ??_C@_0N@HBFLFPEL@lgn_itempack?$AA@ 00560f5c     Game.obj
 0002:00018f6c       ??_C@_0M@GMDBLEMH@Tile541?9545?$AA@ 00560f6c     Game.obj
 0002:00018f7c       ??_C@_0M@NEOBHOAM@Tile531?9540?$AA@ 00560f7c     Game.obj
 0002:00018f8c       ??_C@_0M@DKBBMCDG@Tile523?9530?$AA@ 00560f8c     Game.obj
 0002:00018f9c       ??_C@_0M@MAKELGDF@Tile489?9522?$AA@ 00560f9c     Game.obj
 0002:00018fac       ??_C@_0M@HJCIMMOF@Tile479?9488?$AA@ 00560fac     Game.obj
 0002:00018fbc       ??_C@_0M@MOOKJIAG@Tile474?9478?$AA@ 00560fbc     Game.obj
 0002:00018fcc       ??_C@_0M@FNDAKJGE@Tile462?9473?$AA@ 00560fcc     Game.obj
 0002:00018fdc       ??_C@_0M@OEFOIAEA@Tile445?9461?$AA@ 00560fdc     Game.obj
 0002:00018fec       ??_C@_0M@FBPBHDMO@Tile444?9444?$AA@ 00560fec     Game.obj
 0002:00018ffc       ??_C@_0M@EAIGJJJB@Tile430?9443?$AA@ 00560ffc     Game.obj
 0002:0001900c       ??_C@_0M@FFFLKHBG@Tile422?9429?$AA@ 0056100c     Game.obj
 0002:0001901c       ??_C@_0M@JBIMHOCB@Tile406?9421?$AA@ 0056101c     Game.obj
 0002:0001902c       ??_C@_0M@KGKJPOPI@Tile403?9405?$AA@ 0056102c     Game.obj
 0002:0001903c       ??_C@_0M@LKAFNPIC@Tile388?9402?$AA@ 0056103c     Game.obj
 0002:0001904c       ??_C@_0M@PFCNGBKA@Tile382?9387?$AA@ 0056104c     Game.obj
 0002:0001905c       ??_C@_0M@BIPHBHME@Tile370?9381?$AA@ 0056105c     Game.obj
 0002:0001906c       ??_C@_0M@PPEBKGEE@Tile367?9367?$AA@ 0056106c     Game.obj
 0002:0001907c       ??_C@_0M@HNMLNFBD@Tile363?9366?$AA@ 0056107c     Game.obj
 0002:0001908c       ??_C@_0BA@BHPOKLGI@maptiles353?9361?$AA@ 0056108c     Game.obj
 0002:000190a0       ??_C@_09GHGJGMJF@maptiles6?$AA@ 005610a0     Game.obj
 0002:000190ac       ??_C@_09EMEEDPFG@maptiles5?$AA@ 005610ac     Game.obj
 0002:000190b8       ??_C@_09FFFPAOBH@maptiles4?$AA@ 005610b8     Game.obj
 0002:000190c4       ??_C@_0N@BANPBIPH@lgn_maptiles?$AA@ 005610c4     Game.obj
 0002:000190d4       ??_C@_09DAFKJJB@maptiles2?$AA@ 005610d4     Game.obj
 0002:000190e0       ??_C@_0M@CBHOKIEI@lgn_objects?$AA@ 005610e0     Game.obj
 0002:000190f0       ??_C@_08IDGCMDML@objects7?$AA@ 005610f0     Game.obj
 0002:000190fc       ??_C@_08JKHJPCIK@objects6?$AA@ 005610fc     Game.obj
 0002:00019108       ??_C@_08LBFEKBEJ@objects5?$AA@ 00561108     Game.obj
 0002:00019114       ??_C@_0M@CNMOLDFL@Tile226?9229?$AA@ 00561114     Game.obj
 0002:00019124       ??_C@_0N@MBFMJCHB@lgn_T223?9225?$AA@ 00561124     Game.obj
 0002:00019134       ??_C@_08KIEPJAAI@objects4?$AA@ 00561134     Game.obj
 0002:00019140       ??_C@_08OHAOAGMP@objects3?$AA@ 00561140     Game.obj
 0002:0001914c       ??_C@_08POBFDHIO@objects2?$AA@ 0056114c     Game.obj
 0002:00019158       ??_C@_08NFDIGEEN@objects1?$AA@ 00561158     Game.obj
 0002:00019164       ??_C@_0M@MGCAPAGO@TreeShadows?$AA@ 00561164     Game.obj
 0002:00019174       ??_C@_06DOCDGPFI@Trees1?$AA@ 00561174     Game.obj
 0002:0001917c       ??_C@_08GDJFBOLE@Sinside1?$AA@ 0056117c     Game.obj
 0002:00019188       ??_C@_0M@NDCBDCON@structures1?$AA@ 00561188     Game.obj
 0002:00019198       ??_C@_09CICIPKFC@maptiles1?$AA@ 00561198     Game.obj
 0002:000191a4       ??_C@_07JHAJHILB@monster?$AA@ 005611a4     Game.obj
 0002:000191b0       ??_C@_0N@LPPGJEFG@lgn_minimap2?$AA@ 005611b0     Game.obj
 0002:000191c0       ??_C@_0M@OOCCBBLD@lgn_minimap?$AA@ 005611c0     Game.obj
 0002:000191d0       ??_C@_0P@EDOHKLGP@lgn_DialogText?$AA@ 005611d0     Game.obj
 0002:000191e4       ??_C@_0BL@FFCMHMCF@sprites?2lgn_DialogText?4lpk?$AA@ 005611e4     Game.obj
 0002:00019204       ??_C@_0L@KACDLJF@gamedialog?$AA@ 00561204     Game.obj
 0002:00019214       ??_C@_0BH@EFAPCJKP@sprites?2gamedialog?4pak?$AA@ 00561214     Game.obj
 0002:00019230       ??_C@_0L@KKLDKGEM@lgn_newacc?$AA@ 00561230     Game.obj
 0002:00019240       ??_C@_0BH@MHLLOJGO@sprites?2lgn_newacc?4lpk?$AA@ 00561240     Game.obj
 0002:0001925c       ??_C@_09IBINOCEM@lgn_login?$AA@ 0056125c     Game.obj
 0002:00019268       ??_C@_0BG@PJEEMJFK@sprites?2lgn_login?4lpk?$AA@ 00561268     Game.obj
 0002:00019284       ??_C@_07NLLIMPIN@Newmaps?$AA@ 00561284     Game.obj
 0002:00019290       ??_C@_0BE@KPJFGICJ@sprites?2Newmaps?4pak?$AA@ 00561290     Game.obj
 0002:000192a8       ??_C@_09NFKLEKPH@interface?$AA@ 005612a8     Game.obj
 0002:000192b4       ??_C@_0BG@EMKPDLLA@sprites?2interface?4pak?$AA@ 005612b4     Game.obj
 0002:000192d0       ??_C@_0CH@OMFHCHKI@Logout?5was?5canceled?5because?5you?5@ 005612d0     Game.obj
 0002:00019300       ??_C@_0CL@OPLDMIJH@Network?5Traffic?1Lag?4?5Please?5wait@ 00561300     Game.obj
 0002:00019334       ??_C@_07IAADDJOH@PC?3?5?$CFdk?$AA@ 00561334     Game.obj
 0002:00019340       ??_C@_07KIFEFNKD@FPS?3?5?$CFd?$AA@ 00561340     Game.obj
 0002:0001934c       ??_C@_04GHDJKCHA@?5?5?$CFd?$AA@ 0056134c     Game.obj
 0002:00019358       ??_C@_0EC@GIPMINFP@Helbreath?5Legion?5v?$CFd?4?$CFd?5?9?5?$CI?5Ares@ 00561358     Game.obj
 0002:000193a8       ??_C@_07NPEDDNID@?$CIempty?$CJ?$AA@ 005613a8     Game.obj
 0002:000193b4       ??_C@_0M@PKBOAMJD@?$CFd?4?5?$CFs?5?9?5?$CFd?$AA@ 005613b4     Game.obj
 0002:000193c4       ??_C@_0BK@EOKBADJD@?$FL?5Bleeding?5Island?5Event?5?$FN?$AA@ 005613c4     Game.obj
 0002:000193e4       ??_C@_08NHGCGOLK@Level?5Up?$AA@ 005613e4     Game.obj
 0002:000193f0       ??_C@_0BF@CGPGCKI@Restarting?5game?4?4?4?$CFd?$AA@ 005613f0     Game.obj
 0002:0001940c       ??_C@_0BB@EEJNELLO@Logging?5out?4?4?4?$CFd?$AA@ 0056140c     Game.obj
 0002:00019420       ??_C@_0L@PCPDILKC@Total?5?3?5?$CFd?$AA@ 00561420     Game.obj
 0002:00019430       ??_C@_0CO@BPHAJOGP@You?5entered?5more?5quantity?5that?5y@ 00561430     Game.obj
 0002:00019468       ??_C@_0CH@NNHAABJN@The?5quantity?5you?5entered?5is?5inco@ 00561468     Game.obj
 0002:00019498       ??_C@_0BK@LAPMICEJ@Too?5far?5to?5give?5the?5Item?4?$AA@ 00561498     Game.obj
 0002:000194b8       ??_C@_0DF@OHOJIDJJ@You?5can?5not?5sell?5more?5than?550?5it@ 005614b8     Game.obj
 0002:000194f8       ??_C@_0CI@MEFJDLFN@You?5can?5not?5give?5the?5item?5to?5you@ 005614f8     Game.obj
 0002:00019528       ??_C@_0DN@JBPMOKAA@You?5can?5not?5give?5or?5drop?5before?5@ 00561528     Game.obj
 0002:00019578       ??_7CMisc@@6B@             00561578     Misc.obj
 0002:00019580       __real@3fd554c980000000    00561580     Misc.obj
 0002:00019590       __real@bfd554c980000000    00561590     Misc.obj
 0002:000195a0       __real@c008000000000000    005615a0     Misc.obj
 0002:000195b0       ??_7CStrTok@@6B@           005615b0     StrTok.obj
 0002:000195b8       _c_dfDIMouse               005615b8     DINPUT:dilib1.obj
 0002:000195d0       _KSDATAFORMAT_SUBTYPE_DIRECTMUSIC 005615d0     DXGUID:dxguid.obj
 0002:000195e0       _KSDATAFORMAT_SUBTYPE_MIDI 005615e0     DXGUID:dxguid.obj
 0002:000195f0       _IID_IKsControl            005615f0     DXGUID:dxguid.obj
 0002:00019600       _IID_IDirectMusicSegment2  00561600     DXGUID:dxguid.obj
 0002:00019610       _IID_IDirectMusicPerformance2 00561610     DXGUID:dxguid.obj
 0002:00019620       _IID_IDirectMusicBand      00561620     DXGUID:dxguid.obj
 0002:00019630       _IID_IDirectMusicComposer  00561630     DXGUID:dxguid.obj
 0002:00019640       _IID_IDirectMusicChordMap  00561640     DXGUID:dxguid.obj
 0002:00019650       _IID_IDirectMusicStyle     00561650     DXGUID:dxguid.obj
 0002:00019660       _IID_IDirectMusicGraph     00561660     DXGUID:dxguid.obj
 0002:00019670       _IID_IDirectMusicTool      00561670     DXGUID:dxguid.obj
 0002:00019680       _IID_IDirectMusicPerformance 00561680     DXGUID:dxguid.obj
 0002:00019690       _IID_IDirectMusicTrack     00561690     DXGUID:dxguid.obj
 0002:000196a0       _IID_IDirectMusicSegmentState 005616a0     DXGUID:dxguid.obj
 0002:000196b0       _IID_IDirectMusicSegment   005616b0     DXGUID:dxguid.obj
 0002:000196c0       _IID_IDirectMusicObject    005616c0     DXGUID:dxguid.obj
 0002:000196d0       _IID_IDirectMusicGetLoader 005616d0     DXGUID:dxguid.obj
 0002:000196e0       _IID_IDirectMusicLoader    005616e0     DXGUID:dxguid.obj
 0002:000196f0       _GUID_DefaultGMCollection  005616f0     DXGUID:dxguid.obj
 0002:00019700       _GUID_PerfAutoDownload     00561700     DXGUID:dxguid.obj
 0002:00019710       _GUID_PerfMasterGrooveLevel 00561710     DXGUID:dxguid.obj
 0002:00019720       _GUID_PerfMasterVolume     00561720     DXGUID:dxguid.obj
 0002:00019730       _GUID_PerfMasterTempo      00561730     DXGUID:dxguid.obj
 0002:00019740       _GUID_SeedVariations       00561740     DXGUID:dxguid.obj
 0002:00019750       _GUID_EnableTempo          00561750     DXGUID:dxguid.obj
 0002:00019760       _GUID_DisableTempo         00561760     DXGUID:dxguid.obj
 0002:00019770       _GUID_EnableTimeSig        00561770     DXGUID:dxguid.obj
 0002:00019780       _GUID_DisableTimeSig       00561780     DXGUID:dxguid.obj
 0002:00019790       _GUID_StandardMIDIFile     00561790     DXGUID:dxguid.obj
 0002:000197a0       _GUID_Clear_All_Bands      005617a0     DXGUID:dxguid.obj
 0002:000197b0       _GUID_Disable_Auto_Download 005617b0     DXGUID:dxguid.obj
 0002:000197c0       _GUID_Enable_Auto_Download 005617c0     DXGUID:dxguid.obj
 0002:000197d0       _GUID_ConnectToDLSCollection 005617d0     DXGUID:dxguid.obj
 0002:000197e0       _GUID_Unload               005617e0     DXGUID:dxguid.obj
 0002:000197f0       _GUID_Download             005617f0     DXGUID:dxguid.obj
 0002:00019800       _GUID_MuteParam            00561800     DXGUID:dxguid.obj
 0002:00019810       _GUID_IDirectMusicChordMap 00561810     DXGUID:dxguid.obj
 0002:00019820       _GUID_IDirectMusicBand     00561820     DXGUID:dxguid.obj
 0002:00019830       _GUID_TempoParam           00561830     DXGUID:dxguid.obj
 0002:00019840       _GUID_TimeSignature        00561840     DXGUID:dxguid.obj
 0002:00019850       _GUID_IDirectMusicStyle    00561850     DXGUID:dxguid.obj
 0002:00019860       _GUID_RhythmParam          00561860     DXGUID:dxguid.obj
 0002:00019870       _GUID_ChordParam           00561870     DXGUID:dxguid.obj
 0002:00019880       _GUID_CommandParam2        00561880     DXGUID:dxguid.obj
 0002:00019890       _GUID_CommandParam         00561890     DXGUID:dxguid.obj
 0002:000198a0       _GUID_NOTIFICATION_COMMAND 005618a0     DXGUID:dxguid.obj
 0002:000198b0       _GUID_NOTIFICATION_CHORD   005618b0     DXGUID:dxguid.obj
 0002:000198c0       _GUID_NOTIFICATION_MEASUREANDBEAT 005618c0     DXGUID:dxguid.obj
 0002:000198d0       _GUID_NOTIFICATION_PERFORMANCE 005618d0     DXGUID:dxguid.obj
 0002:000198e0       _GUID_NOTIFICATION_SEGMENT 005618e0     DXGUID:dxguid.obj
 0002:000198f0       _GUID_DirectMusicAllTypes  005618f0     DXGUID:dxguid.obj
 0002:00019900       _CLSID_DirectMusicMuteTrack 00561900     DXGUID:dxguid.obj
 0002:00019910       _CLSID_DirectMusicChordMapTrack 00561910     DXGUID:dxguid.obj
 0002:00019920       _CLSID_DirectMusicBand     00561920     DXGUID:dxguid.obj
 0002:00019930       _CLSID_DirectMusicBandTrack 00561930     DXGUID:dxguid.obj
 0002:00019940       _CLSID_DirectMusicLoader   00561940     DXGUID:dxguid.obj
 0002:00019950       _CLSID_DirectMusicSignPostTrack 00561950     DXGUID:dxguid.obj
 0002:00019960       _CLSID_DirectMusicComposer 00561960     DXGUID:dxguid.obj
 0002:00019970       _CLSID_DirectMusicChordMap 00561970     DXGUID:dxguid.obj
 0002:00019980       _CLSID_DirectMusicMotifTrack 00561980     DXGUID:dxguid.obj
 0002:00019990       _CLSID_DirectMusicStyleTrack 00561990     DXGUID:dxguid.obj
 0002:000199a0       _CLSID_DirectMusicCommandTrack 005619a0     DXGUID:dxguid.obj
 0002:000199b0       _CLSID_DirectMusicChordTrack 005619b0     DXGUID:dxguid.obj
 0002:000199c0       _CLSID_DirectMusicStyle    005619c0     DXGUID:dxguid.obj
 0002:000199d0       _CLSID_DirectMusicTimeSigTrack 005619d0     DXGUID:dxguid.obj
 0002:000199e0       _CLSID_DirectMusicSysExTrack 005619e0     DXGUID:dxguid.obj
 0002:000199f0       _CLSID_DirectMusicSeqTrack 005619f0     DXGUID:dxguid.obj
 0002:00019a00       _CLSID_DirectMusicTempoTrack 00561a00     DXGUID:dxguid.obj
 0002:00019a10       _CLSID_DirectMusicGraph    00561a10     DXGUID:dxguid.obj
 0002:00019a20       _CLSID_DirectMusicSegmentState 00561a20     DXGUID:dxguid.obj
 0002:00019a30       _CLSID_DirectMusicSegment  00561a30     DXGUID:dxguid.obj
 0002:00019a40       _CLSID_DirectMusicPerformance 00561a40     DXGUID:dxguid.obj
 0002:00019a50       _GUID_DMUS_PROP_Volume     00561a50     DXGUID:dxguid.obj
 0002:00019a60       _GUID_DMUS_PROP_LegacyCaps 00561a60     DXGUID:dxguid.obj
 0002:00019a70       _GUID_DMUS_PROP_Effects    00561a70     DXGUID:dxguid.obj
 0002:00019a80       _GUID_DMUS_PROP_WavesReverb 00561a80     DXGUID:dxguid.obj
 0002:00019a90       _GUID_DMUS_PROP_MemorySize 00561a90     DXGUID:dxguid.obj
 0002:00019aa0       _GUID_DMUS_PROP_WritePeriod 00561aa0     DXGUID:dxguid.obj
 0002:00019ab0       _GUID_DMUS_PROP_WriteLatency 00561ab0     DXGUID:dxguid.obj
 0002:00019ac0       _GUID_DMUS_PROP_SamplePlaybackRate 00561ac0     DXGUID:dxguid.obj
 0002:00019ad0       _GUID_DMUS_PROP_SampleMemorySize 00561ad0     DXGUID:dxguid.obj
 0002:00019ae0       _GUID_DMUS_PROP_SynthSink_WAVE 00561ae0     DXGUID:dxguid.obj
 0002:00019af0       _GUID_DMUS_PROP_SynthSink_DSOUND 00561af0     DXGUID:dxguid.obj
 0002:00019b00       _GUID_DMUS_PROP_INSTRUMENT2 00561b00     DXGUID:dxguid.obj
 0002:00019b10       _GUID_DMUS_PROP_DLS2       00561b10     DXGUID:dxguid.obj
 0002:00019b20       _GUID_DMUS_PROP_DLS1       00561b20     DXGUID:dxguid.obj
 0002:00019b30       _GUID_DMUS_PROP_GS_Capable 00561b30     DXGUID:dxguid.obj
 0002:00019b40       _GUID_DMUS_PROP_XG_Capable 00561b40     DXGUID:dxguid.obj
 0002:00019b50       _GUID_DMUS_PROP_XG_Hardware 00561b50     DXGUID:dxguid.obj
 0002:00019b60       _GUID_DMUS_PROP_GS_Hardware 00561b60     DXGUID:dxguid.obj
 0002:00019b70       _GUID_DMUS_PROP_GM_Hardware 00561b70     DXGUID:dxguid.obj
 0002:00019b80       _IID_IDirectMusic2         00561b80     DXGUID:dxguid.obj
 0002:00019b90       _IID_IDirectMusicDownloadedInstrument 00561b90     DXGUID:dxguid.obj
 0002:00019ba0       _IID_IDirectMusicInstrument 00561ba0     DXGUID:dxguid.obj
 0002:00019bb0       _IID_IDirectMusicCollection 00561bb0     DXGUID:dxguid.obj
 0002:00019bc0       _IID_IDirectMusicDownload  00561bc0     DXGUID:dxguid.obj
 0002:00019bd0       _IID_IDirectMusicPortDownload 00561bd0     DXGUID:dxguid.obj
 0002:00019be0       _IID_IDirectMusicThru      00561be0     DXGUID:dxguid.obj
 0002:00019bf0       _IID_IDirectMusicPort      00561bf0     DXGUID:dxguid.obj
 0002:00019c00       _IID_IDirectMusicBuffer    00561c00     DXGUID:dxguid.obj
 0002:00019c10       _IID_IDirectMusic          00561c10     DXGUID:dxguid.obj
 0002:00019c20       _CLSID_DirectMusicSynth    00561c20     DXGUID:dxguid.obj
 0002:00019c30       _CLSID_DirectMusicCollection 00561c30     DXGUID:dxguid.obj
 0002:00019c40       _CLSID_DirectMusic         00561c40     DXGUID:dxguid.obj
 0002:00019c50       _IID_IReferenceClock       00561c50     DXGUID:dxguid.obj
 0002:00019c60       _DS3DALG_HRTF_LIGHT        00561c60     DXGUID:dxguid.obj
 0002:00019c70       _DS3DALG_HRTF_FULL         00561c70     DXGUID:dxguid.obj
 0002:00019c80       _DS3DALG_NO_VIRTUALIZATION 00561c80     DXGUID:dxguid.obj
 0002:00019c90       _IID_IKsPropertySet        00561c90     DXGUID:dxguid.obj
 0002:00019ca0       _IID_IDirectSoundNotify    00561ca0     DXGUID:dxguid.obj
 0002:00019cb0       _IID_IDirectSoundCaptureBuffer 00561cb0     DXGUID:dxguid.obj
 0002:00019cc0       _IID_IDirectSoundCapture   00561cc0     DXGUID:dxguid.obj
 0002:00019cd0       _IID_IDirectSound3DBuffer  00561cd0     DXGUID:dxguid.obj
 0002:00019ce0       _IID_IDirectSound3DListener 00561ce0     DXGUID:dxguid.obj
 0002:00019cf0       _IID_IDirectSoundBuffer    00561cf0     DXGUID:dxguid.obj
 0002:00019d00       _IID_IDirectSound          00561d00     DXGUID:dxguid.obj
 0002:00019d10       _CLSID_DirectSoundCapture  00561d10     DXGUID:dxguid.obj
 0002:00019d20       _CLSID_DirectSound         00561d20     DXGUID:dxguid.obj
 0002:00019d30       _DPAID_ComPort             00561d30     DXGUID:dxguid.obj
 0002:00019d40       _DPAID_INetPort            00561d40     DXGUID:dxguid.obj
 0002:00019d50       _DPAID_INetW               00561d50     DXGUID:dxguid.obj
 0002:00019d60       _DPAID_INet                00561d60     DXGUID:dxguid.obj
 0002:00019d70       _DPAID_ModemW              00561d70     DXGUID:dxguid.obj
 0002:00019d80       _DPAID_Modem               00561d80     DXGUID:dxguid.obj
 0002:00019d90       _DPAID_PhoneW              00561d90     DXGUID:dxguid.obj
 0002:00019da0       _DPAID_Phone               00561da0     DXGUID:dxguid.obj
 0002:00019db0       _DPAID_LobbyProvider       00561db0     DXGUID:dxguid.obj
 0002:00019dc0       _DPAID_ServiceProvider     00561dc0     DXGUID:dxguid.obj
 0002:00019dd0       _DPAID_TotalSize           00561dd0     DXGUID:dxguid.obj
 0002:00019de0       _DPLPROPERTY_PlayerScore   00561de0     DXGUID:dxguid.obj
 0002:00019df0       _DPLPROPERTY_PlayerGuid    00561df0     DXGUID:dxguid.obj
 0002:00019e00       _DPLPROPERTY_LobbyGuid     00561e00     DXGUID:dxguid.obj
 0002:00019e10       _DPLPROPERTY_MessagesSupported 00561e10     DXGUID:dxguid.obj
 0002:00019e20       _CLSID_DirectPlayLobby     00561e20     DXGUID:dxguid.obj
 0002:00019e30       _IID_IDirectPlayLobby3A    00561e30     DXGUID:dxguid.obj
 0002:00019e40       _IID_IDirectPlayLobby3     00561e40     DXGUID:dxguid.obj
 0002:00019e50       _IID_IDirectPlayLobby2A    00561e50     DXGUID:dxguid.obj
 0002:00019e60       _IID_IDirectPlayLobby2     00561e60     DXGUID:dxguid.obj
 0002:00019e70       _IID_IDirectPlayLobbyA     00561e70     DXGUID:dxguid.obj
 0002:00019e80       _IID_IDirectPlayLobby      00561e80     DXGUID:dxguid.obj
 0002:00019e90       _IID_IDirectPlay           00561e90     DXGUID:dxguid.obj
 0002:00019ea0       _DPSPGUID_MODEM            00561ea0     DXGUID:dxguid.obj
 0002:00019eb0       _DPSPGUID_SERIAL           00561eb0     DXGUID:dxguid.obj
 0002:00019ec0       _DPSPGUID_TCPIP            00561ec0     DXGUID:dxguid.obj
 0002:00019ed0       _DPSPGUID_IPX              00561ed0     DXGUID:dxguid.obj
 0002:00019ee0       _CLSID_DirectPlay          00561ee0     DXGUID:dxguid.obj
 0002:00019ef0       _IID_IDirectPlay4A         00561ef0     DXGUID:dxguid.obj
 0002:00019f00       _IID_IDirectPlay4          00561f00     DXGUID:dxguid.obj
 0002:00019f10       _IID_IDirectPlay3A         00561f10     DXGUID:dxguid.obj
 0002:00019f20       _IID_IDirectPlay3          00561f20     DXGUID:dxguid.obj
 0002:00019f30       _IID_IDirectPlay2A         00561f30     DXGUID:dxguid.obj
 0002:00019f40       _IID_IDirectPlay2          00561f40     DXGUID:dxguid.obj
 0002:00019f50       _GUID_HIDClass             00561f50     DXGUID:dxguid.obj
 0002:00019f60       _GUID_MouseClass           00561f60     DXGUID:dxguid.obj
 0002:00019f70       _GUID_MediaClass           00561f70     DXGUID:dxguid.obj
 0002:00019f80       _GUID_KeyboardClass        00561f80     DXGUID:dxguid.obj
 0002:00019f90       _IID_IDirectInputPIDDriver 00561f90     DXGUID:dxguid.obj
 0002:00019fa0       _IID_IDirectInputJoyConfig 00561fa0     DXGUID:dxguid.obj
 0002:00019fb0       _IID_IDirectInputEffectDriver 00561fb0     DXGUID:dxguid.obj
 0002:00019fc0       _GUID_CustomForce          00561fc0     DXGUID:dxguid.obj
 0002:00019fd0       _GUID_Friction             00561fd0     DXGUID:dxguid.obj
 0002:00019fe0       _GUID_Inertia              00561fe0     DXGUID:dxguid.obj
 0002:00019ff0       _GUID_Damper               00561ff0     DXGUID:dxguid.obj
 0002:0001a000       _GUID_Spring               00562000     DXGUID:dxguid.obj
 0002:0001a010       _GUID_SawtoothDown         00562010     DXGUID:dxguid.obj
 0002:0001a020       _GUID_SawtoothUp           00562020     DXGUID:dxguid.obj
 0002:0001a030       _GUID_Triangle             00562030     DXGUID:dxguid.obj
 0002:0001a040       _GUID_Sine                 00562040     DXGUID:dxguid.obj
 0002:0001a050       _GUID_Square               00562050     DXGUID:dxguid.obj
 0002:0001a060       _GUID_RampForce            00562060     DXGUID:dxguid.obj
 0002:0001a070       _GUID_ConstantForce        00562070     DXGUID:dxguid.obj
 0002:0001a080       _GUID_SysKeyboardEm2       00562080     DXGUID:dxguid.obj
 0002:0001a090       _GUID_SysKeyboardEm        00562090     DXGUID:dxguid.obj
 0002:0001a0a0       _GUID_SysMouseEm2          005620a0     DXGUID:dxguid.obj
 0002:0001a0b0       _GUID_SysMouseEm           005620b0     DXGUID:dxguid.obj
 0002:0001a0c0       _GUID_Joystick             005620c0     DXGUID:dxguid.obj
 0002:0001a0d0       _GUID_SysKeyboard          005620d0     DXGUID:dxguid.obj
 0002:0001a0e0       _GUID_SysMouse             005620e0     DXGUID:dxguid.obj
 0002:0001a0f0       _GUID_Unknown              005620f0     DXGUID:dxguid.obj
 0002:0001a100       _GUID_POV                  00562100     DXGUID:dxguid.obj
 0002:0001a110       _GUID_Key                  00562110     DXGUID:dxguid.obj
 0002:0001a120       _GUID_Button               00562120     DXGUID:dxguid.obj
 0002:0001a130       _GUID_Slider               00562130     DXGUID:dxguid.obj
 0002:0001a140       _GUID_RzAxis               00562140     DXGUID:dxguid.obj
 0002:0001a150       _GUID_RyAxis               00562150     DXGUID:dxguid.obj
 0002:0001a160       _GUID_RxAxis               00562160     DXGUID:dxguid.obj
 0002:0001a170       _GUID_ZAxis                00562170     DXGUID:dxguid.obj
 0002:0001a180       _GUID_YAxis                00562180     DXGUID:dxguid.obj
 0002:0001a190       _GUID_XAxis                00562190     DXGUID:dxguid.obj
 0002:0001a1a0       _IID_IDirectInputDevice7W  005621a0     DXGUID:dxguid.obj
 0002:0001a1b0       _IID_IDirectInputDevice7A  005621b0     DXGUID:dxguid.obj
 0002:0001a1c0       _IID_IDirectInputEffect    005621c0     DXGUID:dxguid.obj
 0002:0001a1d0       _IID_IDirectInputDevice2W  005621d0     DXGUID:dxguid.obj
 0002:0001a1e0       _IID_IDirectInputDevice2A  005621e0     DXGUID:dxguid.obj
 0002:0001a1f0       _IID_IDirectInputDeviceW   005621f0     DXGUID:dxguid.obj
 0002:0001a200       _IID_IDirectInputDeviceA   00562200     DXGUID:dxguid.obj
 0002:0001a210       _IID_IDirectInput7W        00562210     DXGUID:dxguid.obj
 0002:0001a220       _IID_IDirectInput7A        00562220     DXGUID:dxguid.obj
 0002:0001a230       _IID_IDirectInput2W        00562230     DXGUID:dxguid.obj
 0002:0001a240       _IID_IDirectInput2A        00562240     DXGUID:dxguid.obj
 0002:0001a250       _IID_IDirectInputW         00562250     DXGUID:dxguid.obj
 0002:0001a260       _IID_IDirectInputA         00562260     DXGUID:dxguid.obj
 0002:0001a270       _CLSID_DirectInputDevice   00562270     DXGUID:dxguid.obj
 0002:0001a280       _CLSID_DirectInput         00562280     DXGUID:dxguid.obj
 0002:0001a290       _TID_DXFILEHeader          00562290     DXGUID:dxguid.obj
 0002:0001a2a0       _IID_IDirectXFileBinary    005622a0     DXGUID:dxguid.obj
 0002:0001a2b0       _IID_IDirectXFileDataReference 005622b0     DXGUID:dxguid.obj
 0002:0001a2c0       _IID_IDirectXFileData      005622c0     DXGUID:dxguid.obj
 0002:0001a2d0       _IID_IDirectXFileObject    005622d0     DXGUID:dxguid.obj
 0002:0001a2e0       _IID_IDirectXFileSaveObject 005622e0     DXGUID:dxguid.obj
 0002:0001a2f0       _IID_IDirectXFileEnumObject 005622f0     DXGUID:dxguid.obj
 0002:0001a300       _IID_IDirectXFile          00562300     DXGUID:dxguid.obj
 0002:0001a310       _CLSID_CDirectXFile        00562310     DXGUID:dxguid.obj
 0002:0001a320       _TID_D3DRMRightHanded      00562320     DXGUID:dxguid.obj
 0002:0001a330       _TID_D3DRMPropertyBag      00562330     DXGUID:dxguid.obj
 0002:0001a340       _TID_D3DRMStringProperty   00562340     DXGUID:dxguid.obj
 0002:0001a350       _TID_D3DRMExternalVisual   00562350     DXGUID:dxguid.obj
 0002:0001a360       _TID_D3DRMProgressiveMesh  00562360     DXGUID:dxguid.obj
 0002:0001a370       _TID_D3DRMUrl              00562370     DXGUID:dxguid.obj
 0002:0001a380       _TID_D3DRMInlineData       00562380     DXGUID:dxguid.obj
 0002:0001a390       _TID_D3DRMLightAttenuation 00562390     DXGUID:dxguid.obj
 0002:0001a3a0       _TID_D3DRMLightPenumbra    005623a0     DXGUID:dxguid.obj
 0002:0001a3b0       _TID_D3DRMLightRange       005623b0     DXGUID:dxguid.obj
 0002:0001a3c0       _TID_D3DRMLightUmbra       005623c0     DXGUID:dxguid.obj
 0002:0001a3d0       _TID_D3DRMAppData          005623d0     DXGUID:dxguid.obj
 0002:0001a3e0       _TID_D3DRMCamera           005623e0     DXGUID:dxguid.obj
 0002:0001a3f0       _TID_D3DRMLight            005623f0     DXGUID:dxguid.obj
 0002:0001a400       _TID_D3DRMFrameRotation    00562400     DXGUID:dxguid.obj
 0002:0001a410       _TID_D3DRMFrameVelocity    00562410     DXGUID:dxguid.obj
 0002:0001a420       _TID_D3DRMFramePosition    00562420     DXGUID:dxguid.obj
 0002:0001a430       _TID_D3DRMAnimationOptions 00562430     DXGUID:dxguid.obj
 0002:0001a440       _TID_D3DRMTimedFloatKeys   00562440     DXGUID:dxguid.obj
 0002:0001a450       _TID_D3DRMBoolean2d        00562450     DXGUID:dxguid.obj
 0002:0001a460       _TID_D3DRMMeshFaceWraps    00562460     DXGUID:dxguid.obj
 0002:0001a470       _TID_D3DRMBoolean          00562470     DXGUID:dxguid.obj
 0002:0001a480       _TID_D3DRMMaterialWrap     00562480     DXGUID:dxguid.obj
 0002:0001a490       _TID_D3DRMMeshVertexColors 00562490     DXGUID:dxguid.obj
 0002:0001a4a0       _TID_D3DRMIndexedColor     005624a0     DXGUID:dxguid.obj
 0002:0001a4b0       _TID_D3DRMTextureReference 005624b0     DXGUID:dxguid.obj
 0002:0001a4c0       _TID_D3DRMTextureFilename  005624c0     DXGUID:dxguid.obj
 0002:0001a4d0       _TID_D3DRMGuid             005624d0     DXGUID:dxguid.obj
 0002:0001a4e0       _TID_D3DRMColorRGB         005624e0     DXGUID:dxguid.obj
 0002:0001a4f0       _TID_D3DRMColorRGBA        005624f0     DXGUID:dxguid.obj
 0002:0001a500       _TID_D3DRMMaterialPower    00562500     DXGUID:dxguid.obj
 0002:0001a510       _TID_D3DRMMaterialEmissiveColor 00562510     DXGUID:dxguid.obj
 0002:0001a520       _TID_D3DRMMaterialSpecularColor 00562520     DXGUID:dxguid.obj
 0002:0001a530       _TID_D3DRMMaterialDiffuseColor 00562530     DXGUID:dxguid.obj
 0002:0001a540       _TID_D3DRMMaterialAmbientColor 00562540     DXGUID:dxguid.obj
 0002:0001a550       _TID_D3DRMFloatKeys        00562550     DXGUID:dxguid.obj
 0002:0001a560       _TID_D3DRMAnimationKey     00562560     DXGUID:dxguid.obj
 0002:0001a570       _TID_D3DRMAnimationSet     00562570     DXGUID:dxguid.obj
 0002:0001a580       _TID_D3DRMAnimation        00562580     DXGUID:dxguid.obj
 0002:0001a590       _TID_D3DRMMatrix4x4        00562590     DXGUID:dxguid.obj
 0002:0001a5a0       _TID_D3DRMCoords2d         005625a0     DXGUID:dxguid.obj
 0002:0001a5b0       _TID_D3DRMMeshNormals      005625b0     DXGUID:dxguid.obj
 0002:0001a5c0       _TID_D3DRMMeshTextureCoords 005625c0     DXGUID:dxguid.obj
 0002:0001a5d0       _TID_D3DRMMeshMaterialList 005625d0     DXGUID:dxguid.obj
 0002:0001a5e0       _TID_D3DRMFrameTransformMatrix 005625e0     DXGUID:dxguid.obj
 0002:0001a5f0       _TID_D3DRMFrame            005625f0     DXGUID:dxguid.obj
 0002:0001a600       _TID_D3DRMMaterialArray    00562600     DXGUID:dxguid.obj
 0002:0001a610       _TID_D3DRMMaterial         00562610     DXGUID:dxguid.obj
 0002:0001a620       _TID_D3DRMMeshFace         00562620     DXGUID:dxguid.obj
 0002:0001a630       _TID_D3DRMVector           00562630     DXGUID:dxguid.obj
 0002:0001a640       _TID_D3DRMMesh             00562640     DXGUID:dxguid.obj
 0002:0001a650       _TID_D3DRMInfo             00562650     DXGUID:dxguid.obj
 0002:0001a660       _IID_IDirect3DRMWinDevice  00562660     DXGUID:dxguid.obj
 0002:0001a670       _CLSID_CDirect3DRM         00562670     DXGUID:dxguid.obj
 0002:0001a680       _IID_IDirect3DRM3          00562680     DXGUID:dxguid.obj
 0002:0001a690       _IID_IDirect3DRM2          00562690     DXGUID:dxguid.obj
 0002:0001a6a0       _IID_IDirect3DRM           005626a0     DXGUID:dxguid.obj
 0002:0001a6b0       _IID_IDirect3DRMClippedVisual 005626b0     DXGUID:dxguid.obj
 0002:0001a6c0       _IID_IDirect3DRMPicked2Array 005626c0     DXGUID:dxguid.obj
 0002:0001a6d0       _IID_IDirect3DRMProgressiveMesh 005626d0     DXGUID:dxguid.obj
 0002:0001a6e0       _IID_IDirect3DRMInterpolator 005626e0     DXGUID:dxguid.obj
 0002:0001a6f0       _IID_IDirect3DRMShadow2    005626f0     DXGUID:dxguid.obj
 0002:0001a700       _IID_IDirect3DRMShadow     00562700     DXGUID:dxguid.obj
 0002:0001a710       _IID_IDirect3DRMUserVisual 00562710     DXGUID:dxguid.obj
 0002:0001a720       _IID_IDirect3DRMAnimationArray 00562720     DXGUID:dxguid.obj
 0002:0001a730       _IID_IDirect3DRMFaceArray  00562730     DXGUID:dxguid.obj
 0002:0001a740       _IID_IDirect3DRMPickedArray 00562740     DXGUID:dxguid.obj
 0002:0001a750       _IID_IDirect3DRMLightArray 00562750     DXGUID:dxguid.obj
 0002:0001a760       _IID_IDirect3DRMVisualArray 00562760     DXGUID:dxguid.obj
 0002:0001a770       _IID_IDirect3DRMFrameArray 00562770     DXGUID:dxguid.obj
 0002:0001a780       _IID_IDirect3DRMViewportArray 00562780     DXGUID:dxguid.obj
 0002:0001a790       _IID_IDirect3DRMDeviceArray 00562790     DXGUID:dxguid.obj
 0002:0001a7a0       _IID_IDirect3DRMObjectArray 005627a0     DXGUID:dxguid.obj
 0002:0001a7b0       _IID_IDirect3DRMAnimationSet2 005627b0     DXGUID:dxguid.obj
 0002:0001a7c0       _IID_IDirect3DRMAnimationSet 005627c0     DXGUID:dxguid.obj
 0002:0001a7d0       _IID_IDirect3DRMAnimation2 005627d0     DXGUID:dxguid.obj
 0002:0001a7e0       _IID_IDirect3DRMAnimation  005627e0     DXGUID:dxguid.obj
 0002:0001a7f0       _IID_IDirect3DRMMaterial2  005627f0     DXGUID:dxguid.obj
 0002:0001a800       _IID_IDirect3DRMMaterial   00562800     DXGUID:dxguid.obj
 0002:0001a810       _IID_IDirect3DRMWrap       00562810     DXGUID:dxguid.obj
 0002:0001a820       _IID_IDirect3DRMTexture3   00562820     DXGUID:dxguid.obj
 0002:0001a830       _IID_IDirect3DRMTexture2   00562830     DXGUID:dxguid.obj
 0002:0001a840       _IID_IDirect3DRMTexture    00562840     DXGUID:dxguid.obj
 0002:0001a850       _IID_IDirect3DRMLight      00562850     DXGUID:dxguid.obj
 0002:0001a860       _IID_IDirect3DRMFace2      00562860     DXGUID:dxguid.obj
 0002:0001a870       _IID_IDirect3DRMFace       00562870     DXGUID:dxguid.obj
 0002:0001a880       _IID_IDirect3DRMMeshBuilder3 00562880     DXGUID:dxguid.obj
 0002:0001a890       _IID_IDirect3DRMMeshBuilder2 00562890     DXGUID:dxguid.obj
 0002:0001a8a0       _IID_IDirect3DRMMeshBuilder 005628a0     DXGUID:dxguid.obj
 0002:0001a8b0       _IID_IDirect3DRMMesh       005628b0     DXGUID:dxguid.obj
 0002:0001a8c0       _IID_IDirect3DRMVisual     005628c0     DXGUID:dxguid.obj
 0002:0001a8d0       _IID_IDirect3DRMFrame3     005628d0     DXGUID:dxguid.obj
 0002:0001a8e0       _IID_IDirect3DRMFrame2     005628e0     DXGUID:dxguid.obj
 0002:0001a8f0       _IID_IDirect3DRMFrame      005628f0     DXGUID:dxguid.obj
 0002:0001a900       _IID_IDirect3DRMViewport2  00562900     DXGUID:dxguid.obj
 0002:0001a910       _IID_IDirect3DRMViewport   00562910     DXGUID:dxguid.obj
 0002:0001a920       _IID_IDirect3DRMDevice3    00562920     DXGUID:dxguid.obj
 0002:0001a930       _IID_IDirect3DRMDevice2    00562930     DXGUID:dxguid.obj
 0002:0001a940       _IID_IDirect3DRMDevice     00562940     DXGUID:dxguid.obj
 0002:0001a950       _IID_IDirect3DRMObject2    00562950     DXGUID:dxguid.obj
 0002:0001a960       _IID_IDirect3DRMObject     00562960     DXGUID:dxguid.obj
 0002:0001a970       _CLSID_CDirect3DRMClippedVisual 00562970     DXGUID:dxguid.obj
 0002:0001a980       _CLSID_CDirect3DRMProgressiveMesh 00562980     DXGUID:dxguid.obj
 0002:0001a990       _CLSID_CDirect3DRMTextureInterpolator 00562990     DXGUID:dxguid.obj
 0002:0001a9a0       _CLSID_CDirect3DRMMaterialInterpolator 005629a0     DXGUID:dxguid.obj
 0002:0001a9b0       _CLSID_CDirect3DRMLightInterpolator 005629b0     DXGUID:dxguid.obj
 0002:0001a9c0       _CLSID_CDirect3DRMMeshInterpolator 005629c0     DXGUID:dxguid.obj
 0002:0001a9d0       _CLSID_CDirect3DRMFrameInterpolator 005629d0     DXGUID:dxguid.obj
 0002:0001a9e0       _CLSID_CDirect3DRMViewportInterpolator 005629e0     DXGUID:dxguid.obj
 0002:0001a9f0       _CLSID_CDirect3DRMShadow   005629f0     DXGUID:dxguid.obj
 0002:0001aa00       _CLSID_CDirect3DRMUserVisual 00562a00     DXGUID:dxguid.obj
 0002:0001aa10       _CLSID_CDirect3DRMAnimationSet 00562a10     DXGUID:dxguid.obj
 0002:0001aa20       _CLSID_CDirect3DRMAnimation 00562a20     DXGUID:dxguid.obj
 0002:0001aa30       _CLSID_CDirect3DRMMaterial 00562a30     DXGUID:dxguid.obj
 0002:0001aa40       _CLSID_CDirect3DRMWrap     00562a40     DXGUID:dxguid.obj
 0002:0001aa50       _CLSID_CDirect3DRMTexture  00562a50     DXGUID:dxguid.obj
 0002:0001aa60       _CLSID_CDirect3DRMLight    00562a60     DXGUID:dxguid.obj
 0002:0001aa70       _CLSID_CDirect3DRMFace     00562a70     DXGUID:dxguid.obj
 0002:0001aa80       _CLSID_CDirect3DRMMeshBuilder 00562a80     DXGUID:dxguid.obj
 0002:0001aa90       _CLSID_CDirect3DRMMesh     00562a90     DXGUID:dxguid.obj
 0002:0001aaa0       _CLSID_CDirect3DRMFrame    00562aa0     DXGUID:dxguid.obj
 0002:0001aab0       _CLSID_CDirect3DRMViewport 00562ab0     DXGUID:dxguid.obj
 0002:0001aac0       _CLSID_CDirect3DRMDevice   00562ac0     DXGUID:dxguid.obj
 0002:0001aad0       _GUID_DDMoreCaps           00562ad0     DXGUID:dxguid.obj
 0002:0001aae0       _GUID_Miscellaneous2Callbacks 00562ae0     DXGUID:dxguid.obj
 0002:0001aaf0       _GUID_MotionCompCallbacks  00562af0     DXGUID:dxguid.obj
 0002:0001ab00       _GUID_D3DParseUnknownCommandCallback 00562b00     DXGUID:dxguid.obj
 0002:0001ab10       _GUID_UserModeDriverPassword 00562b10     DXGUID:dxguid.obj
 0002:0001ab20       _GUID_UserModeDriverInfo   00562b20     DXGUID:dxguid.obj
 0002:0001ab30       _GUID_OptSurfaceUmodeInfo  00562b30     DXGUID:dxguid.obj
 0002:0001ab40       _GUID_OptSurfaceKmodeInfo  00562b40     DXGUID:dxguid.obj
 0002:0001ab50       _GUID_DDStereoMode         00562b50     DXGUID:dxguid.obj
 0002:0001ab60       _GUID_DDMoreSurfaceCaps    00562b60     DXGUID:dxguid.obj
 0002:0001ab70       _GUID_ZPixelFormats        00562b70     DXGUID:dxguid.obj
 0002:0001ab80       _GUID_D3DExtendedCaps      00562b80     DXGUID:dxguid.obj
 0002:0001ab90       _GUID_KernelCaps           00562b90     DXGUID:dxguid.obj
 0002:0001aba0       _GUID_KernelCallbacks      00562ba0     DXGUID:dxguid.obj
 0002:0001abb0       _GUID_NonLocalVidMemCaps   00562bb0     DXGUID:dxguid.obj
 0002:0001abc0       _GUID_D3DCallbacks3        00562bc0     DXGUID:dxguid.obj
 0002:0001abd0       _GUID_D3DCallbacks2        00562bd0     DXGUID:dxguid.obj
 0002:0001abe0       _GUID_VideoPortCaps        00562be0     DXGUID:dxguid.obj
 0002:0001abf0       _GUID_ColorControlCallbacks 00562bf0     DXGUID:dxguid.obj
 0002:0001ac00       _GUID_VideoPortCallbacks   00562c00     DXGUID:dxguid.obj
 0002:0001ac10       _GUID_MiscellaneousCallbacks 00562c10     DXGUID:dxguid.obj
 0002:0001ac20       _IID_IDirect3DVertexBuffer7 00562c20     DXGUID:dxguid.obj
 0002:0001ac30       _IID_IDirect3DVertexBuffer 00562c30     DXGUID:dxguid.obj
 0002:0001ac40       _IID_IDirect3DViewport3    00562c40     DXGUID:dxguid.obj
 0002:0001ac50       _IID_IDirect3DViewport2    00562c50     DXGUID:dxguid.obj
 0002:0001ac60       _IID_IDirect3DViewport     00562c60     DXGUID:dxguid.obj
 0002:0001ac70       _IID_IDirect3DExecuteBuffer 00562c70     DXGUID:dxguid.obj
 0002:0001ac80       _IID_IDirect3DMaterial3    00562c80     DXGUID:dxguid.obj
 0002:0001ac90       _IID_IDirect3DMaterial2    00562c90     DXGUID:dxguid.obj
 0002:0001aca0       _IID_IDirect3DMaterial     00562ca0     DXGUID:dxguid.obj
 0002:0001acb0       _IID_IDirect3DLight        00562cb0     DXGUID:dxguid.obj
 0002:0001acc0       _IID_IDirect3DTexture2     00562cc0     DXGUID:dxguid.obj
 0002:0001acd0       _IID_IDirect3DTexture      00562cd0     DXGUID:dxguid.obj
 0002:0001ace0       _IID_IDirect3DDevice7      00562ce0     DXGUID:dxguid.obj
 0002:0001acf0       _IID_IDirect3DDevice3      00562cf0     DXGUID:dxguid.obj
 0002:0001ad00       _IID_IDirect3DDevice2      00562d00     DXGUID:dxguid.obj
 0002:0001ad10       _IID_IDirect3DDevice       00562d10     DXGUID:dxguid.obj
 0002:0001ad20       _IID_IDirect3DTnLHalDevice 00562d20     DXGUID:dxguid.obj
 0002:0001ad30       _IID_IDirect3DNullDevice   00562d30     DXGUID:dxguid.obj
 0002:0001ad40       _IID_IDirect3DRefDevice    00562d40     DXGUID:dxguid.obj
 0002:0001ad50       _IID_IDirect3DMMXDevice    00562d50     DXGUID:dxguid.obj
 0002:0001ad60       _IID_IDirect3DHALDevice    00562d60     DXGUID:dxguid.obj
 0002:0001ad70       _IID_IDirect3DRGBDevice    00562d70     DXGUID:dxguid.obj
 0002:0001ad80       _IID_IDirect3DRampDevice   00562d80     DXGUID:dxguid.obj
 0002:0001ad90       _IID_IDirect3D7            00562d90     DXGUID:dxguid.obj
 0002:0001ada0       _IID_IDirect3D3            00562da0     DXGUID:dxguid.obj
 0002:0001adb0       _IID_IDirect3D2            00562db0     DXGUID:dxguid.obj
 0002:0001adc0       _IID_IDirect3D             00562dc0     DXGUID:dxguid.obj
 0002:0001add0       _IID_IDirectDrawVideoAccelerator 00562dd0     DXGUID:dxguid.obj
 0002:0001ade0       _IID_IDDVideoAcceleratorContainer 00562de0     DXGUID:dxguid.obj
 0002:0001adf0       _IID_IDirectDrawSurfaceKernel 00562df0     DXGUID:dxguid.obj
 0002:0001ae00       _IID_IDirectDrawKernel     00562e00     DXGUID:dxguid.obj
 0002:0001ae10       _DDVPTYPE_PHILIPS          00562e10     DXGUID:dxguid.obj
 0002:0001ae20       _DDVPTYPE_BROOKTREE        00562e20     DXGUID:dxguid.obj
 0002:0001ae30       _DDVPTYPE_CCIR656          00562e30     DXGUID:dxguid.obj
 0002:0001ae40       _DDVPTYPE_E_HREFL_VREFL    00562e40     DXGUID:dxguid.obj
 0002:0001ae50       _DDVPTYPE_E_HREFL_VREFH    00562e50     DXGUID:dxguid.obj
 0002:0001ae60       _DDVPTYPE_E_HREFH_VREFL    00562e60     DXGUID:dxguid.obj
 0002:0001ae70       _DDVPTYPE_E_HREFH_VREFH    00562e70     DXGUID:dxguid.obj
 0002:0001ae80       _IID_IDirectDrawVideoPort  00562e80     DXGUID:dxguid.obj
 0002:0001ae90       _IID_IDDVideoPortContainer 00562e90     DXGUID:dxguid.obj
 0002:0001aea0       _IID_IDirectDrawGammaControl 00562ea0     DXGUID:dxguid.obj
 0002:0001aeb0       _IID_IDirectDrawColorControl 00562eb0     DXGUID:dxguid.obj
 0002:0001aec0       _IID_IDirectDrawClipper    00562ec0     DXGUID:dxguid.obj
 0002:0001aed0       _IID_IDirectDrawPalette    00562ed0     DXGUID:dxguid.obj
 0002:0001aee0       _IID_IDirectDrawPalette2   00562ee0     DXGUID:dxguid.obj
 0002:0001aef0       _IID_IDirectDrawOptSurface 00562ef0     DXGUID:dxguid.obj
 0002:0001af00       _GUID_DirectDrawPaletteStream 00562f00     DXGUID:dxguid.obj
 0002:0001af10       _GUID_DirectDrawSurfaceStream 00562f10     DXGUID:dxguid.obj
 0002:0001af20       _IID_IDirectDrawFactory2   00562f20     DXGUID:dxguid.obj
 0002:0001af30       _CLSID_DirectDrawFactory2  00562f30     DXGUID:dxguid.obj
 0002:0001af40       _IID_IDirectDrawSurfaceNew 00562f40     DXGUID:dxguid.obj
 0002:0001af50       _IID_IDirectDrawSurface7   00562f50     DXGUID:dxguid.obj
 0002:0001af60       _IID_IDirectDrawSurface4   00562f60     DXGUID:dxguid.obj
 0002:0001af70       _IID_IDirectDrawSurface3   00562f70     DXGUID:dxguid.obj
 0002:0001af80       _IID_IDirectDrawSurface2   00562f80     DXGUID:dxguid.obj
 0002:0001af90       _IID_IDirectDrawSurface    00562f90     DXGUID:dxguid.obj
 0002:0001afa0       _IID_IDirectDraw7          00562fa0     DXGUID:dxguid.obj
 0002:0001afb0       _IID_IDirectDraw4          00562fb0     DXGUID:dxguid.obj
 0002:0001afc0       _IID_IDirectDraw2          00562fc0     DXGUID:dxguid.obj
 0002:0001afd0       _IID_IDirectDraw           00562fd0     DXGUID:dxguid.obj
 0002:0001afe0       _CLSID_DirectDrawClipper   00562fe0     DXGUID:dxguid.obj
 0002:0001aff0       _CLSID_DirectDraw7         00562ff0     DXGUID:dxguid.obj
 0002:0001b000       _CLSID_DirectDraw          00563000     DXGUID:dxguid.obj
 0002:0001b014       ??_7logic_error@std@@6B@   00563014     libcpmt:xthrow.obj
 0002:0001b020       ??_7invalid_argument@std@@6B@ 00563020     libcpmt:xthrow.obj
 0002:0001b02c       ??_7length_error@std@@6B@  0056302c     libcpmt:xthrow.obj
 0002:0001b038       ??_7out_of_range@std@@6B@  00563038     libcpmt:xthrow.obj
 0002:0001b044       ??_7overflow_error@std@@6B@ 00563044     libcpmt:xthrow.obj
 0002:0001b04c       ??_C@_01NBENCBCI@?$CK?$AA@ 0056304c     libcpmt:locale0.obj
 0002:0001b054       ??_7_Locimp@locale@std@@6B@ 00563054     libcpmt:locale0.obj
 0002:0001b058       ??_C@_01GFHCPBMG@C?$AA@    00563058     libcpmt:locale0.obj
 0002:0001b060       ??_7error_category@std@@6B@ 00563060     libcpmt:syserror.obj
 0002:0001b078       ??_C@_07DCLBNMLN@generic?$AA@ 00563078     libcpmt:syserror.obj
 0002:0001b084       ??_7_Generic_error_category@std@@6B@ 00563084     libcpmt:syserror.obj
 0002:0001b09c       ??_C@_08LLGCOLLL@iostream?$AA@ 0056309c     libcpmt:syserror.obj
 0002:0001b0ac       ??_7_Iostream_error_category@std@@6B@ 005630ac     libcpmt:syserror.obj
 0002:0001b0c4       ??_C@_06FHFOAHML@system?$AA@ 005630c4     libcpmt:syserror.obj
 0002:0001b0d0       ??_7_System_error_category@std@@6B@ 005630d0     libcpmt:syserror.obj
 0002:0001b0e8       ??_C@_0BG@PADBLCHM@iostream?5stream?5error?$AA@ 005630e8     libcpmt:syserror.obj
 0002:0001b100       ?_BADOFF@std@@3_JB         00563100     libcpmt:ios.obj
 0002:0001b10c       ??_7bad_function_call@tr1@std@@6B@ 0056310c     libcpmt:badfunction.obj
 0002:0001b114       ??_C@_0BC@DPJNKNAF@bad?5function?5call?$AA@ 00563114     libcpmt:badfunction.obj
 0002:0001b12c       ??_7type_info@@6B@         0056312c     LIBCMT:typinfo.obj
 0002:0001b134       ??_7exception@std@@6B@     00563134     LIBCMT:stdexcpt.obj
 0002:0001b13c       ??_C@_0BC@EOODALEL@Unknown?5exception?$AA@ 0056313c     LIBCMT:stdexcpt.obj
 0002:0001b154       ??_7bad_cast@std@@6B@      00563154     LIBCMT:stdexcpt.obj
 0002:0001b160       ??_7bad_typeid@std@@6B@    00563160     LIBCMT:stdexcpt.obj
 0002:0001b16c       ??_7__non_rtti_object@std@@6B@ 0056316c     LIBCMT:stdexcpt.obj
 0002:0001b174       ??_C@_0P@GHFPNOJB@bad?5allocation?$AA@ 00563174     LIBCMT:new.obj
 0002:0001b1a4       __FPinit                   005631a4     LIBCMT:_fpinit_.obj
 0002:0001b1a8       ?ProcessDetach@NativeDll@<CrtImplementationDetails>@@0IB 005631a8     LIBCMT:_trnsctrl_.obj
 0002:0001b1ac       ?ProcessAttach@NativeDll@<CrtImplementationDetails>@@0IB 005631ac     LIBCMT:_trnsctrl_.obj
 0002:0001b1b0       ?ThreadAttach@NativeDll@<CrtImplementationDetails>@@0IB 005631b0     LIBCMT:_trnsctrl_.obj
 0002:0001b1b4       ?ThreadDetach@NativeDll@<CrtImplementationDetails>@@0IB 005631b4     LIBCMT:_trnsctrl_.obj
 0002:0001b1b8       ?ProcessVerifier@NativeDll@<CrtImplementationDetails>@@0IB 005631b8     LIBCMT:_trnsctrl_.obj
 0002:0001b208       ___newctype                00563208     LIBCMT:ctype.obj
 0002:0001b508       __wctype                   00563508     LIBCMT:ctype.obj
 0002:0001b710       ___newclmap                00563710     LIBCMT:ctype.obj
 0002:0001b890       ___newcumap                00563890     LIBCMT:ctype.obj
 0002:0001ba10       ??_C@_07LCBHPJJN@LC_TIME?$AA@ 00563a10     LIBCMT:setlocal.obj
 0002:0001ba18       ??_C@_0L@DLHIECNL@LC_NUMERIC?$AA@ 00563a18     LIBCMT:setlocal.obj
 0002:0001ba24       ??_C@_0M@MIENIKLA@LC_MONETARY?$AA@ 00563a24     LIBCMT:setlocal.obj
 0002:0001ba30       ??_C@_08EADHIDAD@LC_CTYPE?$AA@ 00563a30     LIBCMT:setlocal.obj
 0002:0001ba3c       ??_C@_0L@KFJHEKIK@LC_COLLATE?$AA@ 00563a3c     LIBCMT:setlocal.obj
 0002:0001ba48       ??_C@_06NEFDFEKB@LC_ALL?$AA@ 00563a48     LIBCMT:setlocal.obj
 0002:0001ba50       ___lc_category             00563a50     LIBCMT:setlocal.obj
 0002:0001bb18       ??_C@_03EGDHDPFD@_?4?0?$AA@ 00563b18     LIBCMT:setlocal.obj
 0002:0001bb1c       ??_C@_01LFCBOECM@?4?$AA@   00563b1c     LIBCMT:setlocal.obj
 0002:0001bb20       ??_C@_01IDAFKMJL@_?$AA@    00563b20     LIBCMT:setlocal.obj
 0002:0001bb24       ??_C@_01ICJEACDI@?$DL?$AA@ 00563b24     LIBCMT:setlocal.obj
 0002:0001bb28       ??_C@_01NEMOKFLO@?$DN?$AA@ 00563b28     LIBCMT:setlocal.obj
 0002:0001bb2c       ??_C@_02BALPLPBG@?$DN?$DL?$AA@ 00563b2c     LIBCMT:setlocal.obj
 0002:0001bb30       ??_C@_0EA@FCLIIPNN@Visual?5C?$CL?$CL?5CRT?3?5Not?5enough?5memor@ 00563b30     LIBCMT:strerror.obj
 0002:0001bb70       __pDestructExceptionObject 00563b70     LIBCMT:frame.obj
 0002:0001bb78       ??_7bad_exception@std@@6B@ 00563b78     LIBCMT:frame.obj
 0002:0001bb80       ??_C@_0O@DPKOEFFH@bad?5exception?$AA@ 00563b80     LIBCMT:frame.obj
 0002:0001bb90       ??_C@_1O@CEDCILHN@?$AA?$CI?$AAn?$AAu?$AAl?$AAl?$AA?$CJ?$AA?$AA@ 00563b90     LIBCMT:output.obj
 0002:0001bba0       ??_C@_06OJHGLDPL@?$CInull?$CJ?$AA@ 00563ba0     LIBCMT:output.obj
 0002:0001bba8       ___lookuptable             00563ba8     LIBCMT:output.obj
 0002:0001bc2c       ??_C@_05KLBDPFGC@e?$CL000?$AA@ 00563c2c     LIBCMT:cvt.obj
 0002:0001bc34       ??_C@_1BK@DBDEIDLH@?$AAK?$AAE?$AAR?$AAN?$AAE?$AAL?$AA3?$AA2?$AA?4?$AAD?$AAL?$AAL?$AA?$AA@ 00563c34     LIBCMT:tidtable.obj
 0002:0001bc50       ??_C@_07PEJMOBNF@FlsFree?$AA@ 00563c50     LIBCMT:tidtable.obj
 0002:0001bc58       ??_C@_0M@JCPCPOEF@FlsSetValue?$AA@ 00563c58     LIBCMT:tidtable.obj
 0002:0001bc64       ??_C@_0M@GDNOONDI@FlsGetValue?$AA@ 00563c64     LIBCMT:tidtable.obj
 0002:0001bc70       ??_C@_08KNHFBNJ@FlsAlloc?$AA@ 00563c70     LIBCMT:tidtable.obj
 0002:0001bc7c       ??_C@_0P@MIGLKIOC@CorExitProcess?$AA@ 00563c7c     LIBCMT:crt0dat.obj
 0002:0001bc8c       ??_C@_1BI@BGOHAHKC@?$AAm?$AAs?$AAc?$AAo?$AAr?$AAe?$AAe?$AA?4?$AAd?$AAl?$AAl?$AA?$AA@ 00563c8c     LIBCMT:crt0dat.obj
 0002:0001bd10       ??_C@_03IIINPABG@tan?$AA@  00563d10     LIBCMT:_libm_error_.obj
 0002:0001bd14       ??_C@_03LALBNOCG@cos?$AA@  00563d14     LIBCMT:_libm_error_.obj
 0002:0001bd18       ??_C@_03BLEJJJBH@sin?$AA@  00563d18     LIBCMT:_libm_error_.obj
 0002:0001bd1c       ??_C@_04EHEDPDJG@modf?$AA@ 00563d1c     LIBCMT:_libm_error_.obj
 0002:0001bd24       ??_C@_05PBJFFIGL@floor?$AA@ 00563d24     LIBCMT:_libm_error_.obj
 0002:0001bd2c       ??_C@_04GFPJNGEK@ceil?$AA@ 00563d2c     LIBCMT:_libm_error_.obj
 0002:0001bd34       ??_C@_04MLLJIGOK@atan?$AA@ 00563d34     LIBCMT:_libm_error_.obj
 0002:0001bd3c       ??_C@_05EOHGHCHD@exp10?$AA@ 00563d3c     LIBCMT:_libm_error_.obj
 0002:0001bd44       ??_C@_04PDIFKINK@acos?$AA@ 00563d44     LIBCMT:_libm_error_.obj
 0002:0001bd4c       ??_C@_04FIHNOPOL@asin?$AA@ 00563d4c     LIBCMT:_libm_error_.obj
 0002:0001bd54       ??_C@_03MGHMBJCF@log?$AA@  00563d54     LIBCMT:_libm_error_.obj
 0002:0001bd58       ??_C@_05HGHHAHAP@log10?$AA@ 00563d58     LIBCMT:_libm_error_.obj
 0002:0001bd60       ??_C@_03KHJOGHMM@exp?$AA@  00563d60     LIBCMT:_libm_error_.obj
 0002:0001bd64       ??_C@_03JGHBODFD@pow?$AA@  00563d64     LIBCMT:_libm_error_.obj
 0002:0001bd68       ??_C@_1BC@GDGBMEMK@?$AAH?$AAH?$AA?3?$AAm?$AAm?$AA?3?$AAs?$AAs?$AA?$AA@ 00563d68     LIBCMT:nlsdata2.obj
 0002:0001bd7c       ??_C@_1CI@KNAKOEBC@?$AAd?$AAd?$AAd?$AAd?$AA?0?$AA?5?$AAM?$AAM?$AAM?$AAM?$AA?5?$AAd?$AAd?$AA?0?$AA?5?$AAy?$AAy?$AAy?$AAy?$AA?$AA@ 00563d7c     LIBCMT:nlsdata2.obj
 0002:0001bda4       ??_C@_1BC@IEBCMHCM@?$AAM?$AAM?$AA?1?$AAd?$AAd?$AA?1?$AAy?$AAy?$AA?$AA@ 00563da4     LIBCMT:nlsdata2.obj
 0002:0001bdb8       ??_C@_15CLMNNGEL@?$AAP?$AAM?$AA?$AA@ 00563db8     LIBCMT:nlsdata2.obj
 0002:0001bdc0       ??_C@_15ODEHAHHF@?$AAA?$AAM?$AA?$AA@ 00563dc0     LIBCMT:nlsdata2.obj
 0002:0001bdc8       ??_C@_1BC@FEMKIFH@?$AAD?$AAe?$AAc?$AAe?$AAm?$AAb?$AAe?$AAr?$AA?$AA@ 00563dc8     LIBCMT:nlsdata2.obj
 0002:0001bddc       ??_C@_1BC@BGLIFPF@?$AAN?$AAo?$AAv?$AAe?$AAm?$AAb?$AAe?$AAr?$AA?$AA@ 00563ddc     LIBCMT:nlsdata2.obj
 0002:0001bdf0       ??_C@_1BA@EPANDLNG@?$AAO?$AAc?$AAt?$AAo?$AAb?$AAe?$AAr?$AA?$AA@ 00563df0     LIBCMT:nlsdata2.obj
 0002:0001be00       ??_C@_1BE@DKAAMBJL@?$AAS?$AAe?$AAp?$AAt?$AAe?$AAm?$AAb?$AAe?$AAr?$AA?$AA@ 00563e00     LIBCMT:nlsdata2.obj
 0002:0001be14       ??_C@_1O@PAHLKOAC@?$AAA?$AAu?$AAg?$AAu?$AAs?$AAt?$AA?$AA@ 00563e14     LIBCMT:nlsdata2.obj
 0002:0001be24       ??_C@_19BIFMLPCD@?$AAJ?$AAu?$AAl?$AAy?$AA?$AA@ 00563e24     LIBCMT:nlsdata2.obj
 0002:0001be30       ??_C@_19EPFLPGAP@?$AAJ?$AAu?$AAn?$AAe?$AA?$AA@ 00563e30     LIBCMT:nlsdata2.obj
 0002:0001be3c       ??_C@_1M@GJNLMHFD@?$AAA?$AAp?$AAr?$AAi?$AAl?$AA?$AA@ 00563e3c     LIBCMT:nlsdata2.obj
 0002:0001be48       ??_C@_1M@IKEENEDF@?$AAM?$AAa?$AAr?$AAc?$AAh?$AA?$AA@ 00563e48     LIBCMT:nlsdata2.obj
 0002:0001be54       ??_C@_1BC@JGDDFFAM@?$AAF?$AAe?$AAb?$AAr?$AAu?$AAa?$AAr?$AAy?$AA?$AA@ 00563e54     LIBCMT:nlsdata2.obj
 0002:0001be68       ??_C@_1BA@EFMEIEBA@?$AAJ?$AAa?$AAn?$AAu?$AAa?$AAr?$AAy?$AA?$AA@ 00563e68     LIBCMT:nlsdata2.obj
 0002:0001be78       ??_C@_17EGKACKIF@?$AAD?$AAe?$AAc?$AA?$AA@ 00563e78     LIBCMT:nlsdata2.obj
 0002:0001be80       ??_C@_17BBDMLCIG@?$AAN?$AAo?$AAv?$AA?$AA@ 00563e80     LIBCMT:nlsdata2.obj
 0002:0001be88       ??_C@_17FNLKOI@?$AAO?$AAc?$AAt?$AA?$AA@ 00563e88     LIBCMT:nlsdata2.obj
 0002:0001be90       ??_C@_17HCHCOKMG@?$AAS?$AAe?$AAp?$AA?$AA@ 00563e90     LIBCMT:nlsdata2.obj
 0002:0001be98       ??_C@_17ICPELBCN@?$AAA?$AAu?$AAg?$AA?$AA@ 00563e98     LIBCMT:nlsdata2.obj
 0002:0001bea0       ??_C@_17IJPCKHK@?$AAJ?$AAu?$AAl?$AA?$AA@ 00563ea0     LIBCMT:nlsdata2.obj
 0002:0001bea8       ??_C@_17KCJGOCPB@?$AAJ?$AAu?$AAn?$AA?$AA@ 00563ea8     LIBCMT:nlsdata2.obj
 0002:0001beb0       ??_C@_17PNNKMEED@?$AAM?$AAa?$AAy?$AA?$AA@ 00563eb0     LIBCMT:nlsdata2.obj
 0002:0001beb8       ??_C@_17LFPOIHDD@?$AAA?$AAp?$AAr?$AA?$AA@ 00563eb8     LIBCMT:nlsdata2.obj
 0002:0001bec0       ??_C@_17CKNLEDEC@?$AAM?$AAa?$AAr?$AA?$AA@ 00563ec0     LIBCMT:nlsdata2.obj
 0002:0001bec8       ??_C@_17LMDJEKJN@?$AAF?$AAe?$AAb?$AA?$AA@ 00563ec8     LIBCMT:nlsdata2.obj
 0002:0001bed0       ??_C@_17DKNBKCHM@?$AAJ?$AAa?$AAn?$AA?$AA@ 00563ed0     LIBCMT:nlsdata2.obj
 0002:0001bed8       ??_C@_1BC@ENMNNPAJ@?$AAS?$AAa?$AAt?$AAu?$AAr?$AAd?$AAa?$AAy?$AA?$AA@ 00563ed8     LIBCMT:nlsdata2.obj
 0002:0001beec       ??_C@_1O@PDICJHAG@?$AAF?$AAr?$AAi?$AAd?$AAa?$AAy?$AA?$AA@ 00563eec     LIBCMT:nlsdata2.obj
 0002:0001befc       ??_C@_1BC@HHMNLIHE@?$AAT?$AAh?$AAu?$AAr?$AAs?$AAd?$AAa?$AAy?$AA?$AA@ 00563efc     LIBCMT:nlsdata2.obj
 0002:0001bf10       ??_C@_1BE@EBOGMDOH@?$AAW?$AAe?$AAd?$AAn?$AAe?$AAs?$AAd?$AAa?$AAy?$AA?$AA@ 00563f10     LIBCMT:nlsdata2.obj
 0002:0001bf24       ??_C@_1BA@ENFBFFEK@?$AAT?$AAu?$AAe?$AAs?$AAd?$AAa?$AAy?$AA?$AA@ 00563f24     LIBCMT:nlsdata2.obj
 0002:0001bf34       ??_C@_1O@MMNBFLIA@?$AAM?$AAo?$AAn?$AAd?$AAa?$AAy?$AA?$AA@ 00563f34     LIBCMT:nlsdata2.obj
 0002:0001bf44       ??_C@_1O@IHNHDHPB@?$AAS?$AAu?$AAn?$AAd?$AAa?$AAy?$AA?$AA@ 00563f44     LIBCMT:nlsdata2.obj
 0002:0001bf54       ??_C@_17GGIBDPIH@?$AAS?$AAa?$AAt?$AA?$AA@ 00563f54     LIBCMT:nlsdata2.obj
 0002:0001bf5c       ??_C@_17HFOLPPLP@?$AAF?$AAr?$AAi?$AA?$AA@ 00563f5c     LIBCMT:nlsdata2.obj
 0002:0001bf64       ??_C@_17PDPHAADD@?$AAT?$AAh?$AAu?$AA?$AA@ 00563f64     LIBCMT:nlsdata2.obj
 0002:0001bf6c       ??_C@_17CJEDCEPE@?$AAW?$AAe?$AAd?$AA?$AA@ 00563f6c     LIBCMT:nlsdata2.obj
 0002:0001bf74       ??_C@_17BMKGEGOJ@?$AAT?$AAu?$AAe?$AA?$AA@ 00563f74     LIBCMT:nlsdata2.obj
 0002:0001bf7c       ??_C@_17KBOMKBF@?$AAM?$AAo?$AAn?$AA?$AA@ 00563f7c     LIBCMT:nlsdata2.obj
 0002:0001bf84       ??_C@_17MBGCMIPB@?$AAS?$AAu?$AAn?$AA?$AA@ 00563f84     LIBCMT:nlsdata2.obj
 0002:0001bf8c       ??_C@_08JCCMCCIL@HH?3mm?3ss?$AA@ 00563f8c     LIBCMT:nlsdata2.obj
 0002:0001bf98       ??_C@_0BE@CKGJFCPC@dddd?0?5MMMM?5dd?0?5yyyy?$AA@ 00563f98     LIBCMT:nlsdata2.obj
 0002:0001bfac       ??_C@_08BPBNCDIB@MM?1dd?1yy?$AA@ 00563fac     LIBCMT:nlsdata2.obj
 0002:0001bfb8       ??_C@_02CJNFDJBF@PM?$AA@   00563fb8     LIBCMT:nlsdata2.obj
 0002:0001bfbc       ??_C@_02DEDBPAFC@AM?$AA@   00563fbc     LIBCMT:nlsdata2.obj
 0002:0001bfc0       ??_C@_08EDHMEBNP@December?$AA@ 00563fc0     LIBCMT:nlsdata2.obj
 0002:0001bfcc       ??_C@_08HCHEGEOA@November?$AA@ 00563fcc     LIBCMT:nlsdata2.obj
 0002:0001bfd8       ??_C@_07JJNFCEND@October?$AA@ 00563fd8     LIBCMT:nlsdata2.obj
 0002:0001bfe0       ??_C@_09BHHEALKD@September?$AA@ 00563fe0     LIBCMT:nlsdata2.obj
 0002:0001bfec       ??_C@_06LBBHFDDG@August?$AA@ 00563fec     LIBCMT:nlsdata2.obj
 0002:0001bff4       ??_C@_04MIEPOIFP@July?$AA@ 00563ff4     LIBCMT:nlsdata2.obj
 0002:0001bffc       ??_C@_04CNLMGBGM@June?$AA@ 00563ffc     LIBCMT:nlsdata2.obj
 0002:0001c004       ??_C@_05DMJDNLEJ@April?$AA@ 00564004     LIBCMT:nlsdata2.obj
 0002:0001c00c       ??_C@_05HPCKOFNC@March?$AA@ 0056400c     LIBCMT:nlsdata2.obj
 0002:0001c014       ??_C@_08GNJGEPFN@February?$AA@ 00564014     LIBCMT:nlsdata2.obj
 0002:0001c020       ??_C@_07CGJPFGJA@January?$AA@ 00564020     LIBCMT:nlsdata2.obj
 0002:0001c028       ??_C@_03MKABNOCG@Dec?$AA@  00564028     LIBCMT:nlsdata2.obj
 0002:0001c02c       ??_C@_03JPJOFNIA@Nov?$AA@  0056402c     LIBCMT:nlsdata2.obj
 0002:0001c030       ??_C@_03BMAOKBAD@Oct?$AA@  00564030     LIBCMT:nlsdata2.obj
 0002:0001c034       ??_C@_03GGCAPAJC@Sep?$AA@  00564034     LIBCMT:nlsdata2.obj
 0002:0001c038       ??_C@_03IFJFEIGA@Aug?$AA@  00564038     LIBCMT:nlsdata2.obj
 0002:0001c03c       ??_C@_03LBGABGKK@Jul?$AA@  0056403c     LIBCMT:nlsdata2.obj
 0002:0001c040       ??_C@_03IDFGHECI@Jun?$AA@  00564040     LIBCMT:nlsdata2.obj
 0002:0001c044       ??_C@_03CNMDKL@May?$AA@    00564044     LIBCMT:nlsdata2.obj
 0002:0001c048       ??_C@_03LEOLGMJP@Apr?$AA@  00564048     LIBCMT:nlsdata2.obj
 0002:0001c04c       ??_C@_03ODNJBKGA@Mar?$AA@  0056404c     LIBCMT:nlsdata2.obj
 0002:0001c050       ??_C@_03HJBDCHOM@Feb?$AA@  00564050     LIBCMT:nlsdata2.obj
 0002:0001c054       ??_C@_03JIHJHPIE@Jan?$AA@  00564054     LIBCMT:nlsdata2.obj
 0002:0001c058       ??_C@_08INBOOONO@Saturday?$AA@ 00564058     LIBCMT:nlsdata2.obj
 0002:0001c064       ??_C@_06JECMNKMI@Friday?$AA@ 00564064     LIBCMT:nlsdata2.obj
 0002:0001c06c       ??_C@_08HACCIKIA@Thursday?$AA@ 0056406c     LIBCMT:nlsdata2.obj
 0002:0001c078       ??_C@_09DLIGFAKA@Wednesday?$AA@ 00564078     LIBCMT:nlsdata2.obj
 0002:0001c084       ??_C@_07BAAGCFCM@Tuesday?$AA@ 00564084     LIBCMT:nlsdata2.obj
 0002:0001c08c       ??_C@_06JLEDEDGH@Monday?$AA@ 0056408c     LIBCMT:nlsdata2.obj
 0002:0001c094       ??_C@_06OOPIFAJ@Sunday?$AA@ 00564094     LIBCMT:nlsdata2.obj
 0002:0001c09c       ??_C@_03FEFJNEK@Sat?$AA@   0056409c     LIBCMT:nlsdata2.obj
 0002:0001c0a0       ??_C@_03IDIOELNC@Fri?$AA@  005640a0     LIBCMT:nlsdata2.obj
 0002:0001c0a4       ??_C@_03IOFIKPDN@Thu?$AA@  005640a4     LIBCMT:nlsdata2.obj
 0002:0001c0a8       ??_C@_03MHOMLAJA@Wed?$AA@  005640a8     LIBCMT:nlsdata2.obj
 0002:0001c0ac       ??_C@_03NAGEINEP@Tue?$AA@  005640ac     LIBCMT:nlsdata2.obj
 0002:0001c0b0       ??_C@_03PDAGKDH@Mon?$AA@   005640b0     LIBCMT:nlsdata2.obj
 0002:0001c0b4       ??_C@_03KOEHGMDN@Sun?$AA@  005640b4     LIBCMT:nlsdata2.obj
 0002:0001c0c0       __indefinite               005640c0     LIBCMT:_87disp_.obj
 0002:0001c0ca       __piby2                    005640ca     LIBCMT:_87disp_.obj
 0002:0001c0f8       __DEFAULT_CW_in_mem        005640f8     LIBCMT:_common_.obj
 0002:0001c0fa       __pi_by_2_to_61            005640fa     LIBCMT:_common_.obj
 0002:0001ca40       __infinity                 00564a40     LIBCMT:_87tran_.obj
 0002:0001ca4a       __minfinity                00564a4a     LIBCMT:_87tran_.obj
 0002:0001ca54       __logemax                  00564a54     LIBCMT:_87tran_.obj
 0002:0001ca7a       __OP_EXPjmptab             00564a7a     LIBCMT:_87tran_.obj
 0002:0001ca9c       ??_C@_1BO@BKOMIGKJ@?$AAr?$AAu?$AAn?$AAt?$AAi?$AAm?$AAe?$AA?5?$AAe?$AAr?$AAr?$AAo?$AAr?$AA?5?$AA?$AA@ 00564a9c     LIBCMT:crt0msg.obj
 0002:0001cabc       ??_C@_15JNBOKNOG@?$AA?$AN?$AA?6?$AA?$AA@ 00564abc     LIBCMT:crt0msg.obj
 0002:0001cac4       ??_C@_1BM@JBBEPPHI@?$AAT?$AAL?$AAO?$AAS?$AAS?$AA?5?$AAe?$AAr?$AAr?$AAo?$AAr?$AA?$AN?$AA?6?$AA?$AA@ 00564ac4     LIBCMT:crt0msg.obj
 0002:0001cae0       ??_C@_1BK@KMOMNAAI@?$AAS?$AAI?$AAN?$AAG?$AA?5?$AAe?$AAr?$AAr?$AAo?$AAr?$AA?$AN?$AA?6?$AA?$AA@ 00564ae0     LIBCMT:crt0msg.obj
 0002:0001cafc       ??_C@_1BO@BFCDCGC@?$AAD?$AAO?$AAM?$AAA?$AAI?$AAN?$AA?5?$AAe?$AAr?$AAr?$AAo?$AAr?$AA?$AN?$AA?6?$AA?$AA@ 00564afc     LIBCMT:crt0msg.obj
 0002:0001cb20       ??_C@_1BOO@KGEDBGAJ@?$AAR?$AA6?$AA0?$AA3?$AA3?$AA?$AN?$AA?6?$AA?9?$AA?5?$AAA?$AAt?$AAt?$AAe?$AAm?$AAp?$AAt?$AA?5?$AAt?$AAo?$AA?5?$AAu?$AAs?$AAe?$AA?5?$AAM?$AAS?$AAI?$AAL?$AA?5?$AAc?$AAo?$AAd@ 00564b20     LIBCMT:crt0msg.obj
 0002:0001cd10       ??_C@_1GG@GOPILAJP@?$AAR?$AA6?$AA0?$AA3?$AA2?$AA?$AN?$AA?6?$AA?9?$AA?5?$AAn?$AAo?$AAt?$AA?5?$AAe?$AAn?$AAo?$AAu?$AAg?$AAh?$AA?5?$AAs?$AAp?$AAa?$AAc?$AAe?$AA?5?$AAf?$AAo?$AAr?$AA?5?$AAl?$AAo@ 00564d10     LIBCMT:crt0msg.obj
 0002:0001cd78       ??_C@_1MG@ENCOOIDF@?$AAR?$AA6?$AA0?$AA3?$AA1?$AA?$AN?$AA?6?$AA?9?$AA?5?$AAA?$AAt?$AAt?$AAe?$AAm?$AAp?$AAt?$AA?5?$AAt?$AAo?$AA?5?$AAi?$AAn?$AAi?$AAt?$AAi?$AAa?$AAl?$AAi?$AAz?$AAe?$AA?5?$AAt@ 00564d78     LIBCMT:crt0msg.obj
 0002:0001ce40       ??_C@_1DO@BMFCDCD@?$AAR?$AA6?$AA0?$AA3?$AA0?$AA?$AN?$AA?6?$AA?9?$AA?5?$AAC?$AAR?$AAT?$AA?5?$AAn?$AAo?$AAt?$AA?5?$AAi?$AAn?$AAi?$AAt?$AAi?$AAa?$AAl?$AAi?$AAz?$AAe?$AAd?$AA?$AN?$AA?6?$AA?$AA@ 00564e40     LIBCMT:crt0msg.obj
 0002:0001ce80       ??_C@_1EK@HHFLMAOL@?$AAR?$AA6?$AA0?$AA2?$AA8?$AA?$AN?$AA?6?$AA?9?$AA?5?$AAu?$AAn?$AAa?$AAb?$AAl?$AAe?$AA?5?$AAt?$AAo?$AA?5?$AAi?$AAn?$AAi?$AAt?$AAi?$AAa?$AAl?$AAi?$AAz?$AAe?$AA?5?$AAh?$AAe@ 00564e80     LIBCMT:crt0msg.obj
 0002:0001ced0       ??_C@_1GK@MFGOKLAG@?$AAR?$AA6?$AA0?$AA2?$AA7?$AA?$AN?$AA?6?$AA?9?$AA?5?$AAn?$AAo?$AAt?$AA?5?$AAe?$AAn?$AAo?$AAu?$AAg?$AAh?$AA?5?$AAs?$AAp?$AAa?$AAc?$AAe?$AA?5?$AAf?$AAo?$AAr?$AA?5?$AAl?$AAo@ 00564ed0     LIBCMT:crt0msg.obj
 0002:0001cf40       ??_C@_1GK@MCAAGJMO@?$AAR?$AA6?$AA0?$AA2?$AA6?$AA?$AN?$AA?6?$AA?9?$AA?5?$AAn?$AAo?$AAt?$AA?5?$AAe?$AAn?$AAo?$AAu?$AAg?$AAh?$AA?5?$AAs?$AAp?$AAa?$AAc?$AAe?$AA?5?$AAf?$AAo?$AAr?$AA?5?$AAs?$AAt@ 00564f40     LIBCMT:crt0msg.obj
 0002:0001cfb0       ??_C@_1EM@MAADIHMB@?$AAR?$AA6?$AA0?$AA2?$AA5?$AA?$AN?$AA?6?$AA?9?$AA?5?$AAp?$AAu?$AAr?$AAe?$AA?5?$AAv?$AAi?$AAr?$AAt?$AAu?$AAa?$AAl?$AA?5?$AAf?$AAu?$AAn?$AAc?$AAt?$AAi?$AAo?$AAn?$AA?5?$AAc@ 00564fb0     LIBCMT:crt0msg.obj
 0002:0001d000       ??_C@_1GK@FHCKBEFA@?$AAR?$AA6?$AA0?$AA2?$AA4?$AA?$AN?$AA?6?$AA?9?$AA?5?$AAn?$AAo?$AAt?$AA?5?$AAe?$AAn?$AAo?$AAu?$AAg?$AAh?$AA?5?$AAs?$AAp?$AAa?$AAc?$AAe?$AA?5?$AAf?$AAo?$AAr?$AA?5?$AA_?$AAo@ 00565000     LIBCMT:crt0msg.obj
 0002:0001d070       ??_C@_1FC@ECHBIFBC@?$AAR?$AA6?$AA0?$AA1?$AA9?$AA?$AN?$AA?6?$AA?9?$AA?5?$AAu?$AAn?$AAa?$AAb?$AAl?$AAe?$AA?5?$AAt?$AAo?$AA?5?$AAo?$AAp?$AAe?$AAn?$AA?5?$AAc?$AAo?$AAn?$AAs?$AAo?$AAl?$AAe?$AA?5@ 00565070     LIBCMT:crt0msg.obj
 0002:0001d0c8       ??_C@_1EC@JIBHAOPH@?$AAR?$AA6?$AA0?$AA1?$AA8?$AA?$AN?$AA?6?$AA?9?$AA?5?$AAu?$AAn?$AAe?$AAx?$AAp?$AAe?$AAc?$AAt?$AAe?$AAd?$AA?5?$AAh?$AAe?$AAa?$AAp?$AA?5?$AAe?$AAr?$AAr?$AAo?$AAr?$AA?$AN?$AA?6@ 005650c8     LIBCMT:crt0msg.obj
 0002:0001d110       ??_C@_1FK@BEOGODMC@?$AAR?$AA6?$AA0?$AA1?$AA7?$AA?$AN?$AA?6?$AA?9?$AA?5?$AAu?$AAn?$AAe?$AAx?$AAp?$AAe?$AAc?$AAt?$AAe?$AAd?$AA?5?$AAm?$AAu?$AAl?$AAt?$AAi?$AAt?$AAh?$AAr?$AAe?$AAa?$AAd?$AA?5@ 00565110     LIBCMT:crt0msg.obj
 0002:0001d170       ??_C@_1FI@LOGNIKDM@?$AAR?$AA6?$AA0?$AA1?$AA6?$AA?$AN?$AA?6?$AA?9?$AA?5?$AAn?$AAo?$AAt?$AA?5?$AAe?$AAn?$AAo?$AAu?$AAg?$AAh?$AA?5?$AAs?$AAp?$AAa?$AAc?$AAe?$AA?5?$AAf?$AAo?$AAr?$AA?5?$AAt?$AAh@ 00565170     LIBCMT:crt0msg.obj
 0002:0001d1c8       ??_C@_1EG@BEHAGFJD@?$AAR?$AA6?$AA0?$AA1?$AA0?$AA?$AN?$AA?6?$AA?9?$AA?5?$AAa?$AAb?$AAo?$AAr?$AAt?$AA?$CI?$AA?$CJ?$AA?5?$AAh?$AAa?$AAs?$AA?5?$AAb?$AAe?$AAe?$AAn?$AA?5?$AAc?$AAa?$AAl?$AAl?$AAe?$AAd@ 005651c8     LIBCMT:crt0msg.obj
 0002:0001d210       ??_C@_1FI@HONFMGBI@?$AAR?$AA6?$AA0?$AA0?$AA9?$AA?$AN?$AA?6?$AA?9?$AA?5?$AAn?$AAo?$AAt?$AA?5?$AAe?$AAn?$AAo?$AAu?$AAg?$AAh?$AA?5?$AAs?$AAp?$AAa?$AAc?$AAe?$AA?5?$AAf?$AAo?$AAr?$AA?5?$AAe?$AAn@ 00565210     LIBCMT:crt0msg.obj
 0002:0001d268       ??_C@_1FE@LLNEDJMD@?$AAR?$AA6?$AA0?$AA0?$AA8?$AA?$AN?$AA?6?$AA?9?$AA?5?$AAn?$AAo?$AAt?$AA?5?$AAe?$AAn?$AAo?$AAu?$AAg?$AAh?$AA?5?$AAs?$AAp?$AAa?$AAc?$AAe?$AA?5?$AAf?$AAo?$AAr?$AA?5?$AAa?$AAr@ 00565268     LIBCMT:crt0msg.obj
 0002:0001d2c0       ??_C@_1FK@PGACCAFB@?$AAR?$AA6?$AA0?$AA0?$AA2?$AA?$AN?$AA?6?$AA?9?$AA?5?$AAf?$AAl?$AAo?$AAa?$AAt?$AAi?$AAn?$AAg?$AA?5?$AAp?$AAo?$AAi?$AAn?$AAt?$AA?5?$AAs?$AAu?$AAp?$AAp?$AAo?$AAr?$AAt?$AA?5@ 005652c0     LIBCMT:crt0msg.obj
 0002:0001d3d0       ??_C@_1EK@MBDPDCGA@?$AAM?$AAi?$AAc?$AAr?$AAo?$AAs?$AAo?$AAf?$AAt?$AA?5?$AAV?$AAi?$AAs?$AAu?$AAa?$AAl?$AA?5?$AAC?$AA?$CL?$AA?$CL?$AA?5?$AAR?$AAu?$AAn?$AAt?$AAi?$AAm?$AAe?$AA?5?$AAL?$AAi?$AAb@ 005653d0     LIBCMT:crt0msg.obj
 0002:0001d41c       ??_C@_15IABLJNFO@?$AA?6?$AA?6?$AA?$AA@ 0056541c     LIBCMT:crt0msg.obj
 0002:0001d424       ??_C@_17LGKOMLJ@?$AA?4?$AA?4?$AA?4?$AA?$AA@ 00565424     LIBCMT:crt0msg.obj
 0002:0001d42c       ??_C@_1CO@EAEJAADC@?$AA?$DM?$AAp?$AAr?$AAo?$AAg?$AAr?$AAa?$AAm?$AA?5?$AAn?$AAa?$AAm?$AAe?$AA?5?$AAu?$AAn?$AAk?$AAn?$AAo?$AAw?$AAn?$AA?$DO?$AA?$AA@ 0056542c     LIBCMT:crt0msg.obj
 0002:0001d45c       ??_C@_1DE@JNGNBFGO@?$AAR?$AAu?$AAn?$AAt?$AAi?$AAm?$AAe?$AA?5?$AAE?$AAr?$AAr?$AAo?$AAr?$AA?$CB?$AA?6?$AA?6?$AAP?$AAr?$AAo?$AAg?$AAr?$AAa?$AAm?$AA?3?$AA?5?$AA?$AA@ 0056545c     LIBCMT:crt0msg.obj
 0002:0001d490       __XcptActTab               00565490     LIBCMT:winxfltr.obj
 0002:0001d520       __First_FPE_Indx           00565520     LIBCMT:winxfltr.obj
 0002:0001d524       __Num_FPE                  00565524     LIBCMT:winxfltr.obj
 0002:0001d528       __XcptActTabSize           00565528     LIBCMT:winxfltr.obj
 0002:0001d52c       __XcptActTabCount          0056552c     LIBCMT:winxfltr.obj
 0002:0001d530       ??_C@_0O@FMJNFNKE@united?9states?$AA@ 00565530     LIBCMT:getqloc.obj
 0002:0001d540       ??_C@_0P@NDHFFKCA@united?9kingdom?$AA@ 00565540     LIBCMT:getqloc.obj
 0002:0001d550       ??_C@_0BC@HHDADLGF@trinidad?5?$CG?5tobago?$AA@ 00565550     LIBCMT:getqloc.obj
 0002:0001d564       ??_C@_0M@IOAEBDAC@south?9korea?$AA@ 00565564     LIBCMT:getqloc.obj
 0002:0001d570       ??_C@_0N@FIELFKIJ@south?9africa?$AA@ 00565570     LIBCMT:getqloc.obj
 0002:0001d580       ??_C@_0M@OPNDHCMC@south?5korea?$AA@ 00565580     LIBCMT:getqloc.obj
 0002:0001d58c       ??_C@_0N@MDEOEPFI@south?5africa?$AA@ 0056558c     LIBCMT:getqloc.obj
 0002:0001d59c       ??_C@_06FKAPCJLB@slovak?$AA@ 0056559c     LIBCMT:getqloc.obj
 0002:0001d5a4       ??_C@_0M@EFJANOAL@puerto?9rico?$AA@ 005655a4     LIBCMT:getqloc.obj
 0002:0001d5b0       ??_C@_08PGOJKDAI@pr?9china?$AA@ 005655b0     LIBCMT:getqloc.obj
 0002:0001d5bc       ??_C@_08JHDOMCMI@pr?5china?$AA@ 005655bc     LIBCMT:getqloc.obj
 0002:0001d5c8       ??_C@_02JHCHFBLL@nz?$AA@   005655c8     LIBCMT:getqloc.obj
 0002:0001d5cc       ??_C@_0M@LINHDHKP@new?9zealand?$AA@ 005655cc     LIBCMT:getqloc.obj
 0002:0001d5d8       ??_C@_09IIIPPBDB@hong?9kong?$AA@ 005655d8     LIBCMT:getqloc.obj
 0002:0001d5e4       ??_C@_07HJLCKBG@holland?$AA@ 005655e4     LIBCMT:getqloc.obj
 0002:0001d5ec       ??_C@_0O@LEHGMHAG@great?5britain?$AA@ 005655ec     LIBCMT:getqloc.obj
 0002:0001d5fc       ??_C@_07FACOMELA@england?$AA@ 005655fc     LIBCMT:getqloc.obj
 0002:0001d604       ??_C@_05JIHCEICB@czech?$AA@ 00565604     LIBCMT:getqloc.obj
 0002:0001d60c       ??_C@_05BBJOBLGB@china?$AA@ 0056560c     LIBCMT:getqloc.obj
 0002:0001d614       ??_C@_07GPKPHICP@britain?$AA@ 00565614     LIBCMT:getqloc.obj
 0002:0001d61c       ??_C@_07MHIPBHMG@america?$AA@ 0056561c     LIBCMT:getqloc.obj
 0002:0001d624       ??_C@_03KIALPMKC@usa?$AA@  00565624     LIBCMT:getqloc.obj
 0002:0001d628       ??_C@_02FGJGKGGD@us?$AA@   00565628     LIBCMT:getqloc.obj
 0002:0001d62c       ??_C@_02NEINDODK@uk?$AA@   0056562c     LIBCMT:getqloc.obj
 0002:0001d630       ??_C@_05JMPCFJFJ@swiss?$AA@ 00565630     LIBCMT:getqloc.obj
 0002:0001d638       ??_C@_0BA@HLOCPIOD@swedish?9finland?$AA@ 00565638     LIBCMT:getqloc.obj
 0002:0001d648       ??_C@_0BC@PKCNIABK@spanish?9venezuela?$AA@ 00565648     LIBCMT:getqloc.obj
 0002:0001d65c       ??_C@_0BA@GBHHMIJI@spanish?9uruguay?$AA@ 0056565c     LIBCMT:getqloc.obj
 0002:0001d66c       ??_C@_0BE@BHDOHPMC@spanish?9puerto?5rico?$AA@ 0056566c     LIBCMT:getqloc.obj
 0002:0001d680       ??_C@_0N@KMOIDGGN@spanish?9peru?$AA@ 00565680     LIBCMT:getqloc.obj
 0002:0001d690       ??_C@_0BB@HMHLPGPH@spanish?9paraguay?$AA@ 00565690     LIBCMT:getqloc.obj
 0002:0001d6a4       ??_C@_0P@MCPKNGFD@spanish?9panama?$AA@ 005656a4     LIBCMT:getqloc.obj
 0002:0001d6b4       ??_C@_0BC@IHOHGAIL@spanish?9nicaragua?$AA@ 005656b4     LIBCMT:getqloc.obj
 0002:0001d6c8       ??_C@_0P@KLMJDNFJ@spanish?9modern?$AA@ 005656c8     LIBCMT:getqloc.obj
 0002:0001d6d8       ??_C@_0BA@BPAPGBCM@spanish?9mexican?$AA@ 005656d8     LIBCMT:getqloc.obj
 0002:0001d6e8       ??_C@_0BB@PDECHHHE@spanish?9honduras?$AA@ 005656e8     LIBCMT:getqloc.obj
 0002:0001d6fc       ??_C@_0BC@KLHKFGDB@spanish?9guatemala?$AA@ 005656fc     LIBCMT:getqloc.obj
 0002:0001d710       ??_C@_0BE@MFOOKJAI@spanish?9el?5salvador?$AA@ 00565710     LIBCMT:getqloc.obj
 0002:0001d724       ??_C@_0BA@FCOKFPFC@spanish?9ecuador?$AA@ 00565724     LIBCMT:getqloc.obj
 0002:0001d734       ??_C@_0BL@PLMGIMOO@spanish?9dominican?5republic?$AA@ 00565734     LIBCMT:getqloc.obj
 0002:0001d750       ??_C@_0BD@HLGDNMHB@spanish?9costa?5rica?$AA@ 00565750     LIBCMT:getqloc.obj
 0002:0001d764       ??_C@_0BB@PKCBKCPE@spanish?9colombia?$AA@ 00565764     LIBCMT:getqloc.obj
 0002:0001d778       ??_C@_0O@MCBIJGNE@spanish?9chile?$AA@ 00565778     LIBCMT:getqloc.obj
 0002:0001d788       ??_C@_0BA@BEFEIGJJ@spanish?9bolivia?$AA@ 00565788     LIBCMT:getqloc.obj
 0002:0001d798       ??_C@_0BC@EMECMPD@spanish?9argentina?$AA@ 00565798     LIBCMT:getqloc.obj
 0002:0001d7ac       ??_C@_0BF@EALFLENP@portuguese?9brazilian?$AA@ 005657ac     LIBCMT:getqloc.obj
 0002:0001d7c4       ??_C@_0BC@HBLEBLNN@norwegian?9nynorsk?$AA@ 005657c4     LIBCMT:getqloc.obj
 0002:0001d7d8       ??_C@_0BB@HMACDDCK@norwegian?9bokmal?$AA@ 005657d8     LIBCMT:getqloc.obj
 0002:0001d7ec       ??_C@_09BAFFPPHE@norwegian?$AA@ 005657ec     LIBCMT:getqloc.obj
 0002:0001d7f8       ??_C@_0O@EAJFJDFG@italian?9swiss?$AA@ 005657f8     LIBCMT:getqloc.obj
 0002:0001d808       ??_C@_0O@CNOMPGD@irish?9english?$AA@ 00565808     LIBCMT:getqloc.obj
 0002:0001d818       ??_C@_0N@EDHBGCKG@german?9swiss?$AA@ 00565818     LIBCMT:getqloc.obj
 0002:0001d828       ??_C@_0BC@JACMHNBP@german?9luxembourg?$AA@ 00565828     LIBCMT:getqloc.obj
 0002:0001d83c       ??_C@_0BE@HBGMGFEG@german?9lichtenstein?$AA@ 0056583c     LIBCMT:getqloc.obj
 0002:0001d850       ??_C@_0BA@HKKBIBKL@german?9austrian?$AA@ 00565850     LIBCMT:getqloc.obj
 0002:0001d860       ??_C@_0N@GCAEPEBK@french?9swiss?$AA@ 00565860     LIBCMT:getqloc.obj
 0002:0001d870       ??_C@_0BC@DJFJJCK@french?9luxembourg?$AA@ 00565870     LIBCMT:getqloc.obj
 0002:0001d884       ??_C@_0BA@NNCEDFIC@french?9canadian?$AA@ 00565884     LIBCMT:getqloc.obj
 0002:0001d894       ??_C@_0P@CMPOCLM@french?9belgian?$AA@ 00565894     LIBCMT:getqloc.obj
 0002:0001d8a4       ??_C@_0M@GHHDJOK@english?9usa?$AA@ 005658a4     LIBCMT:getqloc.obj
 0002:0001d8b0       ??_C@_0L@PLDJKEIL@english?9us?$AA@ 005658b0     LIBCMT:getqloc.obj
 0002:0001d8bc       ??_C@_0L@HJCCDMNC@english?9uk?$AA@ 005658bc     LIBCMT:getqloc.obj
 0002:0001d8c8       ??_C@_0BK@CKLIAGJB@english?9trinidad?5y?5tobago?$AA@ 005658c8     LIBCMT:getqloc.obj
 0002:0001d8e4       ??_C@_0BF@JMJMGNNF@english?9south?5africa?$AA@ 005658e4     LIBCMT:getqloc.obj
 0002:0001d8fc       ??_C@_0L@DKIIFDFD@english?9nz?$AA@ 005658fc     LIBCMT:getqloc.obj
 0002:0001d908       ??_C@_0BA@ONHGJCLH@english?9jamaica?$AA@ 00565908     LIBCMT:getqloc.obj
 0002:0001d918       ??_C@_0M@HJBGHOPO@english?9ire?$AA@ 00565918     LIBCMT:getqloc.obj
 0002:0001d924       ??_C@_0BC@LFEKMIFB@english?9caribbean?$AA@ 00565924     LIBCMT:getqloc.obj
 0002:0001d938       ??_C@_0M@OLDPFKHI@english?9can?$AA@ 00565938     LIBCMT:getqloc.obj
 0002:0001d944       ??_C@_0P@OMDEHBMP@english?9belize?$AA@ 00565944     LIBCMT:getqloc.obj
 0002:0001d954       ??_C@_0M@KFHFPFED@english?9aus?$AA@ 00565954     LIBCMT:getqloc.obj
 0002:0001d960       ??_C@_0BB@MNMBKDFE@english?9american?$AA@ 00565960     LIBCMT:getqloc.obj
 0002:0001d974       ??_C@_0O@KIDLNNBA@dutch?9belgian?$AA@ 00565974     LIBCMT:getqloc.obj
 0002:0001d984       ??_C@_0BE@JBKABBMH@chinese?9traditional?$AA@ 00565984     LIBCMT:getqloc.obj
 0002:0001d998       ??_C@_0BC@MJJMPKCG@chinese?9singapore?$AA@ 00565998     LIBCMT:getqloc.obj
 0002:0001d9ac       ??_C@_0BD@FDKADDCP@chinese?9simplified?$AA@ 005659ac     LIBCMT:getqloc.obj
 0002:0001d9c0       ??_C@_0BB@DBEFDDME@chinese?9hongkong?$AA@ 005659c0     LIBCMT:getqloc.obj
 0002:0001d9d4       ??_C@_07DHNMFMCI@chinese?$AA@ 005659d4     LIBCMT:getqloc.obj
 0002:0001d9dc       ??_C@_03FNDDCHI@chi?$AA@   005659dc     LIBCMT:getqloc.obj
 0002:0001d9e0       ??_C@_03BMMIADDJ@chh?$AA@  005659e0     LIBCMT:getqloc.obj
 0002:0001d9e4       ??_C@_08OAIPJDGI@canadian?$AA@ 005659e4     LIBCMT:getqloc.obj
 0002:0001d9f0       ??_C@_07HBPMNPNJ@belgian?$AA@ 005659f0     LIBCMT:getqloc.obj
 0002:0001d9f8       ??_C@_0L@OEKOPBEL@australian?$AA@ 005659f8     LIBCMT:getqloc.obj
 0002:0001da04       ??_C@_0BB@MEIMBEDG@american?9english?$AA@ 00565a04     LIBCMT:getqloc.obj
 0002:0001da18       ??_C@_0BB@DFMDPDGB@american?5english?$AA@ 00565a18     LIBCMT:getqloc.obj
 0002:0001da2c       ??_C@_08IJLOKOLL@american?$AA@ 00565a2c     LIBCMT:getqloc.obj
 0002:0001da38       ___rg_language             00565a38     LIBCMT:getqloc.obj
 0002:0001dc40       ___rg_country              00565c40     LIBCMT:getqloc.obj
 0002:0001dcf8       ___rglangidNotDefault      00565cf8     LIBCMT:getqloc.obj
 0002:0001dd0c       ??_C@_03NFKLAGEF@OCP?$AA@  00565d0c     LIBCMT:getqloc.obj
 0002:0001dd10       ??_C@_03DFHEHBHG@ACP?$AA@  00565d10     LIBCMT:getqloc.obj
 0002:0001dd14       ??_C@_0BC@NFIEMBLL@Norwegian?9Nynorsk?$AA@ 00565d14     LIBCMT:getqloc.obj
 0002:0001dd28       ??_C@_0BG@KLEAJEFJ@Illegal?5byte?5sequence?$AA@ 00565d28     LIBCMT:syserr.obj
 0002:0001dd40       ??_C@_0BE@ICMCHPHH@Directory?5not?5empty?$AA@ 00565d40     LIBCMT:syserr.obj
 0002:0001dd54       ??_C@_0BJ@IHEHINLI@Function?5not?5implemented?$AA@ 00565d54     LIBCMT:syserr.obj
 0002:0001dd70       ??_C@_0BD@CLHBCGPB@No?5locks?5available?$AA@ 00565d70     LIBCMT:syserr.obj
 0002:0001dd84       ??_C@_0BC@BEDIHIDK@Filename?5too?5long?$AA@ 00565d84     LIBCMT:syserr.obj
 0002:0001dd98       ??_C@_0BK@JAEBMJJM@Resource?5deadlock?5avoided?$AA@ 00565d98     LIBCMT:syserr.obj
 0002:0001ddb4       ??_C@_0BB@FCBJFCAJ@Result?5too?5large?$AA@ 00565db4     LIBCMT:syserr.obj
 0002:0001ddc8       ??_C@_0N@MMJPGLJK@Domain?5error?$AA@ 00565dc8     LIBCMT:syserr.obj
 0002:0001ddd8       ??_C@_0M@LHEPIIOM@Broken?5pipe?$AA@ 00565dd8     LIBCMT:syserr.obj
 0002:0001dde4       ??_C@_0P@PKCJJLLM@Too?5many?5links?$AA@ 00565de4     LIBCMT:syserr.obj
 0002:0001ddf4       ??_C@_0BG@DDBFNKBH@Read?9only?5file?5system?$AA@ 00565df4     LIBCMT:syserr.obj
 0002:0001de0c       ??_C@_0N@FEHLOILP@Invalid?5seek?$AA@ 00565e0c     LIBCMT:syserr.obj
 0002:0001de1c       ??_C@_0BI@FEALHKLD@No?5space?5left?5on?5device?$AA@ 00565e1c     LIBCMT:syserr.obj
 0002:0001de34       ??_C@_0P@LFMMIPAE@File?5too?5large?$AA@ 00565e34     LIBCMT:syserr.obj
 0002:0001de44       ??_C@_0CE@ONOKNLPF@Inappropriate?5I?1O?5control?5operat@ 00565e44     LIBCMT:syserr.obj
 0002:0001de68       ??_C@_0BE@INBJMKGG@Too?5many?5open?5files?$AA@ 00565e68     LIBCMT:syserr.obj
 0002:0001de7c       ??_C@_0BO@IIFBODJE@Too?5many?5open?5files?5in?5system?$AA@ 00565e7c     LIBCMT:syserr.obj
 0002:0001de9c       ??_C@_0BB@HMGGCEBG@Invalid?5argument?$AA@ 00565e9c     LIBCMT:syserr.obj
 0002:0001deb0       ??_C@_0P@NDHGCGKE@Is?5a?5directory?$AA@ 00565eb0     LIBCMT:syserr.obj
 0002:0001dec0       ??_C@_0BA@CJBACOOL@Not?5a?5directory?$AA@ 00565ec0     LIBCMT:syserr.obj
 0002:0001ded0       ??_C@_0P@NLEIANHE@No?5such?5device?$AA@ 00565ed0     LIBCMT:syserr.obj
 0002:0001dee0       ??_C@_0O@OAMDNOCP@Improper?5link?$AA@ 00565ee0     LIBCMT:syserr.obj
 0002:0001def0       ??_C@_0M@NAAJNNGH@File?5exists?$AA@ 00565ef0     LIBCMT:syserr.obj
 0002:0001defc       ??_C@_0BA@BIBLIOEK@Resource?5device?$AA@ 00565efc     LIBCMT:syserr.obj
 0002:0001df0c       ??_C@_0O@NIPGCINC@Unknown?5error?$AA@ 00565f0c     LIBCMT:syserr.obj
 0002:0001df1c       ??_C@_0M@LOEHLCJD@Bad?5address?$AA@ 00565f1c     LIBCMT:syserr.obj
 0002:0001df28       ??_C@_0BC@HFNFNKAI@Permission?5denied?$AA@ 00565f28     LIBCMT:syserr.obj
 0002:0001df3c       ??_C@_0BB@IMDKMPFB@Not?5enough?5space?$AA@ 00565f3c     LIBCMT:syserr.obj
 0002:0001df50       ??_C@_0CB@EPFKGNAK@Resource?5temporarily?5unavailable@ 00565f50     LIBCMT:syserr.obj
 0002:0001df74       ??_C@_0BD@LOHELEP@No?5child?5processes?$AA@ 00565f74     LIBCMT:syserr.obj
 0002:0001df88       ??_C@_0BE@NFGDDCEF@Bad?5file?5descriptor?$AA@ 00565f88     LIBCMT:syserr.obj
 0002:0001df9c       ??_C@_0BC@HKPNECK@Exec?5format?5error?$AA@ 00565f9c     LIBCMT:syserr.obj
 0002:0001dfb0       ??_C@_0BC@MFFGCDFL@Arg?5list?5too?5long?$AA@ 00565fb0     LIBCMT:syserr.obj
 0002:0001dfc4       ??_C@_0BK@DPKMCKJ@No?5such?5device?5or?5address?$AA@ 00565fc4     LIBCMT:syserr.obj
 0002:0001dfe0       ??_C@_0BD@KKNFOBBD@Input?1output?5error?$AA@ 00565fe0     LIBCMT:syserr.obj
 0002:0001dff4       ??_C@_0BK@FJBOAFDK@Interrupted?5function?5call?$AA@ 00565ff4     LIBCMT:syserr.obj
 0002:0001e010       ??_C@_0BA@FKIAIBGA@No?5such?5process?$AA@ 00566010     LIBCMT:syserr.obj
 0002:0001e020       ??_C@_0BK@FMDHKPNF@No?5such?5file?5or?5directory?$AA@ 00566020     LIBCMT:syserr.obj
 0002:0001e03c       ??_C@_0BI@BJFCGOHL@Operation?5not?5permitted?$AA@ 0056603c     LIBCMT:syserr.obj
 0002:0001e054       ??_C@_08INEPGKHH@No?5error?$AA@ 00566054     LIBCMT:syserr.obj
 0002:0001e060       ??_C@_0BK@CFCOFLF@?5Complete?5Object?5Locator?8?$AA@ 00566060     LIBCMT:undname.obj
 0002:0001e07c       ??_C@_0BN@MECKDCOJ@?5Class?5Hierarchy?5Descriptor?8?$AA@ 0056607c     LIBCMT:undname.obj
 0002:0001e09c       ??_C@_0BD@LGICGFMM@?5Base?5Class?5Array?8?$AA@ 0056609c     LIBCMT:undname.obj
 0002:0001e0b0       ??_C@_0BM@LDKODKLH@?5Base?5Class?5Descriptor?5at?5?$CI?$AA@ 005660b0     LIBCMT:undname.obj
 0002:0001e0cc       ??_C@_0BC@DAFEJGAK@?5Type?5Descriptor?8?$AA@ 005660cc     LIBCMT:undname.obj
 0002:0001e0e0       ??_C@_0BM@PMGGMLDN@?$GAlocal?5static?5thread?5guard?8?$AA@ 005660e0     LIBCMT:undname.obj
 0002:0001e0fc       ??_C@_0CL@FGIJHLCE@?$GAmanaged?5vector?5copy?5constructor@ 005660fc     LIBCMT:undname.obj
 0002:0001e128       ??_C@_0CJ@GJELGAMM@?$GAvector?5vbase?5copy?5constructor?5i@ 00566128     LIBCMT:undname.obj
 0002:0001e154       ??_C@_0CD@CGAJBKEJ@?$GAvector?5copy?5constructor?5iterato@ 00566154     LIBCMT:undname.obj
 0002:0001e178       ??_C@_0CB@PDBIFEP@?$GAdynamic?5atexit?5destructor?5for?5?8@ 00566178     LIBCMT:undname.obj
 0002:0001e19c       ??_C@_0BL@CLIPGLGB@?$GAdynamic?5initializer?5for?5?8?$AA@ 0056619c     LIBCMT:undname.obj
 0002:0001e1b8       ??_C@_0CM@FCBBDIGB@?$GAeh?5vector?5vbase?5copy?5constructo@ 005661b8     LIBCMT:undname.obj
 0002:0001e1e4       ??_C@_0CG@HLDDJMAG@?$GAeh?5vector?5copy?5constructor?5iter@ 005661e4     LIBCMT:undname.obj
 0002:0001e20c       ??_C@_0CF@IMGKMJNO@?$GAmanaged?5vector?5destructor?5itera@ 0056620c     LIBCMT:undname.obj
 0002:0001e234       ??_C@_0CG@CFDHKGGD@?$GAmanaged?5vector?5constructor?5iter@ 00566234     LIBCMT:undname.obj
 0002:0001e25c       ??_C@_0BN@CKNJLHMB@?$GAplacement?5delete?$FL?$FN?5closure?8?$AA@ 0056625c     LIBCMT:undname.obj
 0002:0001e27c       ??_C@_0BL@CNOONJFP@?$GAplacement?5delete?5closure?8?$AA@ 0056627c     LIBCMT:undname.obj
 0002:0001e298       ??_C@_0P@HJKNJFNN@?$GAomni?5callsig?8?$AA@ 00566298     LIBCMT:undname.obj
 0002:0001e2a8       ??_C@_09LBNFPBCA@?5delete?$FL?$FN?$AA@ 005662a8     LIBCMT:undname.obj
 0002:0001e2b4       ??_C@_06FHBGPFGH@?5new?$FL?$FN?$AA@ 005662b4     LIBCMT:undname.obj
 0002:0001e2bc       ??_C@_0CE@IIHCMGGL@?$GAlocal?5vftable?5constructor?5closu@ 005662bc     LIBCMT:undname.obj
 0002:0001e2e0       ??_C@_0BA@KKLDJDLB@?$GAlocal?5vftable?8?$AA@ 005662e0     LIBCMT:undname.obj
 0002:0001e2f0       ??_C@_05KHLCHHI@?$GARTTI?$AA@ 005662f0     LIBCMT:undname.obj
 0002:0001e2f8       ??_C@_03KLGMFNMG@?$GAEH?$AA@ 005662f8     LIBCMT:undname.obj
 0002:0001e2fc       ??_C@_0BA@KBCDOMBN@?$GAudt?5returning?8?$AA@ 005662fc     LIBCMT:undname.obj
 0002:0001e30c       ??_C@_0BL@LLKPOHJI@?$GAcopy?5constructor?5closure?8?$AA@ 0056630c     LIBCMT:undname.obj
 0002:0001e328       ??_C@_0CH@OOJPLCPH@?$GAeh?5vector?5vbase?5constructor?5ite@ 00566328     LIBCMT:undname.obj
 0002:0001e350       ??_C@_0CA@GCEOPDGL@?$GAeh?5vector?5destructor?5iterator?8?$AA@ 00566350     LIBCMT:undname.obj
 0002:0001e370       ??_C@_0CB@JONCMFFK@?$GAeh?5vector?5constructor?5iterator?8@ 00566370     LIBCMT:undname.obj
 0002:0001e394       ??_C@_0BL@NILFHHPC@?$GAvirtual?5displacement?5map?8?$AA@ 00566394     LIBCMT:undname.obj
 0002:0001e3b0       ??_C@_0CE@IKBNEHA@?$GAvector?5vbase?5constructor?5iterat@ 005663b0     LIBCMT:undname.obj
 0002:0001e3d4       ??_C@_0BN@LFPFMEDL@?$GAvector?5destructor?5iterator?8?$AA@ 005663d4     LIBCMT:undname.obj
 0002:0001e3f4       ??_C@_0BO@PFGOCPJJ@?$GAvector?5constructor?5iterator?8?$AA@ 005663f4     LIBCMT:undname.obj
 0002:0001e414       ??_C@_0BN@IMDCHIKM@?$GAscalar?5deleting?5destructor?8?$AA@ 00566414     LIBCMT:undname.obj
 0002:0001e434       ??_C@_0BO@OBMKPJIG@?$GAdefault?5constructor?5closure?8?$AA@ 00566434     LIBCMT:undname.obj
 0002:0001e454       ??_C@_0BN@DEGPLNFK@?$GAvector?5deleting?5destructor?8?$AA@ 00566454     LIBCMT:undname.obj
 0002:0001e474       ??_C@_0BD@JDLKDPAB@?$GAvbase?5destructor?8?$AA@ 00566474     LIBCMT:undname.obj
 0002:0001e488       ??_C@_08OBABFOLI@?$GAstring?8?$AA@ 00566488     LIBCMT:undname.obj
 0002:0001e494       ??_C@_0BF@KDPPACIK@?$GAlocal?5static?5guard?8?$AA@ 00566494     LIBCMT:undname.obj
 0002:0001e4ac       ??_C@_08LLFFHHDJ@?$GAtypeof?8?$AA@ 005664ac     LIBCMT:undname.obj
 0002:0001e4b8       ??_C@_07FEEIOKP@?$GAvcall?8?$AA@ 005664b8     LIBCMT:undname.obj
 0002:0001e4c0       ??_C@_09BLBHBJP@?$GAvbtable?8?$AA@ 005664c0     LIBCMT:undname.obj
 0002:0001e4cc       ??_C@_09IFPLHPGF@?$GAvftable?8?$AA@ 005664cc     LIBCMT:undname.obj
 0002:0001e4d8       ??_C@_02MHEGNOJ@?$FO?$DN?$AA@ 005664d8     LIBCMT:undname.obj
 0002:0001e4dc       ??_C@_02DHLNPPGH@?$HM?$DN?$AA@ 005664dc     LIBCMT:undname.obj
 0002:0001e4e0       ??_C@_02FGJGFEAB@?$CG?$DN?$AA@ 005664e0     LIBCMT:undname.obj
 0002:0001e4e4       ??_C@_03CDNPDDLA@?$DM?$DM?$DN?$AA@ 005664e4     LIBCMT:undname.obj
 0002:0001e4e8       ??_C@_03IKFCCPFF@?$DO?$DO?$DN?$AA@ 005664e8     LIBCMT:undname.obj
 0002:0001e4ec       ??_C@_02FENAOKFI@?$CF?$DN?$AA@ 005664ec     LIBCMT:undname.obj
 0002:0001e4f0       ??_C@_02FJEHGPIO@?1?$DN?$AA@ 005664f0     LIBCMT:undname.obj
 0002:0001e4f4       ??_C@_02FKMDLLOA@?9?$DN?$AA@ 005664f4     LIBCMT:undname.obj
 0002:0001e4f8       ??_C@_02FOEOMHFC@?$CL?$DN?$AA@ 005664f8     LIBCMT:undname.obj
 0002:0001e4fc       ??_C@_02FPIMKNGF@?$CK?$DN?$AA@ 005664fc     LIBCMT:undname.obj
 0002:0001e500       ??_C@_02NONPIBCD@?$HM?$HM?$AA@ 00566500     LIBCMT:undname.obj
 0002:0001e504       ??_C@_02PPKAJPJL@?$CG?$CG?$AA@ 00566504     LIBCMT:undname.obj
 0002:0001e508       ??_C@_01DNKMNLPK@?$HM?$AA@ 00566508     LIBCMT:undname.obj
 0002:0001e50c       ??_C@_01JKBOJNNK@?$FO?$AA@ 0056650c     LIBCMT:undname.obj
 0002:0001e510       ??_C@_01PJKLJHI@?$HO?$AA@  00566510     LIBCMT:undname.obj
 0002:0001e514       ??_C@_02HCKGKOFO@?$CI?$CJ?$AA@ 00566514     LIBCMT:undname.obj
 0002:0001e518       ??_C@_02EEKDKGMJ@?$DO?$DN?$AA@ 00566518     LIBCMT:undname.obj
 0002:0001e51c       ??_C@_01PPODPGHN@?$DO?$AA@ 0056651c     LIBCMT:undname.obj
 0002:0001e520       ??_C@_02EHCHHCKH@?$DM?$DN?$AA@ 00566520     LIBCMT:undname.obj
 0002:0001e524       ??_C@_01MNNFJEPP@?$DM?$AA@ 00566524     LIBCMT:undname.obj
 0002:0001e528       ??_C@_01FGNFDNOH@?$CF?$AA@ 00566528     LIBCMT:undname.obj
 0002:0001e52c       ??_C@_03MNHNFDLC@?9?$DO?$CK?$AA@ 0056652c     LIBCMT:undname.obj
 0002:0001e530       ??_C@_01HNPIGOCE@?$CG?$AA@ 00566530     LIBCMT:undname.obj
 0002:0001e534       ??_C@_01MIFGBAGJ@?$CL?$AA@ 00566534     LIBCMT:undname.obj
 0002:0001e538       ??_C@_01JOAMLHOP@?9?$AA@   00566538     LIBCMT:undname.obj
 0002:0001e53c       ??_C@_02BAABKJLB@?9?9?$AA@ 0056653c     LIBCMT:undname.obj
 0002:0001e540       ??_C@_02ECNGHCIF@?$CL?$CL?$AA@ 00566540     LIBCMT:undname.obj
 0002:0001e544       ??_C@_02HBOOOICD@?9?$DO?$AA@ 00566544     LIBCMT:undname.obj
 0002:0001e548       ??_C@_08LHJFAFGD@operator?$AA@ 00566548     LIBCMT:undname.obj
 0002:0001e554       ??_C@_02GPECMEKF@?$FL?$FN?$AA@ 00566554     LIBCMT:undname.obj
 0002:0001e558       ??_C@_02FDNJECIE@?$CB?$DN?$AA@ 00566558     LIBCMT:undname.obj
 0002:0001e55c       ??_C@_02EGOFBIJA@?$DN?$DN?$AA@ 0056655c     LIBCMT:undname.obj
 0002:0001e560       ??_C@_01DCLJPIOD@?$CB?$AA@ 00566560     LIBCMT:undname.obj
 0002:0001e564       ??_C@_02FODMEDOG@?$DM?$DM?$AA@ 00566564     LIBCMT:undname.obj
 0002:0001e568       ??_C@_02GPIOPFAK@?$DO?$DO?$AA@ 00566568     LIBCMT:undname.obj
 0002:0001e56c       ??_C@_07FPCDHGMM@?5delete?$AA@ 0056656c     LIBCMT:undname.obj
 0002:0001e574       ??_C@_04NIHEBCM@?5new?$AA@ 00566574     LIBCMT:undname.obj
 0002:0001e57c       ??_C@_0M@GFIIJFMG@__unaligned?$AA@ 0056657c     LIBCMT:undname.obj
 0002:0001e588       ??_C@_0L@PILCLIHE@__restrict?$AA@ 00566588     LIBCMT:undname.obj
 0002:0001e594       ??_C@_07JOMMBBKO@__ptr64?$AA@ 00566594     LIBCMT:undname.obj
 0002:0001e59c       ??_C@_06GHPCKEAG@__eabi?$AA@ 0056659c     LIBCMT:undname.obj
 0002:0001e5a4       ??_C@_09HIJEGCPM@__clrcall?$AA@ 005665a4     LIBCMT:undname.obj
 0002:0001e5b0       ??_C@_0L@JMKHOMEK@__fastcall?$AA@ 005665b0     LIBCMT:undname.obj
 0002:0001e5bc       ??_C@_0L@NPHFGOKO@__thiscall?$AA@ 005665bc     LIBCMT:undname.obj
 0002:0001e5c8       ??_C@_09IFJBGAPI@__stdcall?$AA@ 005665c8     LIBCMT:undname.obj
 0002:0001e5d4       ??_C@_08GHMPAG@__pascal?$AA@ 005665d4     LIBCMT:undname.obj
 0002:0001e5e0       ??_C@_07KOLFKCDI@__cdecl?$AA@ 005665e0     LIBCMT:undname.obj
 0002:0001e5e8       ??_C@_08EHJDFFNH@__based?$CI?$AA@ 005665e8     LIBCMT:undname.obj
 0002:0001e77c       ??_7DNameNode@@6B@         0056677c     LIBCMT:undname.obj
 0002:0001e788       ??_7charNode@@6B@          00566788     LIBCMT:undname.obj
 0002:0001e794       ??_7pDNameNode@@6B@        00566794     LIBCMT:undname.obj
 0002:0001e7a0       ??_7DNameStatusNode@@6B@   005667a0     LIBCMT:undname.obj
 0002:0001e7ac       ??_7pairNode@@6B@          005667ac     LIBCMT:undname.obj
 0002:0001e7b8       ??_7pcharNode@@6B@         005667b8     LIBCMT:undname.obj
 0002:0001e7c4       ??_C@_04OKOHEJBO@?5?$DP?$DP?5?$AA@ 005667c4     LIBCMT:undname.obj
 0002:0001e7cc       ??_C@_06EEGAIFAK@?$HLflat?$HN?$AA@ 005667cc     LIBCMT:undname.obj
 0002:0001e7d4       ??_C@_05JIBOFOHK@?$HLfor?5?$AA@ 005667d4     LIBCMT:undname.obj
 0002:0001e7dc       ??_C@_0BN@IBLMMFAP@?$GAnon?9type?9template?9parameter?$AA@ 005667dc     LIBCMT:undname.obj
 0002:0001e7fc       ??_C@_09EBBEKKIH@unsigned?5?$AA@ 005667fc     LIBCMT:undname.obj
 0002:0001e808       ??_C@_05CJIMAING@long?5?$AA@ 00566808     LIBCMT:undname.obj
 0002:0001e810       ??_C@_04LAHKHJMA@int?5?$AA@ 00566810     LIBCMT:undname.obj
 0002:0001e818       ??_C@_06EHJMALKF@short?5?$AA@ 00566818     LIBCMT:undname.obj
 0002:0001e820       ??_C@_05CIHEBHNO@char?5?$AA@ 00566820     LIBCMT:undname.obj
 0002:0001e828       ??_C@_04GKJNKENE@void?$AA@ 00566828     LIBCMT:undname.obj
 0002:0001e830       ??_C@_0L@EGPHHEKN@?$DMellipsis?$DO?$AA@ 00566830     LIBCMT:undname.obj
 0002:0001e83c       ??_C@_03KHICJKCI@?4?4?4?$AA@ 0056683c     LIBCMT:undname.obj
 0002:0001e840       ??_C@_0M@ELJOJFFH@?0?$DMellipsis?$DO?$AA@ 00566840     LIBCMT:undname.obj
 0002:0001e84c       ??_C@_04EENFHACM@?0?4?4?4?$AA@ 0056684c     LIBCMT:undname.obj
 0002:0001e854       ??_C@_07HDJPLPEK@?5throw?$CI?$AA@ 00566854     LIBCMT:undname.obj
 0002:0001e85c       ??_C@_02GOGNNPBN@?$CJ?$FL?$AA@ 0056685c     LIBCMT:undname.obj
 0002:0001e860       ??_C@_02MDINNEEG@s?5?$AA@  00566860     LIBCMT:undname.obj
 0002:0001e864       ??_C@_01GEODFPGF@?8?$AA@   00566864     LIBCMT:undname.obj
 0002:0001e868       ??_C@_0BE@EODMJLIF@?$GAtemplate?9parameter?$AA@ 00566868     LIBCMT:undname.obj
 0002:0001e87c       ??_C@_04HIBGFPH@NULL?$AA@  0056687c     LIBCMT:undname.obj
 0002:0001e884       ??_C@_0O@GKABPPIF@cli?3?3pin_ptr?$DM?$AA@ 00566884     LIBCMT:undname.obj
 0002:0001e894       ??_C@_0M@EALIELKG@cli?3?3array?$DM?$AA@ 00566894     LIBCMT:undname.obj
 0002:0001e8a0       ??_C@_05BEFAKPML@void?5?$AA@ 005668a0     LIBCMT:undname.obj
 0002:0001e8a8       ??_C@_02OHHJMEON@?8?8?$AA@ 005668a8     LIBCMT:undname.obj
 0002:0001e8ac       ??_C@_0BG@JNJLAMPM@?$GAanonymous?5namespace?8?$AA@ 005668ac     LIBCMT:undname.obj
 0002:0001e8c4       ??_C@_01NLNLIGKH@?$GA?$AA@ 005668c4     LIBCMT:undname.obj
 0002:0001e8c8       ??_C@_0O@KHGCOMHP@generic?9type?9?$AA@ 005668c8     LIBCMT:undname.obj
 0002:0001e8d8       ??_C@_0BE@JAEOCHPE@template?9parameter?9?$AA@ 005668d8     LIBCMT:undname.obj
 0002:0001e8ec       ??_C@_02MOLJINC@?3?3?$AA@  005668ec     LIBCMT:undname.obj
 0002:0001e8f0       ??_C@_0P@GCIFDJCJ@?$GAunknown?5ecsu?8?$AA@ 005668f0     LIBCMT:undname.obj
 0002:0001e900       ??_C@_06MOJHIBMG@union?5?$AA@ 00566900     LIBCMT:undname.obj
 0002:0001e908       ??_C@_07DIBCDNGL@struct?5?$AA@ 00566908     LIBCMT:undname.obj
 0002:0001e910       ??_C@_06LJBABKPM@class?5?$AA@ 00566910     LIBCMT:undname.obj
 0002:0001e918       ??_C@_05LJGMCFOG@enum?5?$AA@ 00566918     LIBCMT:undname.obj
 0002:0001e920       ??_C@_08KOFANOFK@coclass?5?$AA@ 00566920     LIBCMT:undname.obj
 0002:0001e92c       ??_C@_0N@DLIEFKNA@cointerface?5?$AA@ 0056692c     LIBCMT:undname.obj
 0002:0001e93c       ??_C@_02KCKGHPCA@?$CJ?5?$AA@ 0056693c     LIBCMT:undname.obj
 0002:0001e940       ??_C@_0M@DHNBOJMP@extern?5?$CCC?$CC?5?$AA@ 00566940     LIBCMT:undname.obj
 0002:0001e94c       ??_C@_08KJLFOPNE@?$FLthunk?$FN?3?$AA@ 0056694c     LIBCMT:undname.obj
 0002:0001e958       ??_C@_08GPDDCMKI@public?3?5?$AA@ 00566958     LIBCMT:undname.obj
 0002:0001e964       ??_C@_0M@GAIFPFIP@protected?3?5?$AA@ 00566964     LIBCMT:undname.obj
 0002:0001e970       ??_C@_09LAPHOOG@private?3?5?$AA@ 00566970     LIBCMT:undname.obj
 0002:0001e97c       ??_C@_08NIEOINHE@virtual?5?$AA@ 0056697c     LIBCMT:undname.obj
 0002:0001e988       ??_C@_07PGOEDBHP@static?5?$AA@ 00566988     LIBCMT:undname.obj
 0002:0001e990       ??_C@_0DA@HGFJFBBE@?$GAtemplate?5static?5data?5member?5des@ 00566990     LIBCMT:undname.obj
 0002:0001e9c0       ??_C@_0DB@ILEFOCIJ@?$GAtemplate?5static?5data?5member?5con@ 005669c0     LIBCMT:undname.obj
 0002:0001e9f4       ??_C@_0CB@KJDOOODE@?$GAlocal?5static?5destructor?5helper?8@ 005669f4     LIBCMT:undname.obj
 0002:0001ea18       ??_C@_0L@HNGCOGAE@?$GAadjustor?$HL?$AA@ 00566a18     LIBCMT:undname.obj
 0002:0001ea24       ??_C@_0L@GHPFDFH@?$GAvtordisp?$HL?$AA@ 00566a24     LIBCMT:undname.obj
 0002:0001ea30       ??_C@_0N@CBHHHENL@?$GAvtordispex?$HL?$AA@ 00566a30     LIBCMT:undname.obj
 0002:0001ea40       ??_C@_02IGFCGPIL@?$HN?8?$AA@ 00566a40     LIBCMT:undname.obj
 0002:0001ea44       ??_C@_03OPGICMGF@?$HN?8?5?$AA@ 00566a44     LIBCMT:undname.obj
 0002:0001ea48       ??_C@_06LIJLOJAG@const?5?$AA@ 00566a48     LIBCMT:undname.obj
 0002:0001ea50       ??_C@_09GAIEOBLP@volatile?5?$AA@ 00566a50     LIBCMT:undname.obj
 0002:0001ea5c       ??_C@_04HEJADOOB@CV?3?5?$AA@ 00566a5c     LIBCMT:undname.obj
 0002:0001ea64       ??_C@_08PABEKFH@volatile?$AA@ 00566a64     LIBCMT:undname.obj
 0002:0001ea70       ??_C@_09EFNPDFFP@?5volatile?$AA@ 00566a70     LIBCMT:undname.obj
 0002:0001ea7c       ??_C@_05BNCCCJPP@const?$AA@ 00566a7c     LIBCMT:undname.obj
 0002:0001ea84       ??_C@_07EDHNAJHC@signed?5?$AA@ 00566a84     LIBCMT:undname.obj
 0002:0001ea8c       ??_C@_06BNJCAIGJ@double?$AA@ 00566a8c     LIBCMT:undname.obj
 0002:0001ea94       ??_C@_04DDKJGDCM@bool?$AA@ 00566a94     LIBCMT:undname.obj
 0002:0001ea9c       ??_C@_09EEKGDCPH@?$DMunknown?$DO?$AA@ 00566a9c     LIBCMT:undname.obj
 0002:0001eaa8       ??_C@_07CLGGIAMF@wchar_t?$AA@ 00566aa8     LIBCMT:undname.obj
 0002:0001eab0       ??_C@_07NFANNNEC@UNKNOWN?$AA@ 00566ab0     LIBCMT:undname.obj
 0002:0001eab8       ??_C@_08GAHOLHEO@__int128?$AA@ 00566ab8     LIBCMT:undname.obj
 0002:0001eac4       ??_C@_07OFLPPHGP@__int32?$AA@ 00566ac4     LIBCMT:undname.obj
 0002:0001eacc       ??_C@_07LFCOJCAC@__int64?$AA@ 00566acc     LIBCMT:undname.obj
 0002:0001ead4       ??_C@_07ICFHOGAF@__int16?$AA@ 00566ad4     LIBCMT:undname.obj
 0002:0001eadc       ??_C@_06GCICPBLB@__w64?5?$AA@ 00566adc     LIBCMT:undname.obj
 0002:0001eae4       ??_C@_06EBGKOKIG@__int8?$AA@ 00566ae4     LIBCMT:undname.obj
 0002:0001eaec       ??_C@_05KNFBNCOH@float?$AA@ 00566aec     LIBCMT:undname.obj
 0002:0001eaf4       ??_C@_04GOKPGOLB@long?$AA@ 00566af4     LIBCMT:undname.obj
 0002:0001eafc       ??_C@_03JBIPMCLC@int?$AA@  00566afc     LIBCMT:undname.obj
 0002:0001eb00       ??_C@_05BFKKPKCG@short?$AA@ 00566b00     LIBCMT:undname.obj
 0002:0001eb08       ??_C@_04ENMBGAPA@char?$AA@ 00566b08     LIBCMT:undname.obj
 0002:0001eb10       ??_C@_0P@GCOCNKDM@std?3?3nullptr_t?$AA@ 00566b10     LIBCMT:undname.obj
 0002:0001eb20       ___lookuptable_s           00566b20     LIBCMT:outputs.obj
 0002:0001eb7c       ??_C@_0BC@JEAENNKH@SystemFunction036?$AA@ 00566b7c     LIBCMT:rand_s.obj
 0002:0001eb90       ??_C@_1BK@GAEMIDIL@?$AAA?$AAD?$AAV?$AAA?$AAP?$AAI?$AA3?$AA2?$AA?4?$AAD?$AAL?$AAL?$AA?$AA@ 00566b90     LIBCMT:rand_s.obj
 0002:0001ebac       ??_C@_0L@KDOEJCKC@_nextafter?$AA@ 00566bac     LIBCMT:_fpexcept_.obj
 0002:0001ebb8       ??_C@_05JGDBENOH@_logb?$AA@ 00566bb8     LIBCMT:_fpexcept_.obj
 0002:0001ebc0       ??_C@_03ONILCKOB@_yn?$AA@  00566bc0     LIBCMT:_fpexcept_.obj
 0002:0001ebc4       ??_C@_03NAKIGLHK@_y1?$AA@  00566bc4     LIBCMT:_fpexcept_.obj
 0002:0001ebc8       ??_C@_03MJLDFKDL@_y0?$AA@  00566bc8     LIBCMT:_fpexcept_.obj
 0002:0001ebcc       ??_C@_05GKKHEGJL@frexp?$AA@ 00566bcc     LIBCMT:_fpexcept_.obj
 0002:0001ebd4       ??_C@_04KEPJIHGP@fmod?$AA@ 00566bd4     LIBCMT:_fpexcept_.obj
 0002:0001ebdc       ??_C@_06MEIMCGCF@_hypot?$AA@ 00566bdc     LIBCMT:_fpexcept_.obj
 0002:0001ebe4       ??_C@_05KBKMEMPO@_cabs?$AA@ 00566be4     LIBCMT:_fpexcept_.obj
 0002:0001ebec       ??_C@_05CEJMAHNP@ldexp?$AA@ 00566bec     LIBCMT:_fpexcept_.obj
 0002:0001ebf4       ??_C@_04ODHECPBC@fabs?$AA@ 00566bf4     LIBCMT:_fpexcept_.obj
 0002:0001ebfc       ??_C@_04EIAKFFMI@sqrt?$AA@ 00566bfc     LIBCMT:_fpexcept_.obj
 0002:0001ec04       ??_C@_05KNGEOGJB@atan2?$AA@ 00566c04     LIBCMT:_fpexcept_.obj
 0002:0001ec0c       ??_C@_04FJHINJAO@tanh?$AA@ 00566c0c     LIBCMT:_fpexcept_.obj
 0002:0001ec14       ??_C@_04HPJJNFIM@cosh?$AA@ 00566c14     LIBCMT:_fpexcept_.obj
 0002:0001ec1c       ??_C@_04COOMCNPB@sinh?$AA@ 00566c1c     LIBCMT:_fpexcept_.obj
 0002:0001ec24       ??_C@_0BI@DFKBFLJE@GetProcessWindowStation?$AA@ 00566c24     LIBCMT:crtmboxw.obj
 0002:0001ec3c       ??_C@_0BK@DEKFELLI@GetUserObjectInformationW?$AA@ 00566c3c     LIBCMT:crtmboxw.obj
 0002:0001ec58       ??_C@_0BD@HHGDFDBJ@GetLastActivePopup?$AA@ 00566c58     LIBCMT:crtmboxw.obj
 0002:0001ec6c       ??_C@_0BA@HNOPNCHB@GetActiveWindow?$AA@ 00566c6c     LIBCMT:crtmboxw.obj
 0002:0001ec7c       ??_C@_0M@DLDCCGNP@MessageBoxW?$AA@ 00566c7c     LIBCMT:crtmboxw.obj
 0002:0001ec88       ??_C@_1BG@GOEBHBDC@?$AAU?$AAS?$AAE?$AAR?$AA3?$AA2?$AA?4?$AAD?$AAL?$AAL?$AA?$AA@ 00566c88     LIBCMT:crtmboxw.obj
 0002:0001eca0       ??_C@_06IMKFLFPG@1?$CDQNAN?$AA@ 00566ca0     LIBCMT:_x10fout_.obj
 0002:0001eca8       ??_C@_05DNEBIAHO@1?$CDINF?$AA@ 00566ca8     LIBCMT:_x10fout_.obj
 0002:0001ecb0       ??_C@_05PHHOCPM@1?$CDIND?$AA@ 00566cb0     LIBCMT:_x10fout_.obj
 0002:0001ecb8       ??_C@_06PGGFOGJG@1?$CDSNAN?$AA@ 00566cb8     LIBCMT:_x10fout_.obj
 0002:0001ecc0       ??_C@_1BA@BALFACEM@?$AAC?$AAO?$AAN?$AAO?$AAU?$AAT?$AA$?$AA?$AA@ 00566cc0     LIBCMT:initcon.obj
 0002:000209bc       ??_R4CCharInfo@@6B@        005689bc     CharInfo.obj
 0002:000209d4       ??_R3CCharInfo@@8          005689d4     CharInfo.obj
 0002:000209e8       ??_R2CCharInfo@@8          005689e8     CharInfo.obj
 0002:000209f0       ??_R1A@?0A@EA@CCharInfo@@8 005689f0     CharInfo.obj
 0002:00020a14       ??_R4CCurse@@6B@           00568a14     Curse.obj
 0002:00020a2c       ??_R3CCurse@@8             00568a2c     Curse.obj
 0002:00020a40       ??_R2CCurse@@8             00568a40     Curse.obj
 0002:00020a48       ??_R1A@?0A@EA@CCurse@@8    00568a48     Curse.obj
 0002:00020a6c       ??_R4bad_alloc@std@@6B@    00568a6c     Guild.obj
 0002:00020a84       ??_R3bad_alloc@std@@8      00568a84     Guild.obj
 0002:00020a98       ??_R2bad_alloc@std@@8      00568a98     Guild.obj
 0002:00020aa4       ??_R1A@?0A@EA@bad_alloc@std@@8 00568aa4     Guild.obj
 0002:00020ac8       ??_R1A@?0A@EA@exception@std@@8 00568ac8     Guild.obj
 0002:00020aec       ??_R3exception@std@@8      00568aec     Guild.obj
 0002:00020b00       ??_R2exception@std@@8      00568b00     Guild.obj
 0002:00020b08       ??_R4CMagic@@6B@           00568b08     Magic.obj
 0002:00020b20       ??_R3CMagic@@8             00568b20     Magic.obj
 0002:00020b34       ??_R2CMagic@@8             00568b34     Magic.obj
 0002:00020b3c       ??_R1A@?0A@EA@CMagic@@8    00568b3c     Magic.obj
 0002:00020b60       ??_R4CSkill@@6B@           00568b60     Skill.obj
 0002:00020b78       ??_R3CSkill@@8             00568b78     Skill.obj
 0002:00020b8c       ??_R2CSkill@@8             00568b8c     Skill.obj
 0002:00020b94       ??_R1A@?0A@EA@CSkill@@8    00568b94     Skill.obj
 0002:00020bb8       ??_R4CBuildItem@@6B@       00568bb8     BuildItem.obj
 0002:00020bd0       ??_R3CBuildItem@@8         00568bd0     BuildItem.obj
 0002:00020be4       ??_R2CBuildItem@@8         00568be4     BuildItem.obj
 0002:00020bec       ??_R1A@?0A@EA@CBuildItem@@8 00568bec     BuildItem.obj
 0002:00020c10       ??_R4CItem@@6B@            00568c10     Item.obj
 0002:00020c28       ??_R3CItem@@8              00568c28     Item.obj
 0002:00020c3c       ??_R2CItem@@8              00568c3c     Item.obj
 0002:00020c44       ??_R1A@?0A@EA@CItem@@8     00568c44     Item.obj
 0002:00020c68       ??_R4CItemName@@6B@        00568c68     ItemName.obj
 0002:00020c80       ??_R3CItemName@@8          00568c80     ItemName.obj
 0002:00020c94       ??_R2CItemName@@8          00568c94     ItemName.obj
 0002:00020c9c       ??_R1A@?0A@EA@CItemName@@8 00568c9c     ItemName.obj
 0002:00020cc0       ??_R4DXC_ddraw@@6B@        00568cc0     DXC_ddraw.obj
 0002:00020cd8       ??_R3DXC_ddraw@@8          00568cd8     DXC_ddraw.obj
 0002:00020cec       ??_R2DXC_ddraw@@8          00568cec     DXC_ddraw.obj
 0002:00020cf4       ??_R1A@?0A@EA@DXC_ddraw@@8 00568cf4     DXC_ddraw.obj
 0002:00020d18       ??_R4DXC_dinput@@6B@       00568d18     DXC_dinput.obj
 0002:00020d30       ??_R3DXC_dinput@@8         00568d30     DXC_dinput.obj
 0002:00020d44       ??_R2DXC_dinput@@8         00568d44     DXC_dinput.obj
 0002:00020d4c       ??_R1A@?0A@EA@DXC_dinput@@8 00568d4c     DXC_dinput.obj
 0002:00020d70       ??_R4DXC_dsound@@6B@       00568d70     DXC_dsound.obj
 0002:00020d88       ??_R3DXC_dsound@@8         00568d88     DXC_dsound.obj
 0002:00020d9c       ??_R2DXC_dsound@@8         00568d9c     DXC_dsound.obj
 0002:00020da4       ??_R1A@?0A@EA@DXC_dsound@@8 00568da4     DXC_dsound.obj
 0002:00020dc8       ??_R4CEffect@@6B@          00568dc8     Effect.obj
 0002:00020de0       ??_R3CEffect@@8            00568de0     Effect.obj
 0002:00020df4       ??_R2CEffect@@8            00568df4     Effect.obj
 0002:00020dfc       ??_R1A@?0A@EA@CEffect@@8   00568dfc     Effect.obj
 0002:00020e20       ??_R4CSoundBuffer@@6B@     00568e20     SoundBuffer.obj
 0002:00020e38       ??_R3CSoundBuffer@@8       00568e38     SoundBuffer.obj
 0002:00020e4c       ??_R2CSoundBuffer@@8       00568e4c     SoundBuffer.obj
 0002:00020e54       ??_R1A@?0A@EA@CSoundBuffer@@8 00568e54     SoundBuffer.obj
 0002:00020e78       ??_R4CSprite@@6B@          00568e78     Sprite.obj
 0002:00020e90       ??_R3CSprite@@8            00568e90     Sprite.obj
 0002:00020ea4       ??_R2CSprite@@8            00568ea4     Sprite.obj
 0002:00020eac       ??_R1A@?0A@EA@CSprite@@8   00568eac     Sprite.obj
 0002:00020ed0       ??_R4CTileSpr@@6B@         00568ed0     TileSpr.obj
 0002:00020ee8       ??_R3CTileSpr@@8           00568ee8     TileSpr.obj
 0002:00020efc       ??_R2CTileSpr@@8           00568efc     TileSpr.obj
 0002:00020f04       ??_R1A@?0A@EA@CTileSpr@@8  00568f04     TileSpr.obj
 0002:00020f28       ??_R4YWSound@@6B@          00568f28     YWSound.obj
 0002:00020f40       ??_R3YWSound@@8            00568f40     YWSound.obj
 0002:00020f54       ??_R2YWSound@@8            00568f54     YWSound.obj
 0002:00020f5c       ??_R1A@?0A@EA@YWSound@@8   00568f5c     YWSound.obj
 0002:00020f80       ??_R4CMapData@@6B@         00568f80     MapData.obj
 0002:00020f98       ??_R3CMapData@@8           00568f98     MapData.obj
 0002:00020fac       ??_R2CMapData@@8           00568fac     MapData.obj
 0002:00020fb4       ??_R1A@?0A@EA@CMapData@@8  00568fb4     MapData.obj
 0002:00020fd8       ??_R4CTile@@6B@            00568fd8     Tile.obj
 0002:00020ff0       ??_R3CTile@@8              00568ff0     Tile.obj
 0002:00021004       ??_R2CTile@@8              00569004     Tile.obj
 0002:0002100c       ??_R1A@?0A@EA@CTile@@8     0056900c     Tile.obj
 0002:00021030       ??_R4CMouseInterface@@6B@  00569030     MouseInterface.obj
 0002:00021048       ??_R3CMouseInterface@@8    00569048     MouseInterface.obj
 0002:0002105c       ??_R2CMouseInterface@@8    0056905c     MouseInterface.obj
 0002:00021064       ??_R1A@?0A@EA@CMouseInterface@@8 00569064     MouseInterface.obj
 0002:00021088       ??_R4CMsg@@6B@             00569088     Msg.obj
 0002:000210a0       ??_R3CMsg@@8               005690a0     Msg.obj
 0002:000210b4       ??_R2CMsg@@8               005690b4     Msg.obj
 0002:000210bc       ??_R1A@?0A@EA@CMsg@@8      005690bc     Msg.obj
 0002:000210e0       ??_R4XSocket@@6B@          005690e0     XSocket.obj
 0002:000210f8       ??_R3XSocket@@8            005690f8     XSocket.obj
 0002:0002110c       ??_R2XSocket@@8            0056910c     XSocket.obj
 0002:00021114       ??_R1A@?0A@EA@XSocket@@8   00569114     XSocket.obj
 0002:00021138       ??_R4runtime_error@std@@6B@ 00569138     Game.obj
 0002:00021150       ??_R3runtime_error@std@@8  00569150     Game.obj
 0002:00021164       ??_R2runtime_error@std@@8  00569164     Game.obj
 0002:00021170       ??_R1A@?0A@EA@runtime_error@std@@8 00569170     Game.obj
 0002:00021194       ??_R4facet@locale@std@@6B@ 00569194     Game.obj
 0002:000211ac       ??_R3facet@locale@std@@8   005691ac     Game.obj
 0002:000211c0       ??_R2facet@locale@std@@8   005691c0     Game.obj
 0002:000211c8       ??_R1A@?0A@EA@facet@locale@std@@8 005691c8     Game.obj
 0002:000211ec       ??_R4ctype_base@std@@6B@   005691ec     Game.obj
 0002:00021204       ??_R3ctype_base@std@@8     00569204     Game.obj
 0002:00021218       ??_R2ctype_base@std@@8     00569218     Game.obj
 0002:00021224       ??_R1A@?0A@EA@ctype_base@std@@8 00569224     Game.obj
 0002:00021248       ??_R4ios_base@std@@6B@     00569248     Game.obj
 0002:00021260       ??_R3ios_base@std@@8       00569260     Game.obj
 0002:00021274       ??_R2ios_base@std@@8       00569274     Game.obj
 0002:00021280       ??_R1A@?0A@EA@ios_base@std@@8 00569280     Game.obj
 0002:000212a4       ??_R17?0A@EA@?$_Iosb@H@std@@8 005692a4     Game.obj
 0002:000212c8       ??_R3?$_Iosb@H@std@@8      005692c8     Game.obj
 0002:000212dc       ??_R2?$_Iosb@H@std@@8      005692dc     Game.obj
 0002:000212e4       ??_R1A@?0A@EA@?$_Iosb@H@std@@8 005692e4     Game.obj
 0002:00021308       ??_R4?$basic_ostream@DU?$char_traits@D@std@@@std@@6B@ 00569308     Game.obj
 0002:00021320       ??_R3?$basic_ostream@DU?$char_traits@D@std@@@std@@8 00569320     Game.obj
 0002:00021334       ??_R2?$basic_ostream@DU?$char_traits@D@std@@@std@@8 00569334     Game.obj
 0002:00021348       ??_R1A@?0A@EA@?$basic_ostream@DU?$char_traits@D@std@@@std@@8 00569348     Game.obj
 0002:0002136c       ??_R1A@A@3FA@?$basic_ios@DU?$char_traits@D@std@@@std@@8 0056936c     Game.obj
 0002:00021390       ??_R3?$basic_ios@DU?$char_traits@D@std@@@std@@8 00569390     Game.obj
 0002:000213a4       ??_R2?$basic_ios@DU?$char_traits@D@std@@@std@@8 005693a4     Game.obj
 0002:000213b4       ??_R1A@?0A@EA@?$basic_ios@DU?$char_traits@D@std@@@std@@8 005693b4     Game.obj
 0002:000213d8       ??_R1A@A@3EA@ios_base@std@@8 005693d8     Game.obj
 0002:000213fc       ??_R17A@3EA@?$_Iosb@H@std@@8 005693fc     Game.obj
 0002:00021420       ??_R4?$basic_istream@DU?$char_traits@D@std@@@std@@6B@ 00569420     Game.obj
 0002:00021438       ??_R3?$basic_istream@DU?$char_traits@D@std@@@std@@8 00569438     Game.obj
 0002:0002144c       ??_R2?$basic_istream@DU?$char_traits@D@std@@@std@@8 0056944c     Game.obj
 0002:00021460       ??_R1A@?0A@EA@?$basic_istream@DU?$char_traits@D@std@@@std@@8 00569460     Game.obj
 0002:00021484       ??_R4?$basic_iostream@DU?$char_traits@D@std@@@std@@6B@ 00569484     Game.obj
 0002:0002149c       ??_R3?$basic_iostream@DU?$char_traits@D@std@@@std@@8 0056949c     Game.obj
 0002:000214b0       ??_R2?$basic_iostream@DU?$char_traits@D@std@@@std@@8 005694b0     Game.obj
 0002:000214dc       ??_R1A@?0A@EA@?$basic_iostream@DU?$char_traits@D@std@@@std@@8 005694dc     Game.obj
 0002:00021500       ??_R1BA@?0A@EA@?$basic_ostream@DU?$char_traits@D@std@@@std@@8 00569500     Game.obj
 0002:00021524       ??_R4?$basic_ios@DU?$char_traits@D@std@@@std@@6B@ 00569524     Game.obj
 0002:0002153c       ??_R4?$_Impl_base0@X@tr1@std@@6B@ 0056953c     Game.obj
 0002:00021554       ??_R3?$_Impl_base0@X@tr1@std@@8 00569554     Game.obj
 0002:00021568       ??_R2?$_Impl_base0@X@tr1@std@@8 00569568     Game.obj
 0002:00021570       ??_R1A@?0A@EA@?$_Impl_base0@X@tr1@std@@8 00569570     Game.obj
 0002:00021594       ??_R4?$ctype@D@std@@6B@    00569594     Game.obj
 0002:000215ac       ??_R3?$ctype@D@std@@8      005695ac     Game.obj
 0002:000215c0       ??_R2?$ctype@D@std@@8      005695c0     Game.obj
 0002:000215d0       ??_R1A@?0A@EA@?$ctype@D@std@@8 005695d0     Game.obj
 0002:000215f4       ??_R4system_error@std@@6B@ 005695f4     Game.obj
 0002:0002160c       ??_R3system_error@std@@8   0056960c     Game.obj
 0002:00021620       ??_R2system_error@std@@8   00569620     Game.obj
 0002:00021630       ??_R1A@?0A@EA@system_error@std@@8 00569630     Game.obj
 0002:00021654       ??_R4failure@ios_base@std@@6B@ 00569654     Game.obj
 0002:0002166c       ??_R3failure@ios_base@std@@8 0056966c     Game.obj
 0002:00021680       ??_R2failure@ios_base@std@@8 00569680     Game.obj
 0002:00021694       ??_R1A@?0A@EA@failure@ios_base@std@@8 00569694     Game.obj
 0002:000216b8       ??_R4?$basic_streambuf@DU?$char_traits@D@std@@@std@@6B@ 005696b8     Game.obj
 0002:000216d0       ??_R3?$basic_streambuf@DU?$char_traits@D@std@@@std@@8 005696d0     Game.obj
 0002:000216e4       ??_R2?$basic_streambuf@DU?$char_traits@D@std@@@std@@8 005696e4     Game.obj
 0002:000216ec       ??_R1A@?0A@EA@?$basic_streambuf@DU?$char_traits@D@std@@@std@@8 005696ec     Game.obj
 0002:00021710       ??_R4?$basic_stringbuf@DU?$char_traits@D@std@@V?$allocator@D@2@@std@@6B@ 00569710     Game.obj
 0002:00021728       ??_R3?$basic_stringbuf@DU?$char_traits@D@std@@V?$allocator@D@2@@std@@8 00569728     Game.obj
 0002:0002173c       ??_R2?$basic_stringbuf@DU?$char_traits@D@std@@V?$allocator@D@2@@std@@8 0056973c     Game.obj
 0002:00021748       ??_R1A@?0A@EA@?$basic_stringbuf@DU?$char_traits@D@std@@V?$allocator@D@2@@std@@8 00569748     Game.obj
 0002:0002176c       ??_R4?$basic_stringstream@DU?$char_traits@D@std@@V?$allocator@D@2@@std@@6B@ 0056976c     Game.obj
 0002:00021784       ??_R3?$basic_stringstream@DU?$char_traits@D@std@@V?$allocator@D@2@@std@@8 00569784     Game.obj
 0002:00021798       ??_R2?$basic_stringstream@DU?$char_traits@D@std@@V?$allocator@D@2@@std@@8 00569798     Game.obj
 0002:000217cc       ??_R1A@?0A@EA@?$basic_stringstream@DU?$char_traits@D@std@@V?$allocator@D@2@@std@@8 005697cc     Game.obj
 0002:000217f0       ??_R4?$_Impl_no_alloc0@U?$_Callable_obj@V?$_Bind_fty@V?$mem_fun_t@XVCGame@@@std@@U_Notforced@tr1@2@V?$_Bind1@U?$_Callable_obj@V?$mem_fun_t@XVCGame@@@std@@$0A@@tr1@std@@PAVCGame@@@42@@tr1@std@@$0A@@tr1@std@@X@tr1@std@@6B@ 005697f0     Game.obj
 0002:00021808       ??_R3?$_Impl_no_alloc0@U?$_Callable_obj@V?$_Bind_fty@V?$mem_fun_t@XVCGame@@@std@@U_Notforced@tr1@2@V?$_Bind1@U?$_Callable_obj@V?$mem_fun_t@XVCGame@@@std@@$0A@@tr1@std@@PAVCGame@@@42@@tr1@std@@$0A@@tr1@std@@X@tr1@std@@8 00569808     Game.obj
 0002:0002181c       ??_R2?$_Impl_no_alloc0@U?$_Callable_obj@V?$_Bind_fty@V?$mem_fun_t@XVCGame@@@std@@U_Notforced@tr1@2@V?$_Bind1@U?$_Callable_obj@V?$mem_fun_t@XVCGame@@@std@@$0A@@tr1@std@@PAVCGame@@@42@@tr1@std@@$0A@@tr1@std@@X@tr1@std@@8 0056981c     Game.obj
 0002:00021828       ??_R1A@?0A@EA@?$_Impl_no_alloc0@U?$_Callable_obj@V?$_Bind_fty@V?$mem_fun_t@XVCGame@@@std@@U_Notforced@tr1@2@V?$_Bind1@U?$_Callable_obj@V?$mem_fun_t@XVCGame@@@std@@$0A@@tr1@std@@PAVCGame@@@42@@tr1@std@@$0A@@tr1@std@@X@tr1@std@@8 00569828     Game.obj
 0002:0002184c       ??_R4CGame@@6B@            0056984c     Game.obj
 0002:00021864       ??_R3CGame@@8              00569864     Game.obj
 0002:00021878       ??_R2CGame@@8              00569878     Game.obj
 0002:00021880       ??_R1A@?0A@EA@CGame@@8     00569880     Game.obj
 0002:000218a4       ??_R4CMisc@@6B@            005698a4     Misc.obj
 0002:000218bc       ??_R3CMisc@@8              005698bc     Misc.obj
 0002:000218d0       ??_R2CMisc@@8              005698d0     Misc.obj
 0002:000218d8       ??_R1A@?0A@EA@CMisc@@8     005698d8     Misc.obj
 0002:000218fc       ??_R4CStrTok@@6B@          005698fc     StrTok.obj
 0002:00021914       ??_R3CStrTok@@8            00569914     StrTok.obj
 0002:00021928       ??_R2CStrTok@@8            00569928     StrTok.obj
 0002:00021930       ??_R1A@?0A@EA@CStrTok@@8   00569930     StrTok.obj
 0002:00021954       ??_R4logic_error@std@@6B@  00569954     libcpmt:xthrow.obj
 0002:00021968       ??_R3logic_error@std@@8    00569968     libcpmt:xthrow.obj
 0002:00021978       ??_R2logic_error@std@@8    00569978     libcpmt:xthrow.obj
 0002:00021984       ??_R1A@?0A@EA@logic_error@std@@8 00569984     libcpmt:xthrow.obj
 0002:000219a0       ??_R4invalid_argument@std@@6B@ 005699a0     libcpmt:xthrow.obj
 0002:000219b4       ??_R3invalid_argument@std@@8 005699b4     libcpmt:xthrow.obj
 0002:000219c4       ??_R2invalid_argument@std@@8 005699c4     libcpmt:xthrow.obj
 0002:000219d4       ??_R1A@?0A@EA@invalid_argument@std@@8 005699d4     libcpmt:xthrow.obj
 0002:000219f0       ??_R4length_error@std@@6B@ 005699f0     libcpmt:xthrow.obj
 0002:00021a04       ??_R3length_error@std@@8   00569a04     libcpmt:xthrow.obj
 0002:00021a14       ??_R2length_error@std@@8   00569a14     libcpmt:xthrow.obj
 0002:00021a24       ??_R1A@?0A@EA@length_error@std@@8 00569a24     libcpmt:xthrow.obj
 0002:00021a40       ??_R4out_of_range@std@@6B@ 00569a40     libcpmt:xthrow.obj
 0002:00021a54       ??_R3out_of_range@std@@8   00569a54     libcpmt:xthrow.obj
 0002:00021a64       ??_R2out_of_range@std@@8   00569a64     libcpmt:xthrow.obj
 0002:00021a74       ??_R1A@?0A@EA@out_of_range@std@@8 00569a74     libcpmt:xthrow.obj
 0002:00021a90       ??_R4overflow_error@std@@6B@ 00569a90     libcpmt:xthrow.obj
 0002:00021aa4       ??_R3overflow_error@std@@8 00569aa4     libcpmt:xthrow.obj
 0002:00021ab4       ??_R2overflow_error@std@@8 00569ab4     libcpmt:xthrow.obj
 0002:00021ac4       ??_R1A@?0A@EA@overflow_error@std@@8 00569ac4     libcpmt:xthrow.obj
 0002:00021ae0       ??_R4_Locimp@locale@std@@6B@ 00569ae0     libcpmt:locale0.obj
 0002:00021af4       ??_R3_Locimp@locale@std@@8 00569af4     libcpmt:locale0.obj
 0002:00021b04       ??_R2_Locimp@locale@std@@8 00569b04     libcpmt:locale0.obj
 0002:00021b10       ??_R1A@?0A@EA@_Locimp@locale@std@@8 00569b10     libcpmt:locale0.obj
 0002:00021b2c       ??_R4error_category@std@@6B@ 00569b2c     libcpmt:syserror.obj
 0002:00021b40       ??_R3error_category@std@@8 00569b40     libcpmt:syserror.obj
 0002:00021b50       ??_R2error_category@std@@8 00569b50     libcpmt:syserror.obj
 0002:00021b58       ??_R1A@?0A@EA@error_category@std@@8 00569b58     libcpmt:syserror.obj
 0002:00021b74       ??_R4_Generic_error_category@std@@6B@ 00569b74     libcpmt:syserror.obj
 0002:00021b88       ??_R3_Generic_error_category@std@@8 00569b88     libcpmt:syserror.obj
 0002:00021b98       ??_R2_Generic_error_category@std@@8 00569b98     libcpmt:syserror.obj
 0002:00021ba4       ??_R1A@?0A@EA@_Generic_error_category@std@@8 00569ba4     libcpmt:syserror.obj
 0002:00021bc0       ??_R4_Iostream_error_category@std@@6B@ 00569bc0     libcpmt:syserror.obj
 0002:00021bd4       ??_R3_Iostream_error_category@std@@8 00569bd4     libcpmt:syserror.obj
 0002:00021be4       ??_R2_Iostream_error_category@std@@8 00569be4     libcpmt:syserror.obj
 0002:00021bf0       ??_R1A@?0A@EA@_Iostream_error_category@std@@8 00569bf0     libcpmt:syserror.obj
 0002:00021c0c       ??_R4_System_error_category@std@@6B@ 00569c0c     libcpmt:syserror.obj
 0002:00021c20       ??_R3_System_error_category@std@@8 00569c20     libcpmt:syserror.obj
 0002:00021c30       ??_R2_System_error_category@std@@8 00569c30     libcpmt:syserror.obj
 0002:00021c40       ??_R1A@?0A@EA@_System_error_category@std@@8 00569c40     libcpmt:syserror.obj
 0002:00021c5c       ??_R4bad_function_call@tr1@std@@6B@ 00569c5c     libcpmt:badfunction.obj
 0002:00021c70       ??_R3bad_function_call@tr1@std@@8 00569c70     libcpmt:badfunction.obj
 0002:00021c80       ??_R2bad_function_call@tr1@std@@8 00569c80     libcpmt:badfunction.obj
 0002:00021c8c       ??_R1A@?0A@EA@bad_function_call@tr1@std@@8 00569c8c     libcpmt:badfunction.obj
 0002:00021ca8       ??_R4type_info@@6B@        00569ca8     LIBCMT:typinfo.obj
 0002:00021cbc       ??_R3type_info@@8          00569cbc     LIBCMT:typinfo.obj
 0002:00021ccc       ??_R2type_info@@8          00569ccc     LIBCMT:typinfo.obj
 0002:00021cd4       ??_R1A@?0A@EA@type_info@@8 00569cd4     LIBCMT:typinfo.obj
 0002:00021cf0       ??_R4exception@std@@6B@    00569cf0     LIBCMT:stdexcpt.obj
 0002:00021d04       ??_R4bad_cast@std@@6B@     00569d04     LIBCMT:stdexcpt.obj
 0002:00021d18       ??_R3bad_cast@std@@8       00569d18     LIBCMT:stdexcpt.obj
 0002:00021d28       ??_R2bad_cast@std@@8       00569d28     LIBCMT:stdexcpt.obj
 0002:00021d34       ??_R1A@?0A@EA@bad_cast@std@@8 00569d34     LIBCMT:stdexcpt.obj
 0002:00021d50       ??_R4bad_typeid@std@@6B@   00569d50     LIBCMT:stdexcpt.obj
 0002:00021d64       ??_R3bad_typeid@std@@8     00569d64     LIBCMT:stdexcpt.obj
 0002:00021d74       ??_R2bad_typeid@std@@8     00569d74     LIBCMT:stdexcpt.obj
 0002:00021d80       ??_R1A@?0A@EA@bad_typeid@std@@8 00569d80     LIBCMT:stdexcpt.obj
 0002:00021d9c       ??_R4__non_rtti_object@std@@6B@ 00569d9c     LIBCMT:stdexcpt.obj
 0002:00021db0       ??_R3__non_rtti_object@std@@8 00569db0     LIBCMT:stdexcpt.obj
 0002:00021dc0       ??_R2__non_rtti_object@std@@8 00569dc0     LIBCMT:stdexcpt.obj
 0002:00021dd0       ??_R1A@?0A@EA@__non_rtti_object@std@@8 00569dd0     LIBCMT:stdexcpt.obj
 0002:00021dec       ??_R4bad_exception@std@@6B@ 00569dec     LIBCMT:frame.obj
 0002:00021e00       ??_R3bad_exception@std@@8  00569e00     LIBCMT:frame.obj
 0002:00021e10       ??_R2bad_exception@std@@8  00569e10     LIBCMT:frame.obj
 0002:00021e1c       ??_R1A@?0A@EA@bad_exception@std@@8 00569e1c     LIBCMT:frame.obj
 0002:00022094       ___rtc_iaa                 0056a094     LIBCMT:_initsect_.obj
 0002:00022198       ___rtc_izz                 0056a198     LIBCMT:_initsect_.obj
 0002:0002229c       ___rtc_taa                 0056a29c     LIBCMT:_initsect_.obj
 0002:000223a0       ___rtc_tzz                 0056a3a0     LIBCMT:_initsect_.obj
 0002:000224a8       __TI2?AVbad_alloc@std@@    0056a4a8     Guild.obj
 0002:000224bc       __CTA2?AVbad_alloc@std@@   0056a4bc     Guild.obj
 0002:000224cc       __CT??_R0?AVbad_alloc@std@@@8??0bad_alloc@std@@QAE@ABV01@@Z12 0056a4cc     Guild.obj
 0002:000224ec       __CT??_R0?AVexception@std@@@8??0exception@std@@QAE@ABV01@@Z12 0056a4ec     Guild.obj
 0002:00022874       __TI1H                     0056a874     DXC_ddraw.obj
 0002:000228fc       __CTA1H                    0056a8fc     DXC_ddraw.obj
 0002:00022904       __CT??_R0H@84              0056a904     DXC_ddraw.obj
 0002:00022fbc       __TI4?AVfailure@ios_base@std@@ 0056afbc     Game.obj
 0002:00022fd0       __CTA4?AVfailure@ios_base@std@@ 0056afd0     Game.obj
 0002:00022fe8       __CT??_R0?AVfailure@ios_base@std@@@8??0failure@ios_base@std@@QAE@ABV012@@Z20 0056afe8     Game.obj
 0002:00023008       __CT??_R0?AVsystem_error@std@@@8??0system_error@std@@QAE@ABV01@@Z20 0056b008     Game.obj
 0002:00023028       __CT??_R0?AVruntime_error@std@@@8??0runtime_error@std@@QAE@ABV01@@Z12 0056b028     Game.obj
 0002:000232e4       __TI2?AVruntime_error@std@@ 0056b2e4     Game.obj
 0002:0002334c       __CTA2?AVruntime_error@std@@ 0056b34c     Game.obj
 0002:00023568       __TI2?AVbad_cast@std@@     0056b568     Game.obj
 0002:000235ac       __CTA2?AVbad_cast@std@@    0056b5ac     Game.obj
 0002:000235bc       __CT??_R0?AVbad_cast@std@@@8??0bad_cast@std@@QAE@ABV01@@Z12 0056b5bc     Game.obj
 0002:00025d60       __TI3?AVinvalid_argument@std@@ 0056dd60     libcpmt:xthrow.obj
 0002:00025d70       __CTA3?AVinvalid_argument@std@@ 0056dd70     libcpmt:xthrow.obj
 0002:00025d80       __CT??_R0?AVinvalid_argument@std@@@8??0invalid_argument@std@@QAE@ABV01@@Z12 0056dd80     libcpmt:xthrow.obj
 0002:00025d9c       __CT??_R0?AVlogic_error@std@@@8??0logic_error@std@@QAE@ABV01@@Z12 0056dd9c     libcpmt:xthrow.obj
 0002:00025db8       __TI3?AVlength_error@std@@ 0056ddb8     libcpmt:xthrow.obj
 0002:00025dc8       __CTA3?AVlength_error@std@@ 0056ddc8     libcpmt:xthrow.obj
 0002:00025dd8       __CT??_R0?AVlength_error@std@@@8??0length_error@std@@QAE@ABV01@@Z12 0056ddd8     libcpmt:xthrow.obj
 0002:00025df4       __TI3?AVout_of_range@std@@ 0056ddf4     libcpmt:xthrow.obj
 0002:00025e04       __CTA3?AVout_of_range@std@@ 0056de04     libcpmt:xthrow.obj
 0002:00025e14       __CT??_R0?AVout_of_range@std@@@8??0out_of_range@std@@QAE@ABV01@@Z12 0056de14     libcpmt:xthrow.obj
 0002:00025e30       __TI3?AVoverflow_error@std@@ 0056de30     libcpmt:xthrow.obj
 0002:00025e40       __CTA3?AVoverflow_error@std@@ 0056de40     libcpmt:xthrow.obj
 0002:00025e50       __CT??_R0?AVoverflow_error@std@@@8??0overflow_error@std@@QAE@ABV01@@Z12 0056de50     libcpmt:xthrow.obj
 0002:00025f50       __TI2?AVbad_function_call@tr1@std@@ 0056df50     libcpmt:badfunction.obj
 0002:00025f60       __CTA2?AVbad_function_call@tr1@std@@ 0056df60     libcpmt:badfunction.obj
 0002:00025f6c       __CT??_R0?AVbad_function_call@tr1@std@@@8??0bad_function_call@tr1@std@@QAE@ABV012@@Z12 0056df6c     libcpmt:badfunction.obj
 0002:00026314       __TI2?AVbad_exception@std@@ 0056e314     LIBCMT:frame.obj
 0002:00026324       __CTA2?AVbad_exception@std@@ 0056e324     LIBCMT:frame.obj
 0002:00026330       __CT??_R0?AVbad_exception@std@@@8??0bad_exception@std@@QAE@ABV01@@Z12 0056e330     LIBCMT:frame.obj
 0003:00000000       ??_R0?AVCCharInfo@@@8      00570000     CharInfo.obj
 0003:0000001c       ??_R0?AVCCurse@@@8         0057001c     Curse.obj
 0003:00000550       ??_R0?AVbad_alloc@std@@@8  00570550     Guild.obj
 0003:00000574       ??_R0?AVexception@std@@@8  00570574     Guild.obj
 0003:00000598       ??_R0?AVCMagic@@@8         00570598     Magic.obj
 0003:000005b4       ??_R0?AVCSkill@@@8         005705b4     Skill.obj
 0003:000005d0       ??_R0?AVCBuildItem@@@8     005705d0     BuildItem.obj
 0003:00000b1c       ??_R0?AVCItem@@@8          00570b1c     Item.obj
 0003:00000b34       ??_R0?AVCItemName@@@8      00570b34     ItemName.obj
 0003:00001060       ??_R0?AVDXC_ddraw@@@8      00571060     DXC_ddraw.obj
 0003:0000107c       ??_R0H@8                   0057107c     DXC_ddraw.obj
 0003:0000108c       ??_R0?AVDXC_dinput@@@8     0057108c     DXC_dinput.obj
 0003:000010ac       ??_R0?AVDXC_dsound@@@8     005710ac     DXC_dsound.obj
 0003:000010cc       ??_R0?AVCEffect@@@8        005710cc     Effect.obj
 0003:000010e8       ??_R0?AVCSoundBuffer@@@8   005710e8     SoundBuffer.obj
 0003:00001108       ??_R0?AVCSprite@@@8        00571108     Sprite.obj
 0003:00001124       ??_R0?AVCTileSpr@@@8       00571124     TileSpr.obj
 0003:00001140       ??_R0?AVYWSound@@@8        00571140     YWSound.obj
 0003:00001670       ??_R0?AVCMapData@@@8       00571670     MapData.obj
 0003:0000168c       ??_R0?AVCTile@@@8          0057168c     Tile.obj
 0003:00001b0c       ??_R0?AVCMouseInterface@@@8 00571b0c     MouseInterface.obj
 0003:00001cf4       ?G_bIsCalcSocketConnected@@3HA 00571cf4     Wmain.obj
 0003:000024a4       ??_R0?AVCMsg@@@8           005724a4     Msg.obj
 0003:000024bc       ??_R0?AVXSocket@@@8        005724bc     XSocket.obj
 0003:0000269c       ?_cDrawingOrder@@3PADA     0057269c     Game.obj
 0003:000026a5       ?bFirstTalk@@3_NA          005726a5     Game.obj
 0003:0000274c       ?_cMantleDrawingOrder@@3PADA 0057274c     Game.obj
 0003:00002758       ?_cMantleDrawingOrderOnRun@@3PADA 00572758     Game.obj
 0003:00002764       ?chat_type@@3HA            00572764     Game.obj
 0003:00002768       ?_tmp_cTmpDirX@@3PADA      00572768     Game.obj
 0003:00002774       ?_tmp_cTmpDirY@@3PADA      00572774     Game.obj
 0003:00002780       ?_iAttackerHeight@@3PAHA   00572780     Game.obj
 0003:00002964       ?_tmp_iMCProb@@3PAHA       00572964     Game.obj
 0003:00002990       ?_tmp_iMLevelPenalty@@3PAHA 00572990     Game.obj
 0003:00002cfc       ??_R0?AVruntime_error@std@@@8 00572cfc     Game.obj
 0003:00002d24       ??_R0?AVfacet@locale@std@@@8 00572d24     Game.obj
 0003:00002d4c       ??_R0?AUctype_base@std@@@8 00572d4c     Game.obj
 0003:00002d70       ??_R0?AVios_base@std@@@8   00572d70     Game.obj
 0003:00002d90       ??_R0?AV?$_Iosb@H@std@@@8  00572d90     Game.obj
 0003:00002db4       ??_R0?AV?$basic_ostream@DU?$char_traits@D@std@@@std@@@8 00572db4     Game.obj
 0003:00002dfc       ??_R0?AV?$basic_ios@DU?$char_traits@D@std@@@std@@@8 00572dfc     Game.obj
 0003:00002e3c       ??_R0?AV?$basic_istream@DU?$char_traits@D@std@@@std@@@8 00572e3c     Game.obj
 0003:00002e84       ??_R0?AV?$basic_iostream@DU?$char_traits@D@std@@@std@@@8 00572e84     Game.obj
 0003:00002ecc       ??_R0?AV?$_Impl_base0@X@tr1@std@@@8 00572ecc     Game.obj
 0003:00002efc       ??_R0?AV?$ctype@D@std@@@8  00572efc     Game.obj
 0003:00002f20       ??_R0?AVsystem_error@std@@@8 00572f20     Game.obj
 0003:00002f48       ??_R0?AVfailure@ios_base@std@@@8 00572f48     Game.obj
 0003:00002f74       ??_R0?AV?$basic_streambuf@DU?$char_traits@D@std@@@std@@@8 00572f74     Game.obj
 0003:00002fc0       ??_R0?AV?$basic_stringbuf@DU?$char_traits@D@std@@V?$allocator@D@2@@std@@@8 00572fc0     Game.obj
 0003:00003020       ??_R0?AV?$basic_stringstream@DU?$char_traits@D@std@@V?$allocator@D@2@@std@@@8 00573020     Game.obj
 0003:00003080       ??_R0?AVbad_cast@std@@@8   00573080     Game.obj
 0003:000030a0       ??_R0?AV?$_Impl_no_alloc0@U?$_Callable_obj@V?$_Bind_fty@V?$mem_fun_t@XVCGame@@@std@@U_Notforced@tr1@2@V?$_Bind1@U?$_Callable_obj@V?$mem_fun_t@XVCGame@@@std@@$0A@@tr1@std@@PAVCGame@@@42@@tr1@std@@$0A@@tr1@std@@X@tr1@std@@@8 005730a0     Game.obj
 0003:000031b0       ??_R0?AV?$_Bind_fty@V?$mem_fun_t@XVCGame@@@std@@U_Notforced@tr1@2@V?$_Bind1@U?$_Callable_obj@V?$mem_fun_t@XVCGame@@@std@@$0A@@tr1@std@@PAVCGame@@@42@@tr1@std@@@8 005731b0     Game.obj
 0003:00003274       ??_R0?AVCGame@@@8          00573274     Game.obj
 0003:00003298       ??_R0?AVCMisc@@@8          00573298     Misc.obj
 0003:000032b0       ??_R0?AVCStrTok@@@8        005732b0     StrTok.obj
 0003:000032cc       ??_R0?AVlogic_error@std@@@8 005732cc     libcpmt:xthrow.obj
 0003:000032ec       ??_R0?AVinvalid_argument@std@@@8 005732ec     libcpmt:xthrow.obj
 0003:00003310       ??_R0?AVlength_error@std@@@8 00573310     libcpmt:xthrow.obj
 0003:00003330       ??_R0?AVout_of_range@std@@@8 00573330     libcpmt:xthrow.obj
 0003:00003350       ??_R0?AVoverflow_error@std@@@8 00573350     libcpmt:xthrow.obj
 0003:00003378       ??_R0?AV_Locimp@locale@std@@@8 00573378     libcpmt:locale0.obj
 0003:0000339c       ??_R0?AVerror_category@std@@@8 0057339c     libcpmt:syserror.obj
 0003:000033c0       ??_R0?AV_Generic_error_category@std@@@8 005733c0     libcpmt:syserror.obj
 0003:000033ec       ??_R0?AV_Iostream_error_category@std@@@8 005733ec     libcpmt:syserror.obj
 0003:00003418       ??_R0?AV_System_error_category@std@@@8 00573418     libcpmt:syserror.obj
 0003:00003460       ?_Sync@ios_base@std@@0_NA  00573460     libcpmt:ios.obj
 0003:00003464       ??_R0?AVbad_function_call@tr1@std@@@8 00573464     libcpmt:badfunction.obj
 0003:00003498       ?_PJP_CPP_Copyright@@3PADA 00573498     libcpmt:iosptrs.obj
 0003:00003500       ??_R0?AVtype_info@@@8      00573500     LIBCMT:typinfo.obj
 0003:00003520       ___security_cookie         00573520     LIBCMT:gs_cookie.obj
 0003:00003524       ___security_cookie_complement 00573524     LIBCMT:gs_cookie.obj
 0003:00003530       ??_R0?AVbad_typeid@std@@@8 00573530     LIBCMT:stdexcpt.obj
 0003:00003550       ??_R0?AV__non_rtti_object@std@@@8 00573550     LIBCMT:stdexcpt.obj
 0003:00003580       __fltused                  00573580     LIBCMT:_fpinit_.obj
 0003:00003584       __ldused                   00573584     LIBCMT:_fpinit_.obj
 0003:000035b0       ___app_type                005735b0     LIBCMT:wincrt0.obj
 0003:000035b4       __pctype                   005735b4     LIBCMT:ctype.obj
 0003:000035b8       __pwctype                  005735b8     LIBCMT:ctype.obj
 0003:000035c0       ??_R0?AVbad_exception@std@@@8 005735c0     LIBCMT:frame.obj
 0003:000035e0       ___abort_behavior          005735e0     LIBCMT:abort.obj
 0003:00003760       __iob                      00573760     LIBCMT:_file.obj
 0003:000039e0       ___nullstring              005739e0     LIBCMT:output.obj
 0003:000039e4       ___wnullstring             005739e4     LIBCMT:output.obj
 0003:000039e8       ___badioinfo               005739e8     LIBCMT:ioinit.obj
 0003:00003a30       __cfltcvt_tab              00573a30     LIBCMT:cmiscdat.obj
 0003:00003a58       ___flsindex                00573a58     LIBCMT:tidtable.obj
 0003:00003a5c       ___getvalueindex           00573a5c     LIBCMT:tidtable.obj
 0003:00003a60       __lookuptrailbytes         00573a60     LIBCMT:read.obj
 0003:00003b70       ___initialmbcinfo          00573b70     LIBCMT:mbctype.obj
 0003:00003d90       __mbctype                  00573d90     LIBCMT:mbctype.obj
 0003:00003e98       __mbcasemap                00573e98     LIBCMT:mbctype.obj
 0003:00003f98       ___ptmbcinfo               00573f98     LIBCMT:mbctype.obj
 0003:00004090       ___globallocalestatus      00574090     LIBCMT:glstatus.obj
 0003:00004094       ___clocalestr              00574094     LIBCMT:nlsdata2.obj
 0003:00004098       ___lc_time_c               00574098     LIBCMT:nlsdata2.obj
 0003:00004200       ___initiallocinfo          00574200     LIBCMT:nlsdata2.obj
 0003:000042d8       ___ptlocinfo               005742d8     LIBCMT:nlsdata2.obj
 0003:000042dc       ___initiallocalestructinfo 005742dc     LIBCMT:nlsdata2.obj
 0003:000042f0       ___mb_cur_max              005742f0     LIBCMT:nlsdata1.obj
 0003:000042f4       ___decimal_point           005742f4     LIBCMT:nlsdata1.obj
 0003:000042f8       ___decimal_point_length    005742f8     LIBCMT:nlsdata1.obj
 0003:00004300       ___lconv_static_decimal    00574300     LIBCMT:lconv.obj
 0003:00004304       ___lconv_static_W_decimal  00574304     LIBCMT:lconv.obj
 0003:00004308       ___lconv_c                 00574308     LIBCMT:lconv.obj
 0003:00004358       ___lconv                   00574358     LIBCMT:lconv.obj
 0003:00004480       __sys_errlist              00574480     LIBCMT:syserr.obj
 0003:00004530       __sys_nerr                 00574530     LIBCMT:syserr.obj
 0003:00004540       __NLG_Destination          00574540     LIBCMT:exsup.obj
 0003:00004550       __matherr_flag             00574550     LIBCMT:_matherr_.obj
 0003:00004640       __d_inf                    00574640     LIBCMT:_util_.obj
 0003:00004648       __d_ind                    00574648     LIBCMT:_util_.obj
 0003:00004650       __d_max                    00574650     LIBCMT:_util_.obj
 0003:00004658       __d_min                    00574658     LIBCMT:_util_.obj
 0003:00004660       __d_mzero                  00574660     LIBCMT:_util_.obj
 0003:000046b4       __confh                    005746b4     LIBCMT:initcon.obj
 0003:000046b8       __pow10pos                 005746b8     LIBCMT:_constpow_.obj
 0003:00004818       __pow10neg                 00574818     LIBCMT:_constpow_.obj
 0003:00007010       ?LB@ms@@2DA                00577010     DXC_dinput.obj
 0003:00007011       ?RB@ms@@2DA                00577011     DXC_dinput.obj
 0003:00007012       ?MB@ms@@2DA                00577012     DXC_dinput.obj
 0003:00007014       ?Y@ms@@2FA                 00577014     DXC_dinput.obj
 0003:00007018       ?Z@ms@@2FA                 00577018     DXC_dinput.obj
 0003:0000701c       ?X@ms@@2FA                 0057701c     DXC_dinput.obj
 0003:00007028       ?G_cCmdLineTokenA@@3PADA   00577028     Wmain.obj
 0003:000070a0       ?G_iAddTable31@@3PAY0BPO@HA 005770a0     Wmain.obj
 0003:00026ea0       ?G_lTransG25@@3PAY0EA@JA   00596ea0     Wmain.obj
 0003:0002aea0       ?G_cCmdLineTokenE@@3PADA   0059aea0     Wmain.obj
 0003:0002af18       ?G_pGame@@3PAVCGame@@A     0059af18     Wmain.obj
 0003:0002af1c       ?g_keyboardHook@@3PAUHHOOK__@@A 0059af1c     Wmain.obj
 0003:0002af20       ?G_lTransRB70@@3PAY0EA@JA  0059af20     Wmain.obj
 0003:0002ef20       ?G_lTransG70@@3PAY0EA@JA   0059ef20     Wmain.obj
 0003:00032f20       ?G_lTransRB25@@3PAY0EA@JA  005a2f20     Wmain.obj
 0003:00036f20       ?G_lTransRB100@@3PAY0EA@JA 005a6f20     Wmain.obj
 0003:0003af20       ?G_lTransG100@@3PAY0EA@JA  005aaf20     Wmain.obj
 0003:0003ef20       ?G_lTransRB2@@3PAY0EA@JA   005aef20     Wmain.obj
 0003:00042f20       ?szAppClass@@3PADA         005b2f20     Wmain.obj
 0003:00042f40       ?G_cSpriteAlphaDegree@@3DA 005b2f40     Wmain.obj
 0003:00042f48       ?G_cCmdLineTokenC@@3PADA   005b2f48     Wmain.obj
 0003:00042fc0       ?G_lTransRB50@@3PAY0EA@JA  005b2fc0     Wmain.obj
 0003:00046fc0       ?G_cCmdLineTokenB@@3PADA   005b6fc0     Wmain.obj
 0003:00047038       ?G_iAddTransTable63@@3PAY0EA@HA 005b7038     Wmain.obj
 0003:00066e38       ?G_cCmdLine@@3PADA         005d6e38     Wmain.obj
 0003:00066f38       ?G_cCmdLineTokenD@@3PADA   005d6f38     Wmain.obj
 0003:00066fb0       ?G_mmTimer@@3IA            005d6fb0     Wmain.obj
 0003:00066fb8       ?G_lTransG50@@3PAY0EA@JA   005d6fb8     Wmain.obj
 0003:0006afb8       ?G_iAddTransTable31@@3PAY0EA@HA 005dafb8     Wmain.obj
 0003:0008adb8       ?G_cCmdLineTokenA_Lowercase@@3PADA 005fadb8     Wmain.obj
 0003:0008ae30       ?G_iAddTable63@@3PAY0BPO@HA 005fae30     Wmain.obj
 0003:000aac30       ?G_lTransG2@@3PAY0EA@JA    0061ac30     Wmain.obj
 0003:000aec30       ?G_hWnd@@3PAUHWND__@@A     0061ec30     Wmain.obj
 0003:000aec34       ?G_hEditWnd@@3PAUHWND__@@A 0061ec34     Wmain.obj
 0003:000aec38       ?G_hInstance@@3PAUHINSTANCE__@@A 0061ec38     Wmain.obj
 0003:000aec3c       ?G_pCalcSocket@@3PAVXSocket@@A 0061ec3c     Wmain.obj
 0003:000aec40       ?G_dwCalcSocketTime@@3KA   0061ec40     Wmain.obj
 0003:000aec44       ?G_dwCalcSocketSendTime@@3KA 0061ec44     Wmain.obj
 0003:000d051c       ?predremove@CMsg@@2W4chatTypes@@A 0064051c     Msg.obj
 0003:000d0520       ?nmsgs@CMsg@@2KA           00640520     Msg.obj
 0003:000d0528       ?_tmp_dY@@3HA              00640528     Game.obj
 0003:000d052c       ?_tmp_iStatus@@3HA         0064052c     Game.obj
 0003:000d0530       ?cDynamicObjectData1@@3DA  00640530     Game.obj
 0003:000d0531       ?cFocusAction@@3DA         00640531     Game.obj
 0003:000d0532       ?_tmp_cAction@@3DA         00640532     Game.obj
 0003:000d0533       ?cDynamicObjectData3@@3DA  00640533     Game.obj
 0003:000d0534       ?sFocusY@@3FA              00640534     Game.obj
 0003:000d0536       ?cDynamicObjectData2@@3DA  00640536     Game.obj
 0003:000d0537       ?cFocusFrame@@3DA          00640537     Game.obj
 0003:000d0538       ?_tmp_sAppr2@@3FA          00640538     Game.obj
 0003:000d053a       ?cFocusDir@@3DA            0064053a     Game.obj
 0003:000d053b       ?_tmp_cDir@@3DA            0064053b     Game.obj
 0003:000d053c       ?sFocusAppr1@@3FA          0064053c     Game.obj
 0003:000d053e       ?cDynamicObjectData4@@3DA  0064053e     Game.obj
 0003:000d053f       ?_tmp_cFrame@@3DA          0064053f     Game.obj
 0003:000d0540       ?sFocusAppr4@@3FA          00640540     Game.obj
 0003:000d0544       ?iFocusMaxHP@@3HA          00640544     Game.obj
 0003:000d0548       ?_tmp_dX@@3HA              00640548     Game.obj
 0003:000d054c       ?iFocusHP@@3HA             0064054c     Game.obj
 0003:000d0550       ?_cDebug@@3PADA            00640550     Game.obj
 0003:000d064c       ?_tmp_iEffectFrame@@3HA    0064064c     Game.obj
 0003:000d0650       ?_tmp_sOwnerType@@3FA      00640650     Game.obj
 0003:000d0654       ?sFocusOwnerType@@3FA      00640654     Game.obj
 0003:000d0658       ?_tmp_sAppr4@@3FA          00640658     Game.obj
 0003:000d065c       ?sDepth@@3FA               0064065c     Game.obj
 0003:000d0660       ?sFocus_dY@@3FA            00640660     Game.obj
 0003:000d0664       ?g_itemConfigList@@3PAPAVCItem@@A 00640664     Game.obj
 0003:000d0668       ?_tmp_iApprColor1@@3HA     00640668     Game.obj
 0003:000d066c       ?_tmp_iMaxHP@@3HA          0064066c     Game.obj
 0003:000d0670       ?_tmp_wObjectID@@3GA       00640670     Game.obj
 0003:000d0674       ?sFocusAppr3@@3FA          00640674     Game.obj
 0003:000d0678       ?wFocusObjectID@@3GA       00640678     Game.obj
 0003:000d067c       ?sFocusAppr2@@3FA          0064067c     Game.obj
 0003:000d0680       ?_tmp_sAppr1@@3FA          00640680     Game.obj
 0003:000d0684       ?iFocuiStatus@@3HA         00640684     Game.obj
 0003:000d0688       ?_tmp_cName@@3PADA         00640688     Game.obj
 0003:000d0694       ?iFocusApprColor2@@3HA     00640694     Game.obj
 0003:000d0698       ?cFocusName@@3PADA         00640698     Game.obj
 0003:000d06a4       ?_tmp_dy@@3HA              006406a4     Game.obj
 0003:000d06a8       ?_tmp_dx@@3HA              006406a8     Game.obj
 0003:000d06ac       ?_tmp_iApprColor2@@3HA     006406ac     Game.obj
 0003:000d06b0       ?chatxs@@3PAHA             006406b0     Game.obj
 0003:000d0778       ?_tmp_sAppr3@@3FA          00640778     Game.obj
 0003:000d077c       ?_tmp_iHP@@3HA             0064077c     Game.obj
 0003:000d0780       ?_tmp_iChatIndex@@3HA      00640780     Game.obj
 0003:000d0784       ?iFocusApprColor1@@3HA     00640784     Game.obj
 0003:000d0788       ?_tmp_iEffectType@@3HA     00640788     Game.obj
 0003:000d078c       ?sFocus_dX@@3FA            0064078c     Game.obj
 0003:000d0790       ?sFocusX@@3FA              00640790     Game.obj
 0003:000d0794       ?g_socketMap@@3V?$unordered_map@EPBDV?$hash@E@std@@U?$equal_to@E@2@V?$allocator@U?$pair@$$CBEPBD@std@@@2@@tr1@std@@A 00640794     Game.obj
 0003:000d0848       ?storedDeviate@?1??randn_notrig@@YANNN@Z@4NA 00640848     Game.obj
 0003:000d0851       ?deviateAvailable@?1??randn_notrig@@YANNN@Z@4_NA 00640851     Game.obj
 0003:000d4228       ?_Psave@?$_Facetptr@V?$ctype@D@std@@@std@@2PBVfacet@locale@2@B 00644228     Game.obj
 0003:000d46c4       ?_Clocptr@_Locimp@locale@std@@0PAV123@A 006446c4     libcpmt:locale0.obj
 0003:000d46c8       ?_Id_cnt@id@locale@std@@0HA 006446c8     libcpmt:locale0.obj
 0003:000d46cc       ?id@?$ctype@D@std@@2V0locale@2@A 006446cc     libcpmt:locale0.obj
 0003:000d46d0       ?id@?$codecvt@GDH@std@@2V0locale@2@A 006446d0     libcpmt:locale0.obj
 0003:000d46d4       ?id@?$ctype@_W@std@@2V0locale@2@A 006446d4     libcpmt:locale0.obj
 0003:000d46d8       ?id@?$codecvt@_WDH@std@@2V0locale@2@A 006446d8     libcpmt:locale0.obj
 0003:000d46e0       ?id@?$ctype@G@std@@2V0locale@2@A 006446e0     libcpmt:locale0.obj
 0003:000d46e8       ?_Index@ios_base@std@@0HA  006446e8     libcpmt:ios.obj
 0003:000d4720       ?_Ptr_cin@std@@3PAV?$basic_istream@DU?$char_traits@D@std@@@1@A 00644720     libcpmt:iosptrs.obj
 0003:000d4724       ?_Ptr_cout@std@@3PAV?$basic_ostream@DU?$char_traits@D@std@@@1@A 00644724     libcpmt:iosptrs.obj
 0003:000d4728       ?_Ptr_cerr@std@@3PAV?$basic_ostream@DU?$char_traits@D@std@@@1@A 00644728     libcpmt:iosptrs.obj
 0003:000d472c       ?_Ptr_clog@std@@3PAV?$basic_ostream@DU?$char_traits@D@std@@@1@A 0064472c     libcpmt:iosptrs.obj
 0003:000d4730       ?_Ptr_wcin@std@@3PAV?$basic_istream@_WU?$char_traits@_W@std@@@1@A 00644730     libcpmt:iosptrs.obj
 0003:000d4734       ?_Ptr_wcout@std@@3PAV?$basic_ostream@_WU?$char_traits@_W@std@@@1@A 00644734     libcpmt:iosptrs.obj
 0003:000d4738       ?_Ptr_wcerr@std@@3PAV?$basic_ostream@_WU?$char_traits@_W@std@@@1@A 00644738     libcpmt:iosptrs.obj
 0003:000d473c       ?_Ptr_wclog@std@@3PAV?$basic_ostream@_WU?$char_traits@_W@std@@@1@A 0064473c     libcpmt:iosptrs.obj
 0003:000d477c       ___fastflag                0064477c     LIBCMT:_fpinit_.obj
 0003:000d4780       __aenvptr                  00644780     LIBCMT:wincrt0.obj
 0003:000d4784       __wenvptr                  00644784     LIBCMT:wincrt0.obj
 0003:000d4788       ___error_mode              00644788     LIBCMT:wincrt0.obj
 0003:000d478c       __maxwait                  0064478c     LIBCMT:crtheap.obj
 0003:000d4790       ___locale_changed          00644790     LIBCMT:setlocal.obj
 0003:000d479c       ___pInvalidArgHandler      0064479c     LIBCMT:invarg.obj
 0003:000d47a0       __cflush                   006447a0     LIBCMT:_file.obj
 0003:000d4acc       ?_pnhHeap@@3P6AHI@ZA       00644acc     LIBCMT:handler.obj
 0003:000d4ad0       _gpFlsAlloc                00644ad0     LIBCMT:tidtable.obj
 0003:000d4ad4       _gpFlsGetValue             00644ad4     LIBCMT:tidtable.obj
 0003:000d4ad8       _gpFlsSetValue             00644ad8     LIBCMT:tidtable.obj
 0003:000d4adc       _gpFlsFree                 00644adc     LIBCMT:tidtable.obj
 0003:000d4ae0       ?__pInconsistency@@3P6AXXZA 00644ae0     LIBCMT:hooks.obj
 0003:000d4ae4       __umaskval                 00644ae4     LIBCMT:crt0dat.obj
 0003:000d4ae8       ___argc                    00644ae8     LIBCMT:crt0dat.obj
 0003:000d4aec       ___argv                    00644aec     LIBCMT:crt0dat.obj
 0003:000d4af0       ___wargv                   00644af0     LIBCMT:crt0dat.obj
 0003:000d4af4       __environ                  00644af4     LIBCMT:crt0dat.obj
 0003:000d4af8       ___initenv                 00644af8     LIBCMT:crt0dat.obj
 0003:000d4afc       __wenviron                 00644afc     LIBCMT:crt0dat.obj
 0003:000d4b00       ___winitenv                00644b00     LIBCMT:crt0dat.obj
 0003:000d4b04       __pgmptr                   00644b04     LIBCMT:crt0dat.obj
 0003:000d4b08       __wpgmptr                  00644b08     LIBCMT:crt0dat.obj
 0003:000d4b0c       __exitflag                 00644b0c     LIBCMT:crt0dat.obj
 0003:000d4b10       __C_Termination_Done       00644b10     LIBCMT:crt0dat.obj
 0003:000d4b14       __C_Exit_Done              00644b14     LIBCMT:crt0dat.obj
 0003:000d4b20       ___mbulinfo                00644b20     LIBCMT:mbctype.obj
 0003:000d4b2c       ___mbcodepage              00644b2c     LIBCMT:mbctype.obj
 0003:000d4b30       ___ismbcodepage            00644b30     LIBCMT:mbctype.obj
 0003:000d4b34       ___mblcid                  00644b34     LIBCMT:mbctype.obj
 0003:000d4b38       __stdbuf                   00644b38     LIBCMT:_sftbuf.obj
 0003:000d4b40       __crtheap                  00644b40     LIBCMT:heapinit.obj
 0003:000d5170       ___pPurecall               00645170     LIBCMT:inithelp.obj
 0003:000d5280       ___lconv_static_null       00645280     LIBCMT:lconv.obj
 0003:000d5284       ___lconv_static_W_null     00645284     LIBCMT:lconv.obj
 0003:000d53d8       __newmode                  006453d8     LIBCMT:_newmode.obj
 0003:000d5404       ?pArgList@UnDecorator@@0PAVReplicator@@A 00645404     LIBCMT:undname.obj
 0003:000d5408       ?pZNameList@UnDecorator@@0PAVReplicator@@A 00645408     LIBCMT:undname.obj
 0003:000d540c       ?pTemplateArgList@UnDecorator@@0PAVReplicator@@A 0064540c     LIBCMT:undname.obj
 0003:000d5410       ?gName@UnDecorator@@0PBDB  00645410     LIBCMT:undname.obj
 0003:000d5414       ?name@UnDecorator@@0PBDB   00645414     LIBCMT:undname.obj
 0003:000d5418       ?outputString@UnDecorator@@0PADA 00645418     LIBCMT:undname.obj
 0003:000d541c       ?maxStringLength@UnDecorator@@0HA 0064541c     LIBCMT:undname.obj
 0003:000d5420       ?disableFlags@UnDecorator@@0KA 00645420     LIBCMT:undname.obj
 0003:000d5424       ?m_pGetParameter@UnDecorator@@0P6APADJ@ZA 00645424     LIBCMT:undname.obj
 0003:000d5428       ?fExplicitTemplateParams@UnDecorator@@0_NA 00645428     LIBCMT:undname.obj
 0003:000d5429       ?fGetTemplateArgumentList@UnDecorator@@0_NA 00645429     LIBCMT:undname.obj
 0003:000d542c       ?nodes@?1??make@DNameStatusNode@@SAPAV2@W4DNameStatus@@@Z@4PAV2@A 0064542c     LIBCMT:undname.obj
 0003:000d545c       ??_B?1??make@DNameStatusNode@@SAPAV1@W4DNameStatus@@@Z@51 0064545c     LIBCMT:undname.obj
 0003:000d5464       __commode                  00645464     LIBCMT:ncommode.obj
 0003:000d5468       __outputformat             00645468     LIBCMT:outputformat.obj
 0003:000d5484       __fmode                    00645484     LIBCMT:txtmode.obj
 0003:000d5488       __debugger_hook_dummy      00645488     <common>
 0003:000d5494       ___use_sse2_mathfcns       00645494     <common>
 0003:000d54a0       __pmatherr                 006454a0     <common>
 0003:000d54ac       ___env_initialized         006454ac     <common>
 0003:000d54bc       ___onexitend               006454bc     <common>
 0003:000d54c0       ___onexitbegin             006454c0     <common>
 0003:000d54c4       ___mbctype_initialized     006454c4     <common>
 0003:000d54c8       ___dyn_tls_init_callback   006454c8     <common>
 0003:000d54cc       __nhandle                  006454cc     <common>
 0003:000d5520       ___pioinfo                 00645520     <common>
 0003:000d5620       ___piob                    00645620     <common>
 0003:000d5960       __bufin                    00645960     <common>
 0003:000d6960       __nstream                  00646960     <common>
 0003:000d6964       ___sse2_available          00646964     <common>
 0003:000d6970       ___setlc_active            00646970     <common>
 0003:000d6980       ___unguarded_readlc_active 00646980     <common>
 0003:000d6984       __acmdln                   00646984     <common>
 0003:000d6994       __NoHeapEnableTerminationOnCorruption 00646994     <common>
 0004:00000000       __IMPORT_DESCRIPTOR_NETAPI32 00647000     Netapi32:NETAPI32.dll
 0004:00000014       __IMPORT_DESCRIPTOR_KERNEL32 00647014     kernel32:KERNEL32.dll
 0004:00000028       __IMPORT_DESCRIPTOR_USER32 00647028     user32:USER32.dll
 0004:0000003c       __IMPORT_DESCRIPTOR_GDI32  0064703c     gdi32:GDI32.dll
 0004:00000050       __IMPORT_DESCRIPTOR_ADVAPI32 00647050     advapi32:ADVAPI32.dll
 0004:00000064       __IMPORT_DESCRIPTOR_SHELL32 00647064     shell32:SHELL32.dll
 0004:00000078       __IMPORT_DESCRIPTOR_DDRAW  00647078     DDRAW:DDRAW.dll
 0004:0000008c       __IMPORT_DESCRIPTOR_DINPUT 0064708c     DINPUT:DINPUT.dll
 0004:000000a0       __IMPORT_DESCRIPTOR_DSOUND 006470a0     DSOUND:DSOUND.dll
 0004:000000b4       __IMPORT_DESCRIPTOR_search 006470b4     search:search.dll
 0004:000000c8       __IMPORT_DESCRIPTOR_WINMM  006470c8     WINMM:WINMM.dll
 0004:000000dc       __IMPORT_DESCRIPTOR_WSOCK32 006470dc     WSOCK32:WSOCK32.dll
 0004:000000f0       __NULL_IMPORT_DESCRIPTOR   006470f0     Netapi32:NETAPI32.dll
 0004:00000678       __imp__RegQueryValueA@16   00647678     advapi32:ADVAPI32.dll
 0004:0000067c       __imp__RegOpenKeyExA@20    0064767c     advapi32:ADVAPI32.dll
 0004:00000680       __imp__RegQueryValueExA@24 00647680     advapi32:ADVAPI32.dll
 0004:00000684       __imp__RegCreateKeyExA@36  00647684     advapi32:ADVAPI32.dll
 0004:00000688       __imp__RegSetValueExA@24   00647688     advapi32:ADVAPI32.dll
 0004:0000068c       __imp__RegCloseKey@4       0064768c     advapi32:ADVAPI32.dll
 0004:00000690       \177ADVAPI32_NULL_THUNK_DATA 00647690     advapi32:ADVAPI32.dll
 0004:000006c0       __imp__DirectDrawCreateEx@16 006476c0     DDRAW:DDRAW.dll
 0004:000006c4       \177DDRAW_NULL_THUNK_DATA  006476c4     DDRAW:DDRAW.dll
 0004:000006f0       __imp__DirectInputCreateA@16 006476f0     DINPUT:DINPUT.dll
 0004:000006f4       \177DINPUT_NULL_THUNK_DATA 006476f4     DINPUT:DINPUT.dll
 0004:00000720       __imp__DirectSoundCreate@12 00647720     DSOUND:DSOUND.dll
 0004:00000724       \177DSOUND_NULL_THUNK_DATA 00647724     DSOUND:DSOUND.dll
 0004:00000750       __imp__GetTextExtentPoint32A@16 00647750     gdi32:GDI32.dll
 0004:00000754       __imp__SetDIBitsToDevice@48 00647754     gdi32:GDI32.dll
 0004:00000758       __imp__GetDeviceCaps@8     00647758     gdi32:GDI32.dll
 0004:0000075c       __imp__CreateCompatibleBitmap@12 0064775c     gdi32:GDI32.dll
 0004:00000760       __imp__CreateCompatibleDC@4 00647760     gdi32:GDI32.dll
 0004:00000764       __imp__BitBlt@36           00647764     gdi32:GDI32.dll
 0004:00000768       __imp__GetDIBits@28        00647768     gdi32:GDI32.dll
 0004:0000076c       __imp__DeleteDC@4          0064776c     gdi32:GDI32.dll
 0004:00000770       __imp__SelectObject@8      00647770     gdi32:GDI32.dll
 0004:00000774       __imp__SetBkMode@8         00647774     gdi32:GDI32.dll
 0004:00000778       __imp__SetBkColor@8        00647778     gdi32:GDI32.dll
 0004:0000077c       __imp__SetTextColor@8      0064777c     gdi32:GDI32.dll
 0004:00000780       __imp__TextOutA@20         00647780     gdi32:GDI32.dll
 0004:00000784       __imp__SetPixel@16         00647784     gdi32:GDI32.dll
 0004:00000788       __imp__CreateFontA@56      00647788     gdi32:GDI32.dll
 0004:0000078c       __imp__DeleteObject@4      0064778c     gdi32:GDI32.dll
 0004:00000790       __imp__GetPixel@12         00647790     gdi32:GDI32.dll
 0004:00000794       \177GDI32_NULL_THUNK_DATA  00647794     gdi32:GDI32.dll
 0004:000007cc       __imp__GetLocalTime@4      006477cc     kernel32:KERNEL32.dll
 0004:000007d0       __imp__Sleep@4             006477d0     kernel32:KERNEL32.dll
 0004:000007d4       __imp__SetEndOfFile@4      006477d4     kernel32:KERNEL32.dll
 0004:000007d8       __imp__WriteConsoleW@20    006477d8     kernel32:KERNEL32.dll
 0004:000007dc       __imp__LoadLibraryW@4      006477dc     kernel32:KERNEL32.dll
 0004:000007e0       __imp__FlushFileBuffers@4  006477e0     kernel32:KERNEL32.dll
 0004:000007e4       __imp__SetStdHandle@8      006477e4     kernel32:KERNEL32.dll
 0004:000007e8       __imp__SetConsoleCtrlHandler@8 006477e8     kernel32:KERNEL32.dll
 0004:000007ec       __imp__IsValidLocale@8     006477ec     kernel32:KERNEL32.dll
 0004:000007f0       __imp__EnumSystemLocalesA@8 006477f0     kernel32:KERNEL32.dll
 0004:000007f4       __imp__GetLocaleInfoA@16   006477f4     kernel32:KERNEL32.dll
 0004:000007f8       __imp__GetUserDefaultLCID@0 006477f8     kernel32:KERNEL32.dll
 0004:000007fc       __imp__FatalAppExitA@8     006477fc     kernel32:KERNEL32.dll
 0004:00000800       __imp__HeapReAlloc@16      00647800     kernel32:KERNEL32.dll
 0004:00000804       __imp__GetStringTypeW@16   00647804     kernel32:KERNEL32.dll
 0004:00000808       __imp__GetTickCount@0      00647808     kernel32:KERNEL32.dll
 0004:0000080c       __imp__QueryPerformanceCounter@4 0064780c     kernel32:KERNEL32.dll
 0004:00000810       __imp__GetFileSize@8       00647810     kernel32:KERNEL32.dll
 0004:00000814       __imp__FreeEnvironmentStringsW@4 00647814     kernel32:KERNEL32.dll
 0004:00000818       __imp__GetModuleFileNameA@12 00647818     kernel32:KERNEL32.dll
 0004:0000081c       __imp__GetLocaleInfoW@16   0064781c     kernel32:KERNEL32.dll
 0004:00000820       __imp__GetModuleFileNameW@12 00647820     kernel32:KERNEL32.dll
 0004:00000824       __imp__HeapDestroy@4       00647824     kernel32:KERNEL32.dll
 0004:00000828       __imp__HeapCreate@12       00647828     kernel32:KERNEL32.dll
 0004:0000082c       __imp__GetConsoleMode@8    0064782c     kernel32:KERNEL32.dll
 0004:00000830       __imp__GetConsoleCP@0      00647830     kernel32:KERNEL32.dll
 0004:00000834       __imp__IsValidCodePage@4   00647834     kernel32:KERNEL32.dll
 0004:00000838       __imp__GetOEMCP@0          00647838     kernel32:KERNEL32.dll
 0004:0000083c       __imp__GetACP@0            0064783c     kernel32:KERNEL32.dll
 0004:00000840       __imp__ExitProcess@4       00647840     kernel32:KERNEL32.dll
 0004:00000844       __imp__HeapSize@12         00647844     kernel32:KERNEL32.dll
 0004:00000848       __imp__GetCurrentThread@0  00647848     kernel32:KERNEL32.dll
 0004:0000084c       __imp__GetCommandLineW@0   0064784c     kernel32:KERNEL32.dll
 0004:00000850       __imp__GlobalFree@4        00647850     kernel32:KERNEL32.dll
 0004:00000854       __imp__GetCurrentProcess@0 00647854     kernel32:KERNEL32.dll
 0004:00000858       __imp__CreateFileW@28      00647858     kernel32:KERNEL32.dll
 0004:0000085c       __imp__GetProcessAffinityMask@12 0064785c     kernel32:KERNEL32.dll
 0004:00000860       __imp__SetProcessAffinityMask@8 00647860     kernel32:KERNEL32.dll
 0004:00000864       __imp__LoadLibraryA@4      00647864     kernel32:KERNEL32.dll
 0004:00000868       __imp__GetProcAddress@8    00647868     kernel32:KERNEL32.dll
 0004:0000086c       __imp__OpenMutexA@12       0064786c     kernel32:KERNEL32.dll
 0004:00000870       __imp__CreateMutexA@12     00647870     kernel32:KERNEL32.dll
 0004:00000874       __imp__ReleaseMutex@4      00647874     kernel32:KERNEL32.dll
 0004:00000878       __imp__GetCurrentProcessId@0 00647878     kernel32:KERNEL32.dll
 0004:0000087c       __imp__CreateToolhelp32Snapshot@8 0064787c     kernel32:KERNEL32.dll
 0004:00000880       __imp__Module32First@8     00647880     kernel32:KERNEL32.dll
 0004:00000884       __imp__FreeLibrary@4       00647884     kernel32:KERNEL32.dll
 0004:00000888       __imp__Module32Next@8      00647888     kernel32:KERNEL32.dll
 0004:0000088c       __imp__lstrcatA@8          0064788c     kernel32:KERNEL32.dll
 0004:00000890       __imp__lstrlenA@4          00647890     kernel32:KERNEL32.dll
 0004:00000894       __imp__WinExec@8           00647894     kernel32:KERNEL32.dll
 0004:00000898       __imp__lstrcpyA@8          00647898     kernel32:KERNEL32.dll
 0004:0000089c       __imp__HeapAlloc@12        0064789c     kernel32:KERNEL32.dll
 0004:000008a0       __imp__ReadFile@20         006478a0     kernel32:KERNEL32.dll
 0004:000008a4       __imp__CreateFileA@28      006478a4     kernel32:KERNEL32.dll
 0004:000008a8       __imp__WriteFile@20        006478a8     kernel32:KERNEL32.dll
 0004:000008ac       __imp__SetFilePointer@16   006478ac     kernel32:KERNEL32.dll
 0004:000008b0       __imp__GetCurrentThreadId@0 006478b0     kernel32:KERNEL32.dll
 0004:000008b4       __imp__SetLastError@4      006478b4     kernel32:KERNEL32.dll
 0004:000008b8       __imp__GetModuleHandleW@4  006478b8     kernel32:KERNEL32.dll
 0004:000008bc       __imp__OutputDebugStringA@4 006478bc     kernel32:KERNEL32.dll
 0004:000008c0       __imp__CloseHandle@4       006478c0     kernel32:KERNEL32.dll
 0004:000008c4       __imp__GetProcessHeap@0    006478c4     kernel32:KERNEL32.dll
 0004:000008c8       __imp__HeapFree@12         006478c8     kernel32:KERNEL32.dll
 0004:000008cc       __imp__EnterCriticalSection@4 006478cc     kernel32:KERNEL32.dll
 0004:000008d0       __imp__GetEnvironmentStringsW@0 006478d0     kernel32:KERNEL32.dll
 0004:000008d4       __imp__DeleteCriticalSection@4 006478d4     kernel32:KERNEL32.dll
 0004:000008d8       __imp__TlsFree@4           006478d8     kernel32:KERNEL32.dll
 0004:000008dc       __imp__TlsSetValue@8       006478dc     kernel32:KERNEL32.dll
 0004:000008e0       __imp__TlsGetValue@4       006478e0     kernel32:KERNEL32.dll
 0004:000008e4       __imp__TlsAlloc@0          006478e4     kernel32:KERNEL32.dll
 0004:000008e8       __imp__GetFileType@4       006478e8     kernel32:KERNEL32.dll
 0004:000008ec       __imp__InitializeCriticalSectionAndSpinCount@8 006478ec     kernel32:KERNEL32.dll
 0004:000008f0       __imp__GetStdHandle@4      006478f0     kernel32:KERNEL32.dll
 0004:000008f4       __imp__SetHandleCount@4    006478f4     kernel32:KERNEL32.dll
 0004:000008f8       __imp__TerminateProcess@8  006478f8     kernel32:KERNEL32.dll
 0004:000008fc       __imp__IsDebuggerPresent@0 006478fc     kernel32:KERNEL32.dll
 0004:00000900       __imp__SetUnhandledExceptionFilter@4 00647900     kernel32:KERNEL32.dll
 0004:00000904       __imp__UnhandledExceptionFilter@4 00647904     kernel32:KERNEL32.dll
 0004:00000908       __imp__IsProcessorFeaturePresent@4 00647908     kernel32:KERNEL32.dll
 0004:0000090c       __imp__GetCPInfo@8         0064790c     kernel32:KERNEL32.dll
 0004:00000910       __imp__MultiByteToWideChar@24 00647910     kernel32:KERNEL32.dll
 0004:00000914       __imp__LCMapStringW@24     00647914     kernel32:KERNEL32.dll
 0004:00000918       __imp__GetStartupInfoW@4   00647918     kernel32:KERNEL32.dll
 0004:0000091c       __imp__HeapSetInformation@16 0064791c     kernel32:KERNEL32.dll
 0004:00000920       __imp__GetCommandLineA@0   00647920     kernel32:KERNEL32.dll
 0004:00000924       __imp__GetFileAttributesA@4 00647924     kernel32:KERNEL32.dll
 0004:00000928       __imp__CreateDirectoryA@8  00647928     kernel32:KERNEL32.dll
 0004:0000092c       __imp__WideCharToMultiByte@32 0064792c     kernel32:KERNEL32.dll
 0004:00000930       __imp__GetLastError@0      00647930     kernel32:KERNEL32.dll
 0004:00000934       __imp__GetSystemTimeAsFileTime@4 00647934     kernel32:KERNEL32.dll
 0004:00000938       __imp__RtlUnwind@16        00647938     kernel32:KERNEL32.dll
 0004:0000093c       __imp__RaiseException@16   0064793c     kernel32:KERNEL32.dll
 0004:00000940       __imp__DecodePointer@4     00647940     kernel32:KERNEL32.dll
 0004:00000944       __imp__EncodePointer@4     00647944     kernel32:KERNEL32.dll
 0004:00000948       __imp__InterlockedIncrement@4 00647948     kernel32:KERNEL32.dll
 0004:0000094c       __imp__InterlockedDecrement@4 0064794c     kernel32:KERNEL32.dll
 0004:00000950       __imp__InterlockedExchange@8 00647950     kernel32:KERNEL32.dll
 0004:00000954       __imp__InitializeCriticalSection@4 00647954     kernel32:KERNEL32.dll
 0004:00000958       __imp__LeaveCriticalSection@4 00647958     kernel32:KERNEL32.dll
 0004:0000095c       \177KERNEL32_NULL_THUNK_DATA 0064795c     kernel32:KERNEL32.dll
 0004:000009d8       __imp__Netbios@4           006479d8     Netapi32:NETAPI32.dll
 0004:000009dc       \177NETAPI32_NULL_THUNK_DATA 006479dc     Netapi32:NETAPI32.dll
 0004:00000a08       __imp__ShellExecuteA@24    00647a08     shell32:SHELL32.dll
 0004:00000a0c       __imp__CommandLineToArgvW@8 00647a0c     shell32:SHELL32.dll
 0004:00000a10       \177SHELL32_NULL_THUNK_DATA 00647a10     shell32:SHELL32.dll
 0004:00000a3c       __imp__SetWindowPos@28     00647a3c     user32:USER32.dll
 0004:00000a40       __imp__GetSystemMetrics@4  00647a40     user32:USER32.dll
 0004:00000a44       __imp__SetRect@20          00647a44     user32:USER32.dll
 0004:00000a48       __imp__GetCursorPos@4      00647a48     user32:USER32.dll
 0004:00000a4c       __imp__UpdateWindow@4      00647a4c     user32:USER32.dll
 0004:00000a50       __imp__ShowWindow@8        00647a50     user32:USER32.dll
 0004:00000a54       __imp__CreateWindowExA@48  00647a54     user32:USER32.dll
 0004:00000a58       __imp__WaitMessage@0       00647a58     user32:USER32.dll
 0004:00000a5c       __imp__DispatchMessageA@4  00647a5c     user32:USER32.dll
 0004:00000a60       __imp__GetMessageA@16      00647a60     user32:USER32.dll
 0004:00000a64       __imp__PeekMessageA@20     00647a64     user32:USER32.dll
 0004:00000a68       __imp__TranslateMessage@4  00647a68     user32:USER32.dll
 0004:00000a6c       __imp__GetDC@4             00647a6c     user32:USER32.dll
 0004:00000a70       __imp__CallNextHookEx@16   00647a70     user32:USER32.dll
 0004:00000a74       __imp__UnhookWindowsHookEx@4 00647a74     user32:USER32.dll
 0004:00000a78       __imp__SetWindowsHookExA@16 00647a78     user32:USER32.dll
 0004:00000a7c       __imp__PostQuitMessage@4   00647a7c     user32:USER32.dll
 0004:00000a80       __imp__MessageBoxA@16      00647a80     user32:USER32.dll
 0004:00000a84       __imp__SetCursor@4         00647a84     user32:USER32.dll
 0004:00000a88       __imp__DefWindowProcA@16   00647a88     user32:USER32.dll
 0004:00000a8c       __imp__RegisterClassA@4    00647a8c     user32:USER32.dll
 0004:00000a90       __imp__LoadCursorA@8       00647a90     user32:USER32.dll
 0004:00000a94       __imp__SendMessageA@16     00647a94     user32:USER32.dll
 0004:00000a98       __imp__GetAsyncKeyState@4  00647a98     user32:USER32.dll
 0004:00000a9c       __imp__DrawTextA@20        00647a9c     user32:USER32.dll
 0004:00000aa0       __imp__ReleaseDC@8         00647aa0     user32:USER32.dll
 0004:00000aa4       __imp__PostMessageA@16     00647aa4     user32:USER32.dll
 0004:00000aa8       __imp__FlashWindow@8       00647aa8     user32:USER32.dll
 0004:00000aac       __imp__wsprintfA           00647aac     user32:USER32.dll
 0004:00000ab0       \177USER32_NULL_THUNK_DATA 00647ab0     user32:USER32.dll
 0004:00000af0       __imp__timeSetEvent@20     00647af0     WINMM:WINMM.dll
 0004:00000af4       __imp__timeBeginPeriod@4   00647af4     WINMM:WINMM.dll
 0004:00000af8       __imp__timeGetDevCaps@8    00647af8     WINMM:WINMM.dll
 0004:00000afc       __imp__timeEndPeriod@4     00647afc     WINMM:WINMM.dll
 0004:00000b00       __imp__timeKillEvent@4     00647b00     WINMM:WINMM.dll
 0004:00000b04       __imp__timeGetTime@0       00647b04     WINMM:WINMM.dll
 0004:00000b08       \177WINMM_NULL_THUNK_DATA  00647b08     WINMM:WINMM.dll
 0004:00000b38       __imp__WSACleanup@0        00647b38     WSOCK32:WSOCK32.dll
 0004:00000b3c       __imp__WSAStartup@8        00647b3c     WSOCK32:WSOCK32.dll
 0004:00000b40       __imp__setsockopt@20       00647b40     WSOCK32:WSOCK32.dll
 0004:00000b44       __imp__WSAGetLastError@0   00647b44     WSOCK32:WSOCK32.dll
 0004:00000b48       __imp__connect@12          00647b48     WSOCK32:WSOCK32.dll
 0004:00000b4c       __imp__htons@4             00647b4c     WSOCK32:WSOCK32.dll
 0004:00000b50       __imp__gethostbyname@4     00647b50     WSOCK32:WSOCK32.dll
 0004:00000b54       __imp__socket@12           00647b54     WSOCK32:WSOCK32.dll
 0004:00000b58       __imp__closesocket@4       00647b58     WSOCK32:WSOCK32.dll
 0004:00000b5c       __imp__WSAAsyncSelect@16   00647b5c     WSOCK32:WSOCK32.dll
 0004:00000b60       __imp__inet_addr@4         00647b60     WSOCK32:WSOCK32.dll
 0004:00000b64       __imp__recv@16             00647b64     WSOCK32:WSOCK32.dll
 0004:00000b68       __imp__send@16             00647b68     WSOCK32:WSOCK32.dll
 0004:00000b6c       __imp__listen@8            00647b6c     WSOCK32:WSOCK32.dll
 0004:00000b70       __imp__bind@12             00647b70     WSOCK32:WSOCK32.dll
 0004:00000b74       __imp__accept@12           00647b74     WSOCK32:WSOCK32.dll
 0004:00000b78       __imp__shutdown@8          00647b78     WSOCK32:WSOCK32.dll
 0004:00000b7c       __imp__inet_ntoa@4         00647b7c     WSOCK32:WSOCK32.dll
 0004:00000b80       __imp__getpeername@12      00647b80     WSOCK32:WSOCK32.dll
 0004:00000b84       \177WSOCK32_NULL_THUNK_DATA 00647b84     WSOCK32:WSOCK32.dll
 0004:00000bbc       __imp____FindHackingDll__  00647bbc     search:search.dll
 0004:00000bc0       \177search_NULL_THUNK_DATA 00647bc0     search:search.dll

 entry point at        0001:0010f72f

